 A51

 Timestamp is 424d930f (Fri Apr 01 12:29:35 2005)

 Preferred load address is 00400000

 Start         Length     Name                   Class
 0001:00000000 002bfdc5H .text                   CODE
 0001:002bfdc5 0000067cH .text$x                 CODE
 0001:002c0450 000071bcH .text$yc                CODE
 0001:002c7610 00001c11H .text$yd                CODE
 0002:00000000 000177f7H D3D                     CODE
 0002:000177f8 00006bf8H D3D_RD                  CODE
 0002:0001e3f0 000065e4H D3D_URW                 CODE
 0003:00000000 0000058bH BINK32X2                CODE
 0004:00000000 00000558H BINK16X2                CODE
 0005:00000000 00001559H BINK32A                 CODE
 0006:00000000 0000132bH BINK16                  CODE
 0007:00000000 0000012eH BINK16MX2               CODE
 0008:00000000 00000c9cH BINKYUY2                CODE
 0009:00000000 000000b7H BINKYUY2X2              CODE
 000a:00000000 0000ca4aH BINK                    CODE
 000b:00000000 00001275H BINK32                  CODE
 000c:00000000 00000087H BINKYUY2M               CODE
 000d:00000000 000001f7H BINK16M                 CODE
 000e:00000000 0000014cH BINK32M                 CODE
 000f:00000000 0000009aH BINKYUY2MX2             CODE
 0010:00000000 00001142H BINK5551                CODE
 0011:00000000 000015afH BINK4444                CODE
 0012:00000000 000001baH BINK32MX2               CODE
 0013:00000000 00000094H D3DX                    CODE
 0013:00000098 00000000H D3DX_RD                 CODE
 0014:00000000 00009631H DSOUND                  CODE
 0014:00009638 000014e4H DSOUND_RD               CODE
 0014:0000ab20 000006d0H DSOUND_RW               CODE
 0014:0000b1f0 000001e4H DSOUND_URW              CODE
 0015:00000000 0002227dH XONLINE                 CODE
 0016:00000000 00012285H XNET                    CODE
 0016:00012288 000002d0H XNET_RD                 CODE
 0017:00000000 0001d084H XGRPH                   CODE
 0017:0001d088 00002db3H XGRPH_RD                CODE
 0017:0001fe40 00000cacH XGRPH_RW                CODE
 0018:00000000 00000004H .XID$A                  CODE
 0018:00000004 00000004H .XID$Gamepad            CODE
 0018:00000008 00000004H .XID$IrRemote           CODE
 0018:0000000c 00000004H .XID$ZZZ                CODE
 0018:00000010 00000004H .XPP$ClassA             CODE
 0018:00000014 00000008H .XPP$ClassHawk          CODE
 0018:0000001c 00000004H .XPP$ClassMU            CODE
 0018:00000020 00000008H .XPP$ClassXID           CODE
 0018:00000028 00000004H .XPP$ClassZZHub         CODE
 0018:0000002c 00000004H .XPP$ClassZZZ           CODE
 0018:00000030 00000001H .XPP$DATA               CODE
 0018:00000038 0000024cH .XPP$Data               CODE
 0018:00000284 00000ec0H .XPPCINIT               CODE
 0018:00001144 00007d8dH .XPPCODE                CODE
 0018:00008ed4 00000040H .XPPRDATA               CODE
 0019:00000000 00000278H .idata$5                DATA
 0019:00000280 0005dee4H .rdata                  DATA
 0019:0005e164 00000045H .rdata$debug            DATA
 0019:0005e1b0 0000099cH .xdata$x                DATA
 0019:0005eb4c 00000000H .edata                  DATA
 001a:00000000 00000004H .CRT$RIA                DATA
 001a:00000004 00000004H .CRT$RII10              DATA
 001a:00000008 00000004H .CRT$RII20              DATA
 001a:0000000c 00000004H .CRT$RIZ                DATA
 001a:00000010 00000004H .CRT$XCA                DATA
 001a:00000014 00000004H .CRT$XCL                DATA
 001a:00000018 00000cccH .CRT$XCU                DATA
 001a:00000ce4 00000004H .CRT$XCZ                DATA
 001a:00000ce8 00000004H .CRT$XIA                DATA
 001a:00000cec 00000004H .CRT$XIB                DATA
 001a:00000cf0 0000000cH .CRT$XIC                DATA
 001a:00000cfc 00000004H .CRT$XIY                DATA
 001a:00000d00 00000004H .CRT$XIZ                DATA
 001a:00000d04 00000004H .CRT$XPA                DATA
 001a:00000d08 00000004H .CRT$XPX                DATA
 001a:00000d0c 00000004H .CRT$XPZ                DATA
 001a:00000d10 00000004H .CRT$XTA                DATA
 001a:00000d14 00000004H .CRT$XTB                DATA
 001a:00000d18 00000004H .CRT$XTZ                DATA
 001a:00000d1c 00000004H .XAPI$LNA               DATA
 001a:00000d20 00000004H .XAPI$LNI               DATA
 001a:00000d24 00000004H .XAPI$LNZ               DATA
 001a:00000d40 0007a4e0H .data                   DATA
 001a:0007b220 0014183cH .bss                    DATA
 001b:00000000 00007180H DOLBY                   DATA
 001c:00000000 000000e0H .data1                  DATA
 001d:00000000 0000182fH XON_RD                  DATA
 001e:00000000 0000f648H BINKDATA                DATA
 001f:00000000 00000028H .idata$2                CODE
 001f:00000028 00000014H .idata$3                CODE
 001f:0000003c 00000278H .idata$4                CODE
 001f:000002b4 00000018H .idata$6                CODE
 0020:00000000 00000010H .XBLD$A                 DATA
 0020:00000010 00000090H .XBLD$V                 DATA
 0021:00000000 00000001H .tls                    DATA
 0021:00000008 00000088H .tls$                   DATA
 0021:00000090 00000001H .tls$ZZZ                DATA

  Address         Publics by Value              Rva+Base     Lib:Object

 0000:00000000       ___safe_se_handler_table   00000000     <absolute>
 0000:00000000       ___safe_se_handler_count   00000000     <absolute>
 0000:00000000       __except_list              00000000     <absolute>
 0000:00000004       __tls_array                00000004     <absolute>
 0001:00000000       ?Load@config_options@@QAEXPBD@Z 00400740 f   Config.obj
 0001:00000140       ?Load@ini_file@@QAEHPBD@Z  00400880 f   IniFile.obj
 0001:00000220       ?GetString@ini_file@@QAEHPBDPAD@Z 00400960 f   IniFile.obj
 0001:00000270       ?GetBool@ini_file@@QAEHPBDAAH@Z 004009b0 f   IniFile.obj
 0001:00000380       ?FindValue@ini_file@@IAEPBDPBD@Z 00400ac0 f   IniFile.obj
 0001:00000430       ??0xcolor@@QAE@EEEE@Z      00400b70 f i main.obj
 0001:00000450       ?SetName@rhandle_base@@QAEXPBD@Z 00400b90 f i main.obj
 0001:00000470       ?GetObjectRTTI@loco@@UBEABUrtti@@XZ 00400bb0 f i Gamelib:Loco.obj
 0001:00000470       ?GetRTTI@object@@SAABUrtti@@XZ 00400bb0 f i main.obj
 0001:00000470       ?GetObjectRTTI@object@@UBEABUrtti@@XZ 00400bb0 f i Gamelib:object.obj
 0001:000004a0       ?GetNext@obj_mgr@@QAEGG@Z  00400be0 f i main.obj
 0001:000004f0       ?GetObjectBySlot@obj_mgr@@QAEPAVobject@@G@Z 00400c30 f i main.obj
 0001:00000510       ?GetObjectByGuid@obj_mgr@@QAEPAVobject@@Uguid@@@Z 00400c50 f i main.obj
 0001:00000570       ?GetRTTI@level_settings@@SAABUrtti@@XZ 00400cb0 f i main.obj
 0001:000005d0       ?GetRTTI@trigger_ex_object@@SAABUrtti@@XZ 00400d10 f i main.obj
 0001:00000630       ?Init@check_point@@QAEXXZ  00400d70 f i main.obj
 0001:000006a0       ?Init@level_check_points@@QAEXH@Z 00400de0 f i main.obj
 0001:000006e0       ??_H@YGXPAXIHP6EPAX0@Z@Z   00400e20 f i main.obj
 0001:00000710       ??_I@YGXPAXIHP6EX0@Z@Z     00400e50 f i main.obj
 0001:00000750       ?FreeCam@@YAXM@Z           00400e90 f   main.obj
 0001:00000d70       ?HandleInputPlatform@@YAHM@Z 004014b0 f   main.obj
 0001:00000f40       ?HandleInput@@YAHM@Z       00401680 f   main.obj
 0001:000010a0       ?UpdateAudio@@YAXM@Z       004017e0 f   main.obj
 0001:00001100       ?Update@@YAXM@Z            00401840 f   main.obj
 0001:000012d0       ?SetupViewAndFog@@YAXE@Z   00401a10 f   main.obj
 0001:000013c0       ?RenderGame@@YAXXZ         00401b00 f   main.obj
 0001:00001c60       ?SaveCamera@@YAXXZ         004023a0 f   main.obj
 0001:00001cc0       ?LoadCamera@@YAXXZ         00402400 f   main.obj
 0001:00001d60       ?DoStartup@@YAXXZ          004024a0 f   main.obj
 0001:00002270       ?UpdateFrontEnd@@YAXXZ     004029b0 f   main.obj
 0001:000022e0       ?RunFrontEnd@@YAXXZ        00402a20 f   main.obj
 0001:000023d0       ?RunGame@@YAXXZ            00402b10 f   main.obj
 0001:000027a0       _main                      00402ee0 f   main.obj
 0001:000027c0       ?AppMain@@YAXHQAPAD@Z      00402f00 f   main.obj
 0001:00002b40       ??1node@prop_enum@@QAE@XZ  00403280 f i main.obj
 0001:00002b70       ?HasDialog@conversation_mgr@@QAEHPBD0@Z 004032b0 f   ConversationMgr:ConversationMgr.obj
 0001:00002bb0       ?PlayStream@conversation_mgr@@QAEIPBD0Uguid@@FABTvector3@@MHE@Z 004032f0 f   ConversationMgr:ConversationMgr.obj
 0001:00002c10       ?PlayStream@conversation_mgr@@QAEIPBDABTvector3@@Uguid@@FMHE@Z 00403350 f   ConversationMgr:ConversationMgr.obj
 0001:00002c70       ?PlayHotVoice@conversation_mgr@@QAEIPBD0ABTvector3@@FMHE@Z 004033b0 f   ConversationMgr:ConversationMgr.obj
 0001:00002cb0       ?PlayHotVoice@conversation_mgr@@IAEIPBDABTvector3@@FMHE@Z 004033f0 f   ConversationMgr:ConversationMgr.obj
 0001:00002d10       ?StartSound@conversation_mgr@@QAEXI@Z 00403450 f   ConversationMgr:ConversationMgr.obj
 0001:00002d40       ?SetFalloff@conversation_mgr@@QAEXIMM@Z 00403480 f   ConversationMgr:ConversationMgr.obj
 0001:00002d70       ?SetVolume@conversation_mgr@@QAEXIM@Z 004034b0 f   ConversationMgr:ConversationMgr.obj
 0001:00002da0       ?IsReadyToPlay@conversation_mgr@@QAEHI@Z 004034e0 f   ConversationMgr:ConversationMgr.obj
 0001:00002dd0       ?Kill@music_mgr@@QAEXXZ    00403510 f   Music_mgr:music_mgr.obj
 0001:00002e50       ?Request@music_mgr@@QAEHPADHMMMH@Z 00403590 f   Music_mgr:music_mgr.obj
 0001:00002f20       ?CanTransition@music_mgr@@QAEHHAAM@Z 00403660 f   Music_mgr:music_mgr.obj
 0001:000030d0       ?StartTransition@music_mgr@@QAEXXZ 00403810 f   Music_mgr:music_mgr.obj
 0001:000031f0       ?UpdateTransition@music_mgr@@QAEXM@Z 00403930 f   Music_mgr:music_mgr.obj
 0001:000034c0       ?UpdateNormal@music_mgr@@QAEXXZ 00403c00 f   Music_mgr:music_mgr.obj
 0001:00003730       ?Update@music_mgr@@QAEXM@Z 00403e70 f   Music_mgr:music_mgr.obj
 0001:000037c0       ?x_sincos@@YAXMAAM0@Z      00403f00 f i Render:Render.obj
 0001:000037e0       ?Set@vector3@@QAEXMM@Z     00403f20 f i Render:Render.obj
 0001:00003850       ??0vector3@@QAE@MM@Z       00403f90 f i Render:Render.obj
 0001:000038c0       ?Normalize@vector3@@QAEXXZ 00404000 f i Render:Render.obj
 0001:00003920       ?Length@vector3@@QBEMXZ    00404060 f i Render:Render.obj
 0001:00003950       ??Rmatrix4@@QAEAAMHH@Z     00404090 f i Render:Render.obj
 0001:00003960       ?Identity@matrix4@@QAEXXZ  004040a0 f i Render:Render.obj
 0001:000039d0       ?m4_InvertRT@@YA?ATmatrix4@@ABT1@@Z 00404110 f i Render:Render.obj
 0001:00003b10       ?InvertRT@matrix4@@QAEHXZ  00404250 f i Render:Render.obj
 0001:00003b40       ?Translate@matrix4@@QAEXABTvector3@@@Z 00404280 f i Render:Render.obj
 0001:00003ca0       ?GetColumns@matrix4@@QBEXAATvector3@@00@Z 004043e0 f i Render:Render.obj
 0001:00003cf0       ??Xmatrix4@@QAEAAT0@ABT0@@Z 00404430 f i Render:Render.obj
 0001:00003d20       ?SetRotation@matrix4@@QAEXABUradian3@@@Z 00404460 f i Render:Render.obj
 0001:00003e20       ?GetRadius@bbox@@QBEMXZ    00404560 f i Render:Render.obj
 0001:00003e80       ?Transform@bbox@@QAEXABTmatrix4@@@Z 004045c0 f i Render:Render.obj
 0001:00004040       ??0xcolor@@QAE@ABU0@@Z     00404780 f i Render:Render.obj
 0001:00004040       ??4xcolor@@QAEABU0@ABU0@@Z 00404780 f i Render:Render.obj
 0001:00004060       ??0xcolor@@QAE@I@Z         004047a0 f i Render:Render.obj
 0001:00004080       ??Bxstring@@QBEPBDXZ       004047c0 f i Gamelib:StateMgr.obj
 0001:00004080       ??Bxcolor@@QBE?BIXZ        004047c0 f i Render:Render.obj
 0001:00004090       ?GetWidth@xbitmap@@QBEHH@Z 004047d0 f i Render:Render.obj
 0001:000040b0       ?GetHeight@xbitmap@@QBEHH@Z 004047f0 f i Render:Render.obj
 0001:000040d0       ?BeginTiming@pipeline_mgr@@QAEXXZ 00404810 f i Render:Render.obj
 0001:00004470       ?xbox_GetFogValue@@YA?AUxcolor@@ABTvector3@@H@Z 00404bb0 f   Render:Render.obj
 0001:000053b0       ?BitScan@@YIHI@Z           00405af0 f i Render:Render.obj
 0001:000053c0       ??0path@vs@@QAE@AATdesc@1@@Z 00405b00 f   Render:Render.obj
 0001:00005460       ??0path@ps@@QAE@AATdesc@1@@Z 00405ba0 f   Render:Render.obj
 0001:00005690       ??0shader_mgr@@QAE@XZ      00405dd0 f   Render:Render.obj
 0001:00005800       ?SetPerPixelPointLights@shader_mgr@@QAEHPBUlights@@ABTmatrix4@@@Z 00405f40 f   Render:Render.obj
 0001:00005ab0       ?SetPointLights@shader_mgr@@QAEHPBUlights@@ABTmatrix4@@@Z 004061f0 f   Render:Render.obj
 0001:00005cd0       ?SetDirLights@shader_mgr@@QAEXPBUlights@@@Z 00406410 f   Render:Render.obj
 0001:00005d60       ?Begin@shader_mgr@@QAEXXZ  004064a0 f   Render:Render.obj
 0001:00005dd0       ?SetCustomFogPalette@shader_mgr@@QAEXABU?$rhandle@Vtexture@@@@HH@Z 00406510 f   Render:Render.obj
 0001:00006330       ?End@shader_mgr@@QAEXXZ    00406a70 f   Render:Render.obj
 0001:00006390       ?SetPixelShader@shader_mgr@@QAEXW4shader_style@@@Z 00406ad0 f   Render:Render.obj
 0001:00006640       ?Link@shader_mgr@@QAEIAATdesc@vs@@AAT2ps@@_N@Z 00406d80 f   Render:Render.obj
 0001:000068b0       ?Link@shader_mgr@@QAEIIPBTmatrix4@@AATdesc@vs@@PBTvector4@@AAT3ps@@_N@Z 00406ff0 f   Render:Render.obj
 0001:00006950       ??0shader@@QAE@IAAUXGBuffer@@PAI@Z 00407090 f   Render:Render.obj
 0001:000069a0       ?Blt@@YAXMMMMMMMM@Z        004070e0 f   Render:Render.obj
 0001:00006c90       ?Blt@@YAXMMMMMMMMM@Z       004073d0 f   Render:Render.obj
 0001:00006e30       ?xbox_CalcDistance@@YAMABTmatrix4@@ABUbbox@@@Z 00407570 f   Render:Render.obj
 0001:00007080       ?xbox_GetRes@@YAXAAH0@Z    004077c0 f   Render:Render.obj
 0001:000070b0       ?xbox_DrawBeginCB@@YAXXZ   004077f0 f   Render:Render.obj
 0001:000070e0       ?xbox_SyncBeginCB@@YAXXZ   00407820 f   Render:Render.obj
 0001:000070f0       ?xbox_SetBackWithZ@@YAXXZ  00407830 f   Render:Render.obj
 0001:00007180       ?xbox_SetPrimaryTarget@@YAXXZ 004078c0 f   Render:Render.obj
 0001:00007230       ?xbox_SetPipTarget@@YAXHHH@Z 00407970 f   Render:Render.obj
 0001:00007400       ?ResizePipTexture@pipeline_mgr@@QAEXHH@Z 00407b40 f   Render:Render.obj
 0001:00007620       ?xbox_PreRegister@@YAXPBDPAUskin_geom@@@Z 00407d60 f   Render:Render.obj
 0001:000077b0       ?xbox_Unregister@@YAXPAUskin_geom@@@Z 00407ef0 f   Render:Render.obj
 0001:00007910       ?xbox_PreRegister@@YAXPBDPAUrigid_geom@@@Z 00408050 f   Render:Render.obj
 0001:000079b0       ?xbox_Unregister@@YAXPAUrigid_geom@@@Z 004080f0 f   Render:Render.obj
 0001:00007a80       ?SetTiled@render_target@@QAE_NHH@Z 004081c0 f   Render:Render.obj
 0001:00007ad0       ?Set@render_target@@QAE_NHH@Z 00408210 f   Render:Render.obj
 0001:00007b40       ?SetTile@render_target@@QAE_NPAVbuffer@texture_factory@@0@Z 00408280 f   Render:Render.obj
 0001:00007bb0       ?BeginRigid@pipeline_mgr@@QAEXPAUgeom@@H@Z 004082f0 f   Render:Render.obj
 0001:00007c10       ?BeginSkin@pipeline_mgr@@QAEXPAUgeom@@H@Z 00408350 f   Render:Render.obj
 0001:00007c70       ??1pipeline_mgr@@QAE@XZ    004083b0 f   Render:Render.obj
 0001:00007d10       ?InitialiseTiledMemory@pipeline_mgr@@QAEXXZ 00408450 f   Render:Render.obj
 0001:000082f0       ??0pipeline_mgr@@QAE@I_N@Z 00408a30 f   Render:Render.obj
 0001:00008660       ?SetupEnvMap@pipeline_mgr@@QAEXIPBVxbitmap@@0@Z 00408da0 f   Render:Render.obj
 0001:00008d70       ?BeginNormalRender@pipeline_mgr@@QAEXXZ 004094b0 f   Render:Render.obj
 0001:00008e50       ?EndNormalRender@pipeline_mgr@@QAEXXZ 00409590 f   Render:Render.obj
 0001:00009070       ?BeginZPrime@pipeline_mgr@@QAEXXZ 004097b0 f   Render:Render.obj
 0001:00009350       ?EndZPrime@pipeline_mgr@@QAEXXZ 00409a90 f   Render:Render.obj
 0001:00009460       ?BeginLightMap@pipeline_mgr@@QAEXXZ 00409ba0 f   Render:Render.obj
 0001:000096c0       ?SetDefaultDistortion@pipeline_mgr@@QAEXABUradian3@@@Z 00409e00 f   Render:Render.obj
 0001:00009780       ?SetEnvDistortion@pipeline_mgr@@QAEXIABUradian3@@PBVxbitmap@@@Z 00409ec0 f   Render:Render.obj
 0001:000098e0       ?SetZMaterial@pipeline_mgr@@QAE_NABVmaterial@@@Z 0040a020 f   Render:Render.obj
 0001:00009a80       ?SetLitMaterial@pipeline_mgr@@QAEXABVmaterial@@@Z 0040a1c0 f   Render:Render.obj
 0001:00009b80       ?SetMaterial@pipeline_mgr@@QAEXABVmaterial@@@Z 0040a2c0 f   Render:Render.obj
 0001:0000a430       ?RenderInstance@pipeline_mgr@@QAEXXZ 0040ab70 f   Render:Render.obj
 0001:0000a5b0       ?SwitchToBackBuffer@pipeline_mgr@@QAEXXZ 0040acf0 f   Render:Render.obj
 0001:0000a630       ?CalculateViewport@pipeline_mgr@@QAEXHAAU_D3DVIEWPORT8@@@Z 0040ad70 f   Render:Render.obj
 0001:0000a7c0       ?SetRenderTarget@pipeline_mgr@@QAEXHHAAU_D3DVIEWPORT8@@@Z 0040af00 f   Render:Render.obj
 0001:0000a8a0       ?BeginShadowPass@pipeline_mgr@@QAEXXZ 0040afe0 f   Render:Render.obj
 0001:0000ac00       ?EndShadowPass@pipeline_mgr@@QAEXXZ 0040b340 f   Render:Render.obj
 0001:0000ad70       ?RenderToShadows@pipeline_mgr@@QAEXAAUrender_instance@@H@Z 0040b4b0 f   Render:Render.obj
 0001:0000b350       ?SkinCastShadow@pipeline_mgr@@QAEXAAUrender_instance@@H@Z 0040ba90 f   Render:Render.obj
 0001:0000b490       ?StartShadowReceive@pipeline_mgr@@QAEXXZ 0040bbd0 f   Render:Render.obj
 0001:0000b550       ?SetupLighting@pipeline_mgr@@QAEPATvector4@@AATdesc@vs@@AAT3ps@@@Z 0040bc90 f   Render:Render.obj
 0001:0000b8a0       ?AddDetailMap@pipeline_mgr@@QAEXAATdesc@vs@@AAT2ps@@@Z 0040bfe0 f   Render:Render.obj
 0001:0000b9e0       ?AddFlashlight@pipeline_mgr@@QAE_NAATdesc@vs@@AAT2ps@@@Z 0040c120 f   Render:Render.obj
 0001:0000bba0       ?SetupCubeConsts@pipeline_mgr@@QAEXAATdesc@vs@@@Z 0040c2e0 f   Render:Render.obj
 0001:0000bc40       ?SetupTexConsts@pipeline_mgr@@QAEXAATdesc@ps@@@Z 0040c380 f   Render:Render.obj
 0001:0000bd10       ?SetupDistortion@pipeline_mgr@@QAEXAATdesc@vs@@AAT2ps@@@Z 0040c450 f   Render:Render.obj
 0001:0000bd60       ?SetupDistortionConsts@pipeline_mgr@@QAEXAAUrender_instance@@@Z 0040c4a0 f   Render:Render.obj
 0001:0000bfc0       ?FogEnable@pipeline_mgr@@QAE_NAATdesc@vs@@AAT2ps@@_N@Z 0040c700 f   Render:Render.obj
 0001:0000c0e0       ?SetupChannels@pipeline_mgr@@QAEXAATdesc@vs@@AAT2ps@@@Z 0040c820 f   Render:Render.obj
 0001:0000c1c0       ?AddFilterLight@pipeline_mgr@@QAEXAATdesc@ps@@@Z 0040c900 f   Render:Render.obj
 0001:0000c250       ?RenderToZBuffer@pipeline_mgr@@QAEXAAUrender_instance@@@Z 0040c990 f   Render:Render.obj
 0001:0000c420       ?RenderToLightMap@pipeline_mgr@@QAEXAAUrender_instance@@@Z 0040cb60 f   Render:Render.obj
 0001:0000ca00       ?BeginPass@pipeline_mgr@@QAE_NAAUrender_instance@@@Z 0040d140 f   Render:Render.obj
 0001:0000cea0       ?SetProjectiveTexture@pipeline_mgr@@QAEXABU?$rhandle@Vtexture@@@@@Z 0040d5e0 f   Render:Render.obj
 0001:0000cf00       ?BeginDistortion@pipeline_mgr@@QAEXXZ 0040d640 f   Render:Render.obj
 0001:0000d2e0       ?SetProjShadowStage@pipeline_mgr@@QAEXHH@Z 0040da20 f   Render:Render.obj
 0001:0000d360       ?SetProjShadowConsts@pipeline_mgr@@QAEXHH@Z 0040daa0 f   Render:Render.obj
 0001:0000d3d0       ?ApplyProjectedShadows@pipeline_mgr@@QAEXXZ 0040db10 f   Render:Render.obj
 0001:0000d790       ?SetupL2W@pipeline_mgr@@QAEXAAUrender_instance@@AATdesc@vs@@AAT3ps@@@Z 0040ded0 f   Render:Render.obj
 0001:0000d870       ?RenderToPrimary@pipeline_mgr@@QAEXAAUrender_instance@@@Z 0040dfb0 f   Render:Render.obj
 0001:0000d990       ?CreateAliasedTarget@pipeline_mgr@@QAEXHHHH@Z 0040e0d0 f   Render:Render.obj
 0001:0000dac0       ?ClearShadowBuffers@pipeline_mgr@@QAEXI@Z 0040e200 f   Render:Render.obj
 0001:0000dbb0       ?AddDirShadowProjector@pipeline_mgr@@QAEXABTmatrix4@@MMMM@Z 0040e2f0 f   Render:Render.obj
 0001:0000dd30       ?SetZPrime@pipeline_mgr@@QAEXH@Z 0040e470 f   Render:Render.obj
 0001:0000de30       ?BlendEffects@pipeline_mgr@@QAEXW4shader_style@@@Z 0040e570 f   Render:Render.obj
 0001:0000e520       ?CopyFrameTo@pipeline_mgr@@QAEXXZ 0040ec60 f   Render:Render.obj
 0001:0000ea00       ??0zone@zone_mgr@@QAE@XZ   0040f140 f i Gamelib:ZoneMgr.obj
 0001:0000ea00       ??0plane@@QAE@XZ           0040f140 f i Gamelib:ZoneMgr.obj
 0001:0000ea00       ??0decal_vert@decal_mgr@@QAE@XZ 0040f140 f i Gamelib:DecalMgr.obj
 0001:0000ea00       ??0alpha_pal@@QAE@XZ       0040f140 f i x_files:x_bitmap_quant.obj
 0001:0000ea00       ??0vector3@@QAE@XZ         0040f140 f i Render:Render.obj
 0001:0000ea00       ??0matrix4@@QAE@XZ         0040f140 f i Render:Render.obj
 0001:0000ea00       ??0vector2@@QAE@XZ         0040f140 f i Render:Render.obj
 0001:0000ea00       ??0sphere@collision_shape@@QAE@XZ 0040f140 f i Gamelib:PhysicsMgr.obj
 0001:0000ea00       ??0distortion_info@@QAE@XZ 0040f140 f i Render:Render.obj
 0001:0000ea00       ??0cliprecord@ui_manager@@QAE@XZ 0040f140 f i UserInterface:ui_manager.obj
 0001:0000ea00       ??0anim_key@@QAE@XZ        0040f140 f i Gamelib:Corpse.obj
 0001:0000ea00       ?AsNetObj@netobj@@UAEPAV1@XZ 0040f140 f i Gamelib:PlayerObject.obj
 0001:0000ea00       ??0keyframe@animation_obj@@QAE@XZ 0040f140 f i Gamelib:Animation_obj.obj
 0001:0000ea00       ??0irect@@QAE@XZ           0040f140 f i Render:Render.obj
 0001:0000ea00       ??0collision@physics_mgr@@QAE@XZ 0040f140 f i Gamelib:PhysicsMgr.obj
 0001:0000ea00       ??0xcolor@@QAE@XZ          0040f140 f i Render:Render.obj
 0001:0000ea00       ??0xhandle@@QAE@XZ         0040f140 f i Render:Render.obj
 0001:0000ea00       ??0connection_lookup_box@nav_map@@QAE@XZ 0040f140 f i Gamelib:nav_map.obj
 0001:0000ea00       ??0vertex_xbox@rigid_geom@@QAE@XZ 0040f140 f i Render:Render.obj
 0001:0000ea10       ?SetupDepthOfField@pipeline_mgr@@QAEXXZ 0040f150 f   Render:Render.obj
 0001:0000f5e0       ?SetupDownSampling@pipeline_mgr@@QAEXXZ 0040fd20 f   Render:Render.obj
 0001:0000f6e0       ?BloomFilter@pipeline_mgr@@QAEXHMM@Z 0040fe20 f   Render:Render.obj
 0001:0000f900       ?ApplyGlow@pipeline_mgr@@QAEXXZ 00410040 f   Render:Render.obj
 0001:0000fcd0       ?JitterGlows@pipeline_mgr@@QAEXXZ 00410410 f   Render:Render.obj
 0001:00010fb0       ?xbox_ApplyScopeBlur@@YAXAAVxbitmap@@AAU_D3DVIEWPORT8@@1@Z 004116f0 f   Render:Render.obj
 0001:00011170       ?ApplyFog@pipeline_mgr@@QAEXXZ 004118b0 f   Render:Render.obj
 0001:000113e0       ?PostEffect@pipeline_mgr@@QAEXXZ 00411b20 f   Render:Render.obj
 0001:000116d0       ?xbox_InitShaders@@YAXXZ   00411e10 f   Render:Render.obj
 0001:00013c80       ?xbox_WriteVert@@YAXABTvector4@@MMUxcolor@@@Z 004143c0 f   Render:Render.obj
 0001:000159a0       ?Init@render@@YAXXZ        004160e0 f   Render:Render.obj
 0001:00015bc0       ?UnregisterRigidInstance@render@@YAXUxhandle@@@Z 00416300 f   Render:Render.obj
 0001:00015bc0       ?UnregisterSkinInstance@render@@YAXUxhandle@@@Z 00416300 f   Render:Render.obj
 0001:00015c20       ?SetTextureProjection@render@@YAXABTmatrix4@@MMABU?$rhandle@Vtexture@@@@@Z 00416360 f   Render:Render.obj
 0001:00015d30       ?SetShadowProjection@render@@YAXABTmatrix4@@MMABU?$rhandle@Vtexture@@@@@Z 00416470 f   Render:Render.obj
 0001:00015df0       ?BeginNormalRender@render@@YAXXZ 00416530 f   Render:Render.obj
 0001:00015e60       ?ZPrimeRenderTarget@render@@YAXXZ 004165a0 f   Render:Render.obj
 0001:000160f0       ?RenderLightMap@render@@YAXXZ 00416830 f   Render:Render.obj
 0001:000162f0       ?EndNormalRender@render@@YAXXZ 00416a30 f   Render:Render.obj
 0001:00016580       ?EndCustomRender@render@@YAXXZ 00416cc0 f   Render:Render.obj
 0001:00016940       ?AddRigidInstanceSimple@render@@YAXUxhandle@@PBXPBTmatrix4@@ABUbbox@@I@Z 00417080 f   Render:Render.obj
 0001:00016b50       ?AddRigidInstance@render@@YAXUxhandle@@PBXPBTmatrix4@@_KIH@Z 00417290 f   Render:Render.obj
 0001:00016f10       ?AddRigidInstance@render@@YAXUxhandle@@PBXPBTmatrix4@@_KIIH@Z 00417650 f   Render:Render.obj
 0001:000172e0       ?AddSkinInstance@render@@YAXUxhandle@@PBTmatrix4@@_KIIABUxcolor@@@Z 00417a20 f   Render:Render.obj
 0001:00017690       ?AddSkinInstanceDistorted@render@@YAXUxhandle@@PBTmatrix4@@_KIABUradian3@@Uxcolor@@@Z 00417dd0 f   Render:Render.obj
 0001:000178b0       ?GetVTexture@render@@YAPAVtexture@@PBUgeom@@HH@Z 00417ff0 f   Render:Render.obj
 0001:000179b0       ?EndShadowCreation@render@@YAXXZ 004180f0 f   Render:Render.obj
 0001:00017e40       ?AddSkinCaster@render@@YAXUxhandle@@PBTmatrix4@@_K2@Z 00418580 f   Render:Render.obj
 0001:00017fc0       ?AddRigidReceiverSimple@render@@YAXUxhandle@@PBTmatrix4@@I_K@Z 00418700 f   Render:Render.obj
 0001:000180c0       ?calc@?$meta_identity@Tmatrix4@@$03$02$00$0N@@@SAXAATmatrix4@@@Z 00418800 f i Render:Render.obj
 0001:000180e0       ?calc@?$meta_identity@Tmatrix4@@$03$02$01$0O@@@SAXAATmatrix4@@@Z 00418820 f i Render:Render.obj
 0001:00018100       ?calc@?$meta_identity@Tmatrix4@@$03$02$02$0P@@@SAXAATmatrix4@@@Z 00418840 f i Render:Render.obj
 0001:00018110       ?GetPointer@?$rhandle@Vxbitmap@@@@QBEPAVxbitmap@@XZ 00418850 f i Gamelib:HudObject.obj
 0001:00018110       ?GetPointer@rhandle_base@@QBEPAXXZ 00418850 f i Render:Render.obj
 0001:00018110       ?GetPointer@?$rhandle@Vdecal_package@@@@QBEPAVdecal_package@@XZ 00418850 f i Gamelib:PlayerObject.obj
 0001:00018110       ?GetPointer@?$rhandle@D@@QBEPADXZ 00418850 f i Gamelib:SimpleUtils.obj
 0001:00018110       ?GetPointer@?$rhandle@Vanim_group@@@@QBEPAVanim_group@@XZ 00418850 f i Gamelib:PlayerObject.obj
 0001:00018110       ?GetPointer@?$rhandle@Vtexture@@@@QBEPAVtexture@@XZ 00418850 f i Render:Render.obj
 0001:00018150       ?SetCapacity@?$xarray@Usort_struct@@@@QAEXH@Z 00418890 f i Render:Render.obj
 0001:000181a0       ?GrowListBy@?$xharray@Uprivate_geom@@@@QAEXH@Z 004188e0 f i Render:Render.obj
 0001:00018310       ?GrowListBy@?$xharray@Uprivate_instance@@@@QAEXH@Z 00418a50 f i Render:Render.obj
 0001:00018460       ?SetCapacity@?$xarray@Urender_instance@@@@QAEXH@Z 00418ba0 f i Render:Render.obj
 0001:000184d0       ?Delete@?$xarray@Udistortion_info@@@@QAEXHH@Z 00418c10 f i Render:Render.obj
 0001:00018600       ?Append@?$xarray@Udistortion_info@@@@QAEAAUdistortion_info@@XZ 00418d40 f i Render:Render.obj
 0001:000186b0       ?SetCapacity@?$xarray@Udistortion_info@@@@QAEXH@Z 00418df0 f i Render:Render.obj
 0001:00018750       ??$search@Tdesc@ps@@Udetail@2@@@YAHAATdesc@ps@@PAUdetail@1@H@Z 00418e90 f i Render:Render.obj
 0001:000187d0       ??$search@Tdesc@vs@@Udetail@2@@@YAHAATdesc@vs@@PAUdetail@1@H@Z 00418f10 f i Render:Render.obj
 0001:00018820       ??$x_max@M@@YAMMM@Z        00418f60 f i Render:Render.obj
 0001:00018830       ??$x_min@M@@YAMMM@Z        00418f70 f i Render:Render.obj
 0001:00018840       ?SafeNormalize@vector3@@QAEHXZ 00418f80 f i Render:LightMgr.obj
 0001:000188d0       ?Intersect@bbox@@QBEHABTvector3@@M@Z 00419010 f i Render:LightMgr.obj
 0001:00018990       ??_Elight_mgr@@UAEPAXI@Z   004190d0 f i Render:LightMgr.obj
 0001:00018990       ??_Glight_mgr@@UAEPAXI@Z   004190d0 f i Render:LightMgr.obj
 0001:000189b0       ?AddFadingLight@light_mgr@@QAEXABTvector3@@ABUxcolor@@MMM@Z 004190f0 f   Render:LightMgr.obj
 0001:00018a40       ?AddDynamicLight@light_mgr@@QAEXABTvector3@@ABUxcolor@@MMH@Z 00419180 f   Render:LightMgr.obj
 0001:00018b80       ?OnUpdate@light_mgr@@QAEXM@Z 004192c0 f   Render:LightMgr.obj
 0001:00018c60       ?AddLight@light_mgr@@IAEHXZ 004193a0 f   Render:LightMgr.obj
 0001:00018e20       ?SpadLightSortFn@@YAHPBX0@Z 00419560 f   Render:LightMgr.obj
 0001:00018e60       ?BeginLightCollection@light_mgr@@QAEXXZ 004195a0 f   Render:LightMgr.obj
 0001:000191e0       ?CollectLights@light_mgr@@QAEHABUbbox@@H@Z 00419920 f   Render:LightMgr.obj
 0001:00019300       ?GetCollectedLight@light_mgr@@QAEXHAATvector3@@AAMAAUxcolor@@@Z 00419a40 f   Render:LightMgr.obj
 0001:00019410       ?CalcDirLight@light_mgr@@IAEHPAUdir_light@1@ABTmatrix4@@ABUbbox@@ABTvector3@@MMAAUxcolor@@@Z 00419b50 f   Render:LightMgr.obj
 0001:000197c0       ?CollectCharLights@light_mgr@@QAEHABTmatrix4@@ABUbbox@@H@Z 00419f00 f   Render:LightMgr.obj
 0001:000199b0       ?GetLight@light_mgr@@QBEXHAATvector3@@AAMAAUxcolor@@@Z 0041a0f0 f   Render:LightMgr.obj
 0001:00019b50       ?compile@path@vs@@QAEXPBDAAUshader@@@Z 0041a290 f   Render:Material.obj
 0001:00019be0       ?compile@path@ps@@QAEXPBDAAUshader@@@Z 0041a320 f   Render:Material.obj
 0001:00019c60       ?AddSample@least_squares@@QAEXMM@Z 0041a3a0 f   Render:LeastSquares.obj
 0001:00019d20       ?Solve@least_squares@@QAEHXZ 0041a460 f   Render:LeastSquares.obj
 0001:00019f60       ??1material_array@@QAE@XZ  0041a6a0 f   Render:MaterialArray.obj
 0001:00019fa0       ?NodeCompareFn@@YAHPBX0@Z  0041a6e0 f   Render:MaterialArray.obj
 0001:0001a080       ?Sort@material_array@@QAEXXZ 0041a7c0 f   Render:MaterialArray.obj
 0001:0001a0d0       ?GrowListBy@material_array@@QAEXH@Z 0041a810 f   Render:MaterialArray.obj
 0001:0001a170       ?Add@material_array@@QAEAAVmaterial@@AAUxhandle@@@Z 0041a8b0 f   Render:MaterialArray.obj
 0001:0001a210       ?DeleteByHandle@material_array@@QAEXUxhandle@@@Z 0041a950 f   Render:MaterialArray.obj
 0001:0001a280       ?Update@material_array@@QAEXM@Z 0041a9c0 f   Render:MaterialArray.obj
 0001:0001a390       ?ForceLink@@YAXXZ          0041aad0 f   Gamelib:Link.obj
 0001:0001b310       ??0shad_receiver@obj_mgr@@QAE@XZ 0041ba50 f i Gamelib:Obj_Mgr.obj
 0001:0001b310       ??0guid@@QAE@XZ            0041ba50 f i Gamelib:TriggerEx_Manager.obj
 0001:0001b320       ?GetTriggerPtr@trigger_ex_mngr@@IAEPAVtrigger_ex_object@@Uguid@@@Z 0041ba60 f   Gamelib:TriggerEx_Manager.obj
 0001:0001b370       ?OnUpdate@trigger_ex_mngr@@QAEXM@Z 0041bab0 f   Gamelib:TriggerEx_Manager.obj
 0001:0001b4b0       ?TriggerSleep@trigger_ex_mngr@@QAEXAAVtrigger_ex_object@@@Z 0041bbf0 f   Gamelib:TriggerEx_Manager.obj
 0001:0001b4d0       ?TriggerAwake@trigger_ex_mngr@@QAEXAAVtrigger_ex_object@@@Z 0041bc10 f   Gamelib:TriggerEx_Manager.obj
 0001:0001b4f0       ?RegisterTrigger@trigger_ex_mngr@@QAEXAAVtrigger_ex_object@@@Z 0041bc30 f   Gamelib:TriggerEx_Manager.obj
 0001:0001b610       ?UnregisterTrigger@trigger_ex_mngr@@QAEXAAVtrigger_ex_object@@@Z 0041bd50 f   Gamelib:TriggerEx_Manager.obj
 0001:0001b700       ?DumpData@trigger_ex_mngr@@QAEXPBD@Z 0041be40 f   Gamelib:TriggerEx_Manager.obj
 0001:0001b930       ?Init@MemCardMgr@@QAEXXZ   0041c070 f   Gamelib:MemCardMgr.obj
 0001:0001ba00       ??0MemCardMgr@@QAE@XZ      0041c140 f   Gamelib:MemCardMgr.obj
 0001:0001bcd0       ??0profile_info@@QAE@XZ    0041c410 f i Gamelib:MemCardMgr.obj
 0001:0001bd10       ??1profile_info@@QAE@XZ    0041c450 f i Gamelib:MemCardMgr.obj
 0001:0001bd50       ??1MemCardMgr@@QAE@XZ      0041c490 f   Gamelib:MemCardMgr.obj
 0001:0001be40       ?MC_STATE_FINISH@MemCardMgr@@QAEXXZ 0041c580 f   Gamelib:MemCardMgr.obj
 0001:0001be90       ?MC_STATE_IDLE@MemCardMgr@@QAEXXZ 0041c5d0 f   Gamelib:MemCardMgr.obj
 0001:0001bec0       ?ResetAction@MemCardMgr@@AAEHXZ 0041c600 f   Gamelib:MemCardMgr.obj
 0001:0001bf10       ?GetProfileNames@MemCardMgr@@QAEXAAV?$xarray@PAUprofile_info@@@@@Z 0041c650 f   Gamelib:MemCardMgr.obj
 0001:0001bf80       ?Update@MemCardMgr@@QAEHM@Z 0041c6c0 f   Gamelib:MemCardMgr.obj
 0001:0001c040       ?InitAction@MemCardMgr@@AAEXW4memcard_mode@@@Z 0041c780 f   Gamelib:MemCardMgr.obj
 0001:0001c0a0       ?ActionComplete@MemCardMgr@@QAEXXZ 0041c7e0 f   Gamelib:MemCardMgr.obj
 0001:0001c160       ?GetMcResult@MemCardMgr@@QAE?AW4op_code@1@XZ 0041c8a0 f   Gamelib:MemCardMgr.obj
 0001:0001c310       ?Clear@MemCardMgr@@QAEXXZ  0041ca50 f   Gamelib:MemCardMgr.obj
 0001:0001c710       ?AllocBuffer@MemCardMgr@@AAEHH@Z 0041ce50 f   Gamelib:MemCardMgr.obj
 0001:0001c750       ?FreeBuffer@MemCardMgr@@QAEXXZ 0041ce90 f   Gamelib:MemCardMgr.obj
 0001:0001c770       ?PopState@?$queue_machine@$07@@QAEXXZ 0041ceb0 f i Gamelib:MemCardMgr.obj
 0001:0001c7f0       ?ChangeState@?$queue_machine@$0EA@@@QAEXP8MemCardMgr@@AEXXZ@Z 0041cf30 f i Gamelib:MemCardMgr.obj
 0001:0001c830       ?PopState@?$queue_machine@$0EA@@@QAEXXZ 0041cf70 f i Gamelib:MemCardMgr.obj
 0001:0001c8b0       ?run@CbMethod@?$queue_machine@$0EA@@@QAEXXZ 0041cff0 f i Gamelib:MemCardMgr.obj
 0001:0001c8b0       ?run@CbMethod@?$queue_machine@$07@@QAEXXZ 0041cff0 f i Gamelib:MemCardMgr.obj
 0001:0001c8c0       ?SetCapacity@?$xarray@Uprofile_info@@@@QAEXH@Z 0041d000 f i Gamelib:MemCardMgr.obj
 0001:0001c9d0       ?Clear@?$xarray@Uprofile_info@@@@QAEXXZ 0041d110 f i Gamelib:MemCardMgr.obj
 0001:0001ca20       ??4profile_info@@QAEAAU0@ABU0@@Z 0041d160 f i Gamelib:MemCardMgr.obj
 0001:0001cb00       ?Init@music_state_mgr@@QAEXXZ 0041d240 f   Gamelib:MusicStateMgr.obj
 0001:0001cba0       ?SetAwarenessLevel@music_state_mgr@@QAEXHM@Z 0041d2e0 f   Gamelib:MusicStateMgr.obj
 0001:0001cc40       ?SetMusicEntry@music_state_mgr@@QAEXHPADHMMM@Z 0041d380 f   Gamelib:MusicStateMgr.obj
 0001:0001ccc0       ?Update@music_state_mgr@@QAEXXZ 0041d400 f   Gamelib:MusicStateMgr.obj
 0001:0001cd30       ??0state_mgr@@QAE@XZ       0041d470 f   Gamelib:StateMgr.obj
 0001:0001cde0       ?Init@state_mgr@@QAEXXZ    0041d520 f   Gamelib:StateMgr.obj
 0001:0001d8a0       ?SetState@state_mgr@@QAEXW4sm_states@@H@Z 0041dfe0 f   Gamelib:StateMgr.obj
 0001:0001d920       ?SystemError@state_mgr@@QAEXW4sm_system_error@@PAX@Z 0041e060 f   Gamelib:StateMgr.obj
 0001:0001de20       ?CheckControllers@state_mgr@@QAEXXZ 0041e560 f   Gamelib:StateMgr.obj
 0001:0001df30       ?Update@state_mgr@@QAEXM@Z 0041e670 f   Gamelib:StateMgr.obj
 0001:0001e1c0       ?Render@state_mgr@@QAEXXZ  0041e900 f   Gamelib:StateMgr.obj
 0001:0001e270       ?DummyScreen@state_mgr@@QAEXPBDHH@Z 0041e9b0 f   Gamelib:StateMgr.obj
 0001:0001e410       ?EnterState@state_mgr@@AAEXW4sm_states@@@Z 0041eb50 f   Gamelib:StateMgr.obj
 0001:0001eb80       ?ExitState@state_mgr@@AAEXW4sm_states@@@Z 0041f2c0 f   Gamelib:StateMgr.obj
 0001:0001ecb0       ?UpdateState@state_mgr@@AAEXW4sm_states@@M@Z 0041f3f0 f   Gamelib:StateMgr.obj
 0001:0001f480       ?SetPaused@state_mgr@@QAEXHH@Z 0041fbc0 f   Gamelib:StateMgr.obj
 0001:0001f680       ?ResetProfile@state_mgr@@QAEXH@Z 0041fdc0 f   Gamelib:StateMgr.obj
 0001:0001f6f0       ?InitPendingProfile@state_mgr@@QAEXH@Z 0041fe30 f   Gamelib:StateMgr.obj
 0001:0001f740       ?ActivatePendingProfile@state_mgr@@QAEXH@Z 0041fe80 f   Gamelib:StateMgr.obj
 0001:0001f830       ?SetupProfileListIndex@state_mgr@@QAEXXZ 0041ff70 f   Gamelib:StateMgr.obj
 0001:0001f900       ?OnGameExitSaveProfileCB@state_mgr@@QAEXXZ 00420040 f   Gamelib:StateMgr.obj
 0001:0001f9b0       ?OnGameExitSaveSettingsCB@state_mgr@@QAEXXZ 004200f0 f   Gamelib:StateMgr.obj
 0001:0001fa30       ?SetLoreAcquired@state_mgr@@QAEHHH@Z 00420170 f   Gamelib:StateMgr.obj
 0001:0001fa90       ?GetLevelLoreAcquired@state_mgr@@QAEIH@Z 004201d0 f   Gamelib:StateMgr.obj
 0001:0001fb10       ?EnterESRBNotice@state_mgr@@AAEXXZ 00420250 f   Gamelib:StateMgr.obj
 0001:0001fb80       ?UpdateESRBNotice@state_mgr@@AAEXXZ 004202c0 f   Gamelib:StateMgr.obj
 0001:0001fbd0       ?SelectBestClip@@YA?AVxstring@@PBD@Z 00420310 f   Gamelib:StateMgr.obj
 0001:0001fc70       ?UpdateInevitableIntro@state_mgr@@AAEXXZ 004203b0 f   Gamelib:StateMgr.obj
 0001:0001fce0       ?EnterMemcardBootCheck@state_mgr@@AAEXXZ 00420420 f   Gamelib:StateMgr.obj
 0001:0001fd10       ?UpdateMemcardBootCheck@state_mgr@@AAEXXZ 00420450 f   Gamelib:StateMgr.obj
 0001:0001fd30       ?EnterPressStart@state_mgr@@AAEXXZ 00420470 f   Gamelib:StateMgr.obj
 0001:0001fdb0       ?UpdatePressStart@state_mgr@@AAEXXZ 004204f0 f   Gamelib:StateMgr.obj
 0001:0001fed0       ?ExitPressStart@state_mgr@@AAEXXZ 00420610 f   Gamelib:StateMgr.obj
 0001:0001fef0       ?EnterMainMenu@state_mgr@@AAEXXZ 00420630 f   Gamelib:StateMgr.obj
 0001:000200a0       ?UpdateMainMenu@state_mgr@@AAEXXZ 004207e0 f   Gamelib:StateMgr.obj
 0001:000202b0       ?EnterSettingsMenu@state_mgr@@AAEXXZ 004209f0 f   Gamelib:StateMgr.obj
 0001:00020310       ?UpdateSettingsMenu@state_mgr@@AAEXXZ 00420a50 f   Gamelib:StateMgr.obj
 0001:00020360       ?EnterSettingsHeadset@state_mgr@@AAEXXZ 00420aa0 f   Gamelib:StateMgr.obj
 0001:000203c0       ?UpdateSettingsHeadset@state_mgr@@AAEXXZ 00420b00 f   Gamelib:StateMgr.obj
 0001:000203f0       ?UpdateSettingsMemcardSelect@state_mgr@@AAEXXZ 00420b30 f   Gamelib:StateMgr.obj
 0001:00020420       ?EnterManageProfiles@state_mgr@@AAEXXZ 00420b60 f   Gamelib:StateMgr.obj
 0001:00020490       ?UpdateManageProfiles@state_mgr@@AAEXXZ 00420bd0 f   Gamelib:StateMgr.obj
 0001:00020530       ?UpdateManageProfileOptions@state_mgr@@AAEXXZ 00420c70 f   Gamelib:StateMgr.obj
 0001:000205e0       ?UpdateManageProfileControls@state_mgr@@AAEXXZ 00420d20 f   Gamelib:StateMgr.obj
 0001:00020610       ?UpdateManageProfileAvatar@state_mgr@@AAEXXZ 00420d50 f   Gamelib:StateMgr.obj
 0001:00020640       ?UpdateManageProfileSaveSelect@state_mgr@@AAEXXZ 00420d80 f   Gamelib:StateMgr.obj
 0001:00020690       ?EnterGameExitMemcardReselect@state_mgr@@AAEXXZ 00420dd0 f   Gamelib:StateMgr.obj
 0001:00020690       ?EnterPauseOnlineSaveSettings@state_mgr@@AAEXXZ 00420dd0 f   Gamelib:StateMgr.obj
 0001:00020690       ?EnterPauseMemcardReselect@state_mgr@@AAEXXZ 00420dd0 f   Gamelib:StateMgr.obj
 0001:00020690       ?EnterCampaignMemcardReselect@state_mgr@@AAEXXZ 00420dd0 f   Gamelib:StateMgr.obj
 0001:00020690       ?EnterOnlineJoinSaveSettings@state_mgr@@AAEXXZ 00420dd0 f   Gamelib:StateMgr.obj
 0001:00020690       ?EnterPauseMPMemcardReselect@state_mgr@@AAEXXZ 00420dd0 f   Gamelib:StateMgr.obj
 0001:00020690       ?EnterManageMemcardReselect@state_mgr@@AAEXXZ 00420dd0 f   Gamelib:StateMgr.obj
 0001:00020690       ?EnterOnlineMemcardReselect@state_mgr@@AAEXXZ 00420dd0 f   Gamelib:StateMgr.obj
 0001:00020690       ?EnterGameExitSettingsSelect@state_mgr@@AAEXXZ 00420dd0 f   Gamelib:StateMgr.obj
 0001:00020690       ?EnterPauseMPSettingsSelect@state_mgr@@AAEXXZ 00420dd0 f   Gamelib:StateMgr.obj
 0001:00020690       ?EnterMemcardReselectMP@state_mgr@@AAEXXZ 00420dd0 f   Gamelib:StateMgr.obj
 0001:00020690       ?EnterPauseOnlineMemcardReselect@state_mgr@@AAEXXZ 00420dd0 f   Gamelib:StateMgr.obj
 0001:00020690       ?EnterHostSaveSettings@state_mgr@@AAEXXZ 00420dd0 f   Gamelib:StateMgr.obj
 0001:00020690       ?EnterSettingsMemcardSelect@state_mgr@@AAEXXZ 00420dd0 f   Gamelib:StateMgr.obj
 0001:00020690       ?EnterPauseSettingsSelect@state_mgr@@AAEXXZ 00420dd0 f   Gamelib:StateMgr.obj
 0001:00020690       ?EnterMPSaveSettings@state_mgr@@AAEXXZ 00420dd0 f   Gamelib:StateMgr.obj
 0001:000206f0       ?UpdateManageMemcardReselect@state_mgr@@AAEXXZ 00420e30 f   Gamelib:StateMgr.obj
 0001:00020730       ?EnterCampaignMenu@state_mgr@@AAEXXZ 00420e70 f   Gamelib:StateMgr.obj
 0001:000207b0       ?UpdateCampaignMenu@state_mgr@@AAEXXZ 00420ef0 f   Gamelib:StateMgr.obj
 0001:00020930       ?EnterLoadCampaign@state_mgr@@AAEXXZ 00421070 f   Gamelib:StateMgr.obj
 0001:00020990       ?UpdateLoadCampaign@state_mgr@@AAEXXZ 004210d0 f   Gamelib:StateMgr.obj
 0001:000209f0       ?EnterSaveCampaign@state_mgr@@AAEXXZ 00421130 f   Gamelib:StateMgr.obj
 0001:00020ac0       ?UpdateSaveCampaign@state_mgr@@AAEXXZ 00421200 f   Gamelib:StateMgr.obj
 0001:00020af0       ?ExitSaveCampaign@state_mgr@@AAEXXZ 00421230 f   Gamelib:StateMgr.obj
 0001:00020b10       ?EnterResumeCampaign@state_mgr@@AAEXXZ 00421250 f   Gamelib:StateMgr.obj
 0001:00020b70       ?UpdateResumeCampaign@state_mgr@@AAEXXZ 004212b0 f   Gamelib:StateMgr.obj
 0001:00020bd0       ?EnterLoreMainMenu@state_mgr@@AAEXXZ 00421310 f   Gamelib:StateMgr.obj
 0001:00020c30       ?UpdateExtrasMenu@state_mgr@@AAEXXZ 00421370 f   Gamelib:StateMgr.obj
 0001:00020c30       ?UpdateSecretsMenu@state_mgr@@AAEXXZ 00421370 f   Gamelib:StateMgr.obj
 0001:00020c30       ?UpdateLoreMainMenu@state_mgr@@AAEXXZ 00421370 f   Gamelib:StateMgr.obj
 0001:00020c60       ?EnterSecretsMenu@state_mgr@@AAEXXZ 004213a0 f   Gamelib:StateMgr.obj
 0001:00020cc0       ?EnterExtrasMenu@state_mgr@@AAEXXZ 00421400 f   Gamelib:StateMgr.obj
 0001:00020d20       ?EnterCreditsScreen@state_mgr@@AAEXXZ 00421460 f   Gamelib:StateMgr.obj
 0001:00020da0       ?UpdateCreditsScreen@state_mgr@@AAEXXZ 004214e0 f   Gamelib:StateMgr.obj
 0001:00020dd0       ?EnterCampaignProfileOptions@state_mgr@@AAEXXZ 00421510 f   Gamelib:StateMgr.obj
 0001:00020e30       ?UpdateCampaignProfileOptions@state_mgr@@AAEXXZ 00421570 f   Gamelib:StateMgr.obj
 0001:00020ed0       ?UpdateCampaignProfileAvatar@state_mgr@@AAEXXZ 00421610 f   Gamelib:StateMgr.obj
 0001:00020ed0       ?UpdateCampaignProfileControls@state_mgr@@AAEXXZ 00421610 f   Gamelib:StateMgr.obj
 0001:00020f00       ?EnterProfileAvatar@state_mgr@@AAEXXZ 00421640 f   Gamelib:StateMgr.obj
 0001:00020f00       ?EnterOnlineEditAvatar@state_mgr@@AAEXXZ 00421640 f   Gamelib:StateMgr.obj
 0001:00020f00       ?EnterOnlineProfileAvatar@state_mgr@@AAEXXZ 00421640 f   Gamelib:StateMgr.obj
 0001:00020f00       ?EnterManageProfileAvatar@state_mgr@@AAEXXZ 00421640 f   Gamelib:StateMgr.obj
 0001:00020f00       ?EnterProfileAvatarMP@state_mgr@@AAEXXZ 00421640 f   Gamelib:StateMgr.obj
 0001:00020f00       ?EnterCampaignProfileAvatar@state_mgr@@AAEXXZ 00421640 f   Gamelib:StateMgr.obj
 0001:00020f60       ?EnterProfileSaveSelectMP@state_mgr@@AAEXXZ 004216a0 f   Gamelib:StateMgr.obj
 0001:00020f60       ?EnterManageProfileSaveSelect@state_mgr@@AAEXXZ 004216a0 f   Gamelib:StateMgr.obj
 0001:00020f60       ?EnterOnlineProfileSaveSelect@state_mgr@@AAEXXZ 004216a0 f   Gamelib:StateMgr.obj
 0001:00020f60       ?EnterCampaignProfileSaveSelect@state_mgr@@AAEXXZ 004216a0 f   Gamelib:StateMgr.obj
 0001:00020fd0       ?UpdateCampaignProfileSaveSelect@state_mgr@@AAEXXZ 00421710 f   Gamelib:StateMgr.obj
 0001:00021020       ?UpdateCampaignMemcardReselect@state_mgr@@AAEXXZ 00421760 f   Gamelib:StateMgr.obj
 0001:00021060       ?UpdateProfileSelect@state_mgr@@AAEXXZ 004217a0 f   Gamelib:StateMgr.obj
 0001:000210d0       ?UpdateProfileOptions@state_mgr@@AAEXXZ 00421810 f   Gamelib:StateMgr.obj
 0001:00021170       ?UpdateProfileControls@state_mgr@@AAEXXZ 004218b0 f   Gamelib:StateMgr.obj
 0001:000211a0       ?UpdateProfileAvatar@state_mgr@@AAEXXZ 004218e0 f   Gamelib:StateMgr.obj
 0001:000211d0       ?EnterMultiPlayer@state_mgr@@AAEXXZ 00421910 f   Gamelib:StateMgr.obj
 0001:00021230       ?UpdateMultiPlayer@state_mgr@@AAEXXZ 00421970 f   Gamelib:StateMgr.obj
 0001:00021300       ?EnterMultiPlayerOptions@state_mgr@@AAEXXZ 00421a40 f   Gamelib:StateMgr.obj
 0001:00021360       ?UpdateMultiPlayerOptions@state_mgr@@AAEXXZ 00421aa0 f   Gamelib:StateMgr.obj
 0001:000213a0       ?EnterMultiPlayerEdit@state_mgr@@AAEXXZ 00421ae0 f   Gamelib:StateMgr.obj
 0001:000213a0       ?EnterManageProfileOptions@state_mgr@@AAEXXZ 00421ae0 f   Gamelib:StateMgr.obj
 0001:00021450       ?UpdateMultiPlayerEdit@state_mgr@@AAEXXZ 00421b90 f   Gamelib:StateMgr.obj
 0001:000214f0       ?EnterMPLevelSelect@state_mgr@@AAEXXZ 00421c30 f   Gamelib:StateMgr.obj
 0001:00021560       ?UpdateMPLevelSelect@state_mgr@@AAEXXZ 00421ca0 f   Gamelib:StateMgr.obj
 0001:000215e0       ?UpdateProfileControlsMP@state_mgr@@AAEXXZ 00421d20 f   Gamelib:StateMgr.obj
 0001:00021610       ?UpdateProfileAvatarMP@state_mgr@@AAEXXZ 00421d50 f   Gamelib:StateMgr.obj
 0001:00021640       ?UpdateProfileSaveSelectMP@state_mgr@@AAEXXZ 00421d80 f   Gamelib:StateMgr.obj
 0001:00021690       ?UpdateMemcardReselectMP@state_mgr@@AAEXXZ 00421dd0 f   Gamelib:StateMgr.obj
 0001:000216d0       ?EnterOnlineConnect@state_mgr@@AAEXXZ 00421e10 f   Gamelib:StateMgr.obj
 0001:00021740       ?UpdateOnlineConnect@state_mgr@@AAEXXZ 00421e80 f   Gamelib:StateMgr.obj
 0001:00021800       ?EnterProfileSelect@state_mgr@@AAEXXZ 00421f40 f   Gamelib:StateMgr.obj
 0001:00021800       ?EnterOnlineProfileSelect@state_mgr@@AAEXXZ 00421f40 f   Gamelib:StateMgr.obj
 0001:00021860       ?UpdateOnlineProfileSelect@state_mgr@@AAEXXZ 00421fa0 f   Gamelib:StateMgr.obj
 0001:000218e0       ?EnterOnlineProfileOptions@state_mgr@@AAEXXZ 00422020 f   Gamelib:StateMgr.obj
 0001:000218e0       ?EnterProfileOptions@state_mgr@@AAEXXZ 00422020 f   Gamelib:StateMgr.obj
 0001:00021990       ?UpdateOnlineProfileOptions@state_mgr@@AAEXXZ 004220d0 f   Gamelib:StateMgr.obj
 0001:00021a20       ?EnterProfileControlsMP@state_mgr@@AAEXXZ 00422160 f   Gamelib:StateMgr.obj
 0001:00021a20       ?EnterProfileControls@state_mgr@@AAEXXZ 00422160 f   Gamelib:StateMgr.obj
 0001:00021a20       ?EnterOnlineProfileControls@state_mgr@@AAEXXZ 00422160 f   Gamelib:StateMgr.obj
 0001:00021a20       ?EnterManageProfileControls@state_mgr@@AAEXXZ 00422160 f   Gamelib:StateMgr.obj
 0001:00021a20       ?EnterOnlineEditControls@state_mgr@@AAEXXZ 00422160 f   Gamelib:StateMgr.obj
 0001:00021a20       ?EnterCampaignProfileControls@state_mgr@@AAEXXZ 00422160 f   Gamelib:StateMgr.obj
 0001:00021a80       ?UpdateOnlineProfileControls@state_mgr@@AAEXXZ 004221c0 f   Gamelib:StateMgr.obj
 0001:00021a80       ?UpdateOnlineProfileAvatar@state_mgr@@AAEXXZ 004221c0 f   Gamelib:StateMgr.obj
 0001:00021ab0       ?EnterOnlineAuthenticate@state_mgr@@AAEXXZ 004221f0 f   Gamelib:StateMgr.obj
 0001:00021b20       ?UpdateOnlineProfileSaveSelect@state_mgr@@AAEXXZ 00422260 f   Gamelib:StateMgr.obj
 0001:00021b70       ?UpdateOnlineMemcardReselect@state_mgr@@AAEXXZ 004222b0 f   Gamelib:StateMgr.obj
 0001:00021bb0       ?EnterOnlineMain@state_mgr@@AAEXXZ 004222f0 f   Gamelib:StateMgr.obj
 0001:00021c90       ?UpdateOnlineMain@state_mgr@@AAEXXZ 004223d0 f   Gamelib:StateMgr.obj
 0001:00021e90       ?EnterOnlineHost@state_mgr@@AAEXXZ 004225d0 f   Gamelib:StateMgr.obj
 0001:00021ef0       ?UpdateOnlineHost@state_mgr@@AAEXXZ 00422630 f   Gamelib:StateMgr.obj
 0001:00022140       ?EnterOnlineHostOptions@state_mgr@@AAEXXZ 00422880 f   Gamelib:StateMgr.obj
 0001:000221a0       ?UpdateOnlineHostOptions@state_mgr@@AAEXXZ 004228e0 f   Gamelib:StateMgr.obj
 0001:00022200       ?UpdateHostSaveSettings@state_mgr@@AAEXXZ 00422940 f   Gamelib:StateMgr.obj
 0001:00022200       ?UpdateMPSaveSettings@state_mgr@@AAEXXZ 00422940 f   Gamelib:StateMgr.obj
 0001:00022240       ?EnterOnlineQuickMatch@state_mgr@@AAEXXZ 00422980 f   Gamelib:StateMgr.obj
 0001:000222a0       ?UpdateOnlineQuickMatch@state_mgr@@AAEXXZ 004229e0 f   Gamelib:StateMgr.obj
 0001:00022310       ?EnterOnlineJoinFilter@state_mgr@@AAEXXZ 00422a50 f   Gamelib:StateMgr.obj
 0001:00022370       ?UpdateOnlineJoinFilter@state_mgr@@AAEXXZ 00422ab0 f   Gamelib:StateMgr.obj
 0001:000223d0       ?EnterOnlineJoin@state_mgr@@AAEXXZ 00422b10 f   Gamelib:StateMgr.obj
 0001:00022430       ?UpdateOnlineJoin@state_mgr@@AAEXXZ 00422b70 f   Gamelib:StateMgr.obj
 0001:000224a0       ?UpdateOnlineJoinSaveSettings@state_mgr@@AAEXXZ 00422be0 f   Gamelib:StateMgr.obj
 0001:000224d0       ?EnterServerPlayers@state_mgr@@AAEXXZ 00422c10 f   Gamelib:StateMgr.obj
 0001:00022530       ?UpdateServerPlayers@state_mgr@@AAEXXZ 00422c70 f   Gamelib:StateMgr.obj
 0001:00022580       ?EnterOnlinePlayers@state_mgr@@AAEXXZ 00422cc0 f   Gamelib:StateMgr.obj
 0001:000225f0       ?UpdateOnlinePlayers@state_mgr@@AAEXXZ 00422d30 f   Gamelib:StateMgr.obj
 0001:00022660       ?EnterOnlineFeedback@state_mgr@@AAEXXZ 00422da0 f   Gamelib:StateMgr.obj
 0001:000226c0       ?UpdateOnlineFeedback@state_mgr@@AAEXXZ 00422e00 f   Gamelib:StateMgr.obj
 0001:000226f0       ?EnterOnlineFeedbackFriend@state_mgr@@AAEXXZ 00422e30 f   Gamelib:StateMgr.obj
 0001:000227f0       ?UpdateOnlineFeedbackFriend@state_mgr@@AAEXXZ 00422f30 f   Gamelib:StateMgr.obj
 0001:00022820       ?EnterOnlineFriends@state_mgr@@AAEXXZ 00422f60 f   Gamelib:StateMgr.obj
 0001:00022880       ?UpdateOnlineFriends@state_mgr@@AAEXXZ 00422fc0 f   Gamelib:StateMgr.obj
 0001:00022910       ?EnterOnlineStats@state_mgr@@AAEXXZ 00423050 f   Gamelib:StateMgr.obj
 0001:00022970       ?UpdateOnlineStats@state_mgr@@AAEXXZ 004230b0 f   Gamelib:StateMgr.obj
 0001:000229a0       ?EnterOnlineEditProfile@state_mgr@@AAEXXZ 004230e0 f   Gamelib:StateMgr.obj
 0001:00022a20       ?UpdateOnlineEditProfile@state_mgr@@AAEXXZ 00423160 f   Gamelib:StateMgr.obj
 0001:00022ad0       ?UpdateOnlineEditAvatar@state_mgr@@AAEXXZ 00423210 f   Gamelib:StateMgr.obj
 0001:00022ad0       ?UpdateOnlineEditControls@state_mgr@@AAEXXZ 00423210 f   Gamelib:StateMgr.obj
 0001:00022b00       ?EnterHostLevelSelect@state_mgr@@AAEXXZ 00423240 f   Gamelib:StateMgr.obj
 0001:00022b60       ?UpdateHostLevelSelect@state_mgr@@AAEXXZ 004232a0 f   Gamelib:StateMgr.obj
 0001:00022bd0       ?EnterLevelSelect@state_mgr@@AAEXXZ 00423310 f   Gamelib:StateMgr.obj
 0001:00022c30       ?UpdateLevelSelect@state_mgr@@AAEXXZ 00423370 f   Gamelib:StateMgr.obj
 0001:00022c90       ?EnterStartSaveGame@state_mgr@@AAEXXZ 004233d0 f   Gamelib:StateMgr.obj
 0001:00022d10       ?UpdateStartSaveGame@state_mgr@@AAEXXZ 00423450 f   Gamelib:StateMgr.obj
 0001:00022d40       ?EnterStartGame@state_mgr@@AAEXXZ 00423480 f   Gamelib:StateMgr.obj
 0001:00022e80       ?UpdateStartGame@state_mgr@@AAEXXZ 004235c0 f   Gamelib:StateMgr.obj
 0001:00022ef0       ?EnterSinglePlayerLoadMission@state_mgr@@AAEXXZ 00423630 f   Gamelib:StateMgr.obj
 0001:000231d0       ?UpdateSinglePlayerLoadMission@state_mgr@@AAEXXZ 00423910 f   Gamelib:StateMgr.obj
 0001:00023240       ?EnterPlayingGame@state_mgr@@AAEXXZ 00423980 f   Gamelib:StateMgr.obj
 0001:00023260       ?UpdatePlayingGame@state_mgr@@AAEXXZ 004239a0 f   Gamelib:StateMgr.obj
 0001:00023290       ?UpdateServerSync@state_mgr@@AAEXXZ 004239d0 f   Gamelib:StateMgr.obj
 0001:000232e0       ?UpdateClientSync@state_mgr@@AAEXXZ 00423a20 f   Gamelib:StateMgr.obj
 0001:00023320       ?EnterPauseMain@state_mgr@@AAEXXZ 00423a60 f   Gamelib:StateMgr.obj
 0001:000233b0       ?UpdatePauseMain@state_mgr@@AAEXXZ 00423af0 f   Gamelib:StateMgr.obj
 0001:00023460       ?UpdatePauseOptions@state_mgr@@AAEXXZ 00423ba0 f   Gamelib:StateMgr.obj
 0001:000234f0       ?UpdatePauseControls@state_mgr@@AAEXXZ 00423c30 f   Gamelib:StateMgr.obj
 0001:00023520       ?UpdatePauseSettings@state_mgr@@AAEXXZ 00423c60 f   Gamelib:StateMgr.obj
 0001:00023570       ?EnterPauseHeadset@state_mgr@@AAEXXZ 00423cb0 f   Gamelib:StateMgr.obj
 0001:00023570       ?EnterPauseOnlineHeadset@state_mgr@@AAEXXZ 00423cb0 f   Gamelib:StateMgr.obj
 0001:00023570       ?EnterPauseMPHeadset@state_mgr@@AAEXXZ 00423cb0 f   Gamelib:StateMgr.obj
 0001:000235e0       ?UpdatePauseHeadset@state_mgr@@AAEXXZ 00423d20 f   Gamelib:StateMgr.obj
 0001:00023610       ?UpdatePauseSettingsSelect@state_mgr@@AAEXXZ 00423d50 f   Gamelib:StateMgr.obj
 0001:00023640       ?UpdatePauseFriends@state_mgr@@AAEXXZ 00423d80 f   Gamelib:StateMgr.obj
 0001:00023680       ?UpdatePauseMemcardSaveSelect@state_mgr@@AAEXXZ 00423dc0 f   Gamelib:StateMgr.obj
 0001:000236d0       ?UpdatePauseMemcardReselect@state_mgr@@AAEXXZ 00423e10 f   Gamelib:StateMgr.obj
 0001:00023710       ?EnterPauseMP@state_mgr@@AAEXXZ 00423e50 f   Gamelib:StateMgr.obj
 0001:00023790       ?UpdatePauseMP@state_mgr@@AAEXXZ 00423ed0 f   Gamelib:StateMgr.obj
 0001:00023850       ?UpdatePauseMPSettings@state_mgr@@AAEXXZ 00423f90 f   Gamelib:StateMgr.obj
 0001:000238a0       ?UpdatePauseMPHeadset@state_mgr@@AAEXXZ 00423fe0 f   Gamelib:StateMgr.obj
 0001:000238d0       ?UpdatePauseMPSettingsSelect@state_mgr@@AAEXXZ 00424010 f   Gamelib:StateMgr.obj
 0001:00023900       ?UpdatePauseMPFriends@state_mgr@@AAEXXZ 00424040 f   Gamelib:StateMgr.obj
 0001:00023930       ?EnterPauseOptions@state_mgr@@AAEXXZ 00424070 f   Gamelib:StateMgr.obj
 0001:00023930       ?EnterPauseMPOptions@state_mgr@@AAEXXZ 00424070 f   Gamelib:StateMgr.obj
 0001:00023930       ?EnterPauseOnlineOptions@state_mgr@@AAEXXZ 00424070 f   Gamelib:StateMgr.obj
 0001:000239c0       ?UpdatePauseMPOptions@state_mgr@@AAEXXZ 00424100 f   Gamelib:StateMgr.obj
 0001:00023a50       ?UpdatePauseMPControls@state_mgr@@AAEXXZ 00424190 f   Gamelib:StateMgr.obj
 0001:00023a80       ?UpdatePauseMPMemcardSaveSelect@state_mgr@@AAEXXZ 004241c0 f   Gamelib:StateMgr.obj
 0001:00023ad0       ?UpdatePauseMPMemcardReselect@state_mgr@@AAEXXZ 00424210 f   Gamelib:StateMgr.obj
 0001:00023b10       ?EnterPauseOnline@state_mgr@@AAEXXZ 00424250 f   Gamelib:StateMgr.obj
 0001:00023b90       ?UpdatePauseOnline@state_mgr@@AAEXXZ 004242d0 f   Gamelib:StateMgr.obj
 0001:00023cd0       ?EnterPauseOnlineVoteMap@state_mgr@@AAEXXZ 00424410 f   Gamelib:StateMgr.obj
 0001:00023d30       ?UpdatePauseOnlineVoteMap@state_mgr@@AAEXXZ 00424470 f   Gamelib:StateMgr.obj
 0001:00023d30       ?UpdatePauseOnlineVoteKick@state_mgr@@AAEXXZ 00424470 f   Gamelib:StateMgr.obj
 0001:00023d70       ?EnterPauseOnlineVoteKick@state_mgr@@AAEXXZ 004244b0 f   Gamelib:StateMgr.obj
 0001:00023dd0       ?EnterPauseMPFriends@state_mgr@@AAEXXZ 00424510 f   Gamelib:StateMgr.obj
 0001:00023dd0       ?EnterPauseFriends@state_mgr@@AAEXXZ 00424510 f   Gamelib:StateMgr.obj
 0001:00023dd0       ?EnterPauseOnlineFriends@state_mgr@@AAEXXZ 00424510 f   Gamelib:StateMgr.obj
 0001:00023e40       ?UpdatePauseOnlineFriends@state_mgr@@AAEXXZ 00424580 f   Gamelib:StateMgr.obj
 0001:00023e80       ?EnterPauseOnlinePlayers@state_mgr@@AAEXXZ 004245c0 f   Gamelib:StateMgr.obj
 0001:00023ef0       ?UpdatePauseOnlinePlayers@state_mgr@@AAEXXZ 00424630 f   Gamelib:StateMgr.obj
 0001:00023f30       ?EnterPauseOnlineFeedback@state_mgr@@AAEXXZ 00424670 f   Gamelib:StateMgr.obj
 0001:00023fa0       ?UpdatePauseOnlineFeedback@state_mgr@@AAEXXZ 004246e0 f   Gamelib:StateMgr.obj
 0001:00023fd0       ?EnterPauseOnlineFeedbackFriend@state_mgr@@AAEXXZ 00424710 f   Gamelib:StateMgr.obj
 0001:000240f0       ?UpdatePauseOnlineFeedbackFriend@state_mgr@@AAEXXZ 00424830 f   Gamelib:StateMgr.obj
 0001:00024120       ?UpdatePauseOnlineOptions@state_mgr@@AAEXXZ 00424860 f   Gamelib:StateMgr.obj
 0001:000241c0       ?EnterPauseOnlineControls@state_mgr@@AAEXXZ 00424900 f   Gamelib:StateMgr.obj
 0001:000241c0       ?EnterPauseMPControls@state_mgr@@AAEXXZ 00424900 f   Gamelib:StateMgr.obj
 0001:000241c0       ?EnterPauseControls@state_mgr@@AAEXXZ 00424900 f   Gamelib:StateMgr.obj
 0001:00024230       ?UpdatePauseOnlineControls@state_mgr@@AAEXXZ 00424970 f   Gamelib:StateMgr.obj
 0001:00024260       ?EnterPauseMPSettings@state_mgr@@AAEXXZ 004249a0 f   Gamelib:StateMgr.obj
 0001:00024260       ?EnterPauseSettings@state_mgr@@AAEXXZ 004249a0 f   Gamelib:StateMgr.obj
 0001:00024260       ?EnterPauseOnlineSettings@state_mgr@@AAEXXZ 004249a0 f   Gamelib:StateMgr.obj
 0001:000242d0       ?UpdatePauseOnlineSettings@state_mgr@@AAEXXZ 00424a10 f   Gamelib:StateMgr.obj
 0001:00024310       ?UpdatePauseOnlineHeadset@state_mgr@@AAEXXZ 00424a50 f   Gamelib:StateMgr.obj
 0001:00024340       ?UpdatePauseOnlineSaveSelect@state_mgr@@AAEXXZ 00424a80 f   Gamelib:StateMgr.obj
 0001:00024390       ?UpdatePauseOnlineMemcardReselect@state_mgr@@AAEXXZ 00424ad0 f   Gamelib:StateMgr.obj
 0001:000243d0       ?EnterPauseServerConfig@state_mgr@@AAEXXZ 00424b10 f   Gamelib:StateMgr.obj
 0001:00024450       ?UpdatePauseServerConfig@state_mgr@@AAEXXZ 00424b90 f   Gamelib:StateMgr.obj
 0001:00024530       ?EnterPauseOnlineChangeMap@state_mgr@@AAEXXZ 00424c70 f   Gamelib:StateMgr.obj
 0001:00024590       ?UpdatePauseOnlineKickPlayer@state_mgr@@AAEXXZ 00424cd0 f   Gamelib:StateMgr.obj
 0001:00024590       ?UpdatePauseOnlineChangeMap@state_mgr@@AAEXXZ 00424cd0 f   Gamelib:StateMgr.obj
 0001:000245c0       ?EnterPauseOnlineKickPlayer@state_mgr@@AAEXXZ 00424d00 f   Gamelib:StateMgr.obj
 0001:00024620       ?EnterPauseOnlineTeamChange@state_mgr@@AAEXXZ 00424d60 f   Gamelib:StateMgr.obj
 0001:00024680       ?UpdatePauseOnlineTeamChange@state_mgr@@AAEXXZ 00424dc0 f   Gamelib:StateMgr.obj
 0001:000246b0       ?EnterPauseOnlineReconfigOne@state_mgr@@AAEXXZ 00424df0 f   Gamelib:StateMgr.obj
 0001:00024720       ?UpdatePauseOnlineReconfigOne@state_mgr@@AAEXXZ 00424e60 f   Gamelib:StateMgr.obj
 0001:00024760       ?EnterPauseOnlineReconfigTwo@state_mgr@@AAEXXZ 00424ea0 f   Gamelib:StateMgr.obj
 0001:000247d0       ?UpdatePauseOnlineReconfigTwo@state_mgr@@AAEXXZ 00424f10 f   Gamelib:StateMgr.obj
 0001:00024810       ?EnterPauseOnlineReconfigMap@state_mgr@@AAEXXZ 00424f50 f   Gamelib:StateMgr.obj
 0001:00024880       ?UpdatePauseOnlineReconfigMap@state_mgr@@AAEXXZ 00424fc0 f   Gamelib:StateMgr.obj
 0001:000248f0       ?UpdatePauseOnlineSaveSettings@state_mgr@@AAEXXZ 00425030 f   Gamelib:StateMgr.obj
 0001:00024920       ?EnterPauseMPScore@state_mgr@@AAEXXZ 00425060 f   Gamelib:StateMgr.obj
 0001:00024a30       ?UpdatePauseMPScore@state_mgr@@AAEXXZ 00425170 f   Gamelib:StateMgr.obj
 0001:00024bd0       ?EnterEndPause@state_mgr@@AAEXXZ 00425310 f   Gamelib:StateMgr.obj
 0001:00024c80       ?ExitEndPause@state_mgr@@AAEXXZ 004253c0 f   Gamelib:StateMgr.obj
 0001:00024cc0       ?EnterExitGame@state_mgr@@AAEXXZ 00425400 f   Gamelib:StateMgr.obj
 0001:00024d80       ?UpdateExitGame@state_mgr@@AAEXXZ 004254c0 f   Gamelib:StateMgr.obj
 0001:00024db0       ?ExitExitGame@state_mgr@@AAEXXZ 004254f0 f   Gamelib:StateMgr.obj
 0001:00024e30       ?EnterPostGame@state_mgr@@AAEXXZ 00425570 f   Gamelib:StateMgr.obj
 0001:00024e90       ?UpdatePostGame@state_mgr@@AAEXXZ 004255d0 f   Gamelib:StateMgr.obj
 0001:000250c0       ?EnterAutosaveMenu@state_mgr@@AAEXXZ 00425800 f   Gamelib:StateMgr.obj
 0001:00025270       ?UpdateAutosaveMenu@state_mgr@@AAEXXZ 004259b0 f   Gamelib:StateMgr.obj
 0001:000252d0       ?EnterAutosaveProfileReselect@state_mgr@@AAEXXZ 00425a10 f   Gamelib:StateMgr.obj
 0001:000252d0       ?EnterPauseMemcardSaveSelect@state_mgr@@AAEXXZ 00425a10 f   Gamelib:StateMgr.obj
 0001:000252d0       ?EnterPauseOnlineSaveSelect@state_mgr@@AAEXXZ 00425a10 f   Gamelib:StateMgr.obj
 0001:000252d0       ?EnterPauseMPMemcardSaveSelect@state_mgr@@AAEXXZ 00425a10 f   Gamelib:StateMgr.obj
 0001:00025340       ?UpdateAutosaveProfileReselect@state_mgr@@AAEXXZ 00425a80 f   Gamelib:StateMgr.obj
 0001:00025370       ?EnterEndAutosave@state_mgr@@AAEXXZ 00425ab0 f   Gamelib:StateMgr.obj
 0001:00025430       ?UpdateEndPause@state_mgr@@AAEXXZ 00425b70 f   Gamelib:StateMgr.obj
 0001:00025430       ?UpdateEndAutosave@state_mgr@@AAEXXZ 00425b70 f   Gamelib:StateMgr.obj
 0001:00025460       ?ExitEndAutosave@state_mgr@@AAEXXZ 00425ba0 f   Gamelib:StateMgr.obj
 0001:000254a0       ?EnterFinalScore@state_mgr@@AAEXXZ 00425be0 f   Gamelib:StateMgr.obj
 0001:000255e0       ?UpdateFinalScore@state_mgr@@AAEXXZ 00425d20 f   Gamelib:StateMgr.obj
 0001:00025610       ?UpdateAdvanceLevel@state_mgr@@AAEXXZ 00425d50 f   Gamelib:StateMgr.obj
 0001:00025a60       ?EnterMultiPlayerLoadMission@state_mgr@@AAEXXZ 004261a0 f   Gamelib:StateMgr.obj
 0001:00025d00       ?UpdateMultiPlayerLoadMission@state_mgr@@AAEXXZ 00426440 f   Gamelib:StateMgr.obj
 0001:00025e20       ?ExitMultiPlayerLoadMission@state_mgr@@AAEXXZ 00426560 f   Gamelib:StateMgr.obj
 0001:00025e90       ?EnterServerCooldown@state_mgr@@AAEXXZ 004265d0 f   Gamelib:StateMgr.obj
 0001:00025ed0       ?UpdateServerCooldown@state_mgr@@AAEXXZ 00426610 f   Gamelib:StateMgr.obj
 0001:00025f50       ?EnterClientCooldown@state_mgr@@AAEXXZ 00426690 f   Gamelib:StateMgr.obj
 0001:00025fa0       ?UpdateClientCooldown@state_mgr@@AAEXXZ 004266e0 f   Gamelib:StateMgr.obj
 0001:00026020       ?EnterServerDisconnect@state_mgr@@AAEXXZ 00426760 f   Gamelib:StateMgr.obj
 0001:000260d0       ?UpdateServerDisconnect@state_mgr@@AAEXXZ 00426810 f   Gamelib:StateMgr.obj
 0001:00026110       ?UpdateClientDisconnect@state_mgr@@AAEXXZ 00426850 f   Gamelib:StateMgr.obj
 0001:00026140       ?EnableBackgroundMovie@state_mgr@@QAEXXZ 00426880 f   Gamelib:StateMgr.obj
 0001:000261d0       ?DisableBackgoundMovie@state_mgr@@QAEXXZ 00426910 f   Gamelib:StateMgr.obj
 0001:00026220       ?PlayMovie@state_mgr@@QAEXPBDHH@Z 00426960 f   Gamelib:StateMgr.obj
 0001:000262c0       ?CloseMovie@state_mgr@@QAEXXZ 00426a00 f   Gamelib:StateMgr.obj
 0001:00026340       ?BackupPlayerInventory@state_mgr@@QAEXXZ 00426a80 f   Gamelib:StateMgr.obj
 0001:000264c0       ?RestorePlayerInventory@state_mgr@@QAEXXZ 00426c00 f   Gamelib:StateMgr.obj
 0001:00026650       ?ClearMapCycle@state_mgr@@QAEXXZ 00426d90 f   Gamelib:StateMgr.obj
 0001:00026730       ?IncrementMapCycle@state_mgr@@QAEXXZ 00426e70 f   Gamelib:StateMgr.obj
 0001:00026770       ?InsertMapInCycle@state_mgr@@QAEXH@Z 00426eb0 f   Gamelib:StateMgr.obj
 0001:000267e0       ?DeleteMapFromCycle@state_mgr@@QAEXH@Z 00426f20 f   Gamelib:StateMgr.obj
 0001:00026870       ?EnterReportError@state_mgr@@AAEXXZ 00426fb0 f   Gamelib:StateMgr.obj
 0001:00026990       ?UpdateReportError@state_mgr@@AAEXXZ 004270d0 f   Gamelib:StateMgr.obj
 0001:00026a90       ?EnterGameExitPromptForSave@state_mgr@@AAEXXZ 004271d0 f   Gamelib:StateMgr.obj
 0001:00026c40       ?UpdateGameExitPromptForSave@state_mgr@@AAEXXZ 00427380 f   Gamelib:StateMgr.obj
 0001:00026d20       ?EnterGameExitSaveSelect@state_mgr@@AAEXXZ 00427460 f   Gamelib:StateMgr.obj
 0001:00026fb0       ?UpdateGameExitSaveSelect@state_mgr@@AAEXXZ 004276f0 f   Gamelib:StateMgr.obj
 0001:00027070       ?UpdateGameExitMemcardReselect@state_mgr@@AAEXXZ 004277b0 f   Gamelib:StateMgr.obj
 0001:000270f0       ?EnterGameExitSaveSettings@state_mgr@@AAEXXZ 00427830 f   Gamelib:StateMgr.obj
 0001:00027260       ?UpdateGameExitSaveSettings@state_mgr@@AAEXXZ 004279a0 f   Gamelib:StateMgr.obj
 0001:00027320       ?EnterGameExitSettingsOverwrite@state_mgr@@AAEXXZ 00427a60 f   Gamelib:StateMgr.obj
 0001:00027470       ?UpdateGameExitSettingsOverwrite@state_mgr@@AAEXXZ 00427bb0 f   Gamelib:StateMgr.obj
 0001:00027500       ?UpdateGameExitSettingsSelect@state_mgr@@AAEXXZ 00427c40 f   Gamelib:StateMgr.obj
 0001:00027530       ?UpdateGameExitRedirect@state_mgr@@AAEXXZ 00427c70 f   Gamelib:StateMgr.obj
 0001:000275c0       ?EnterOnlineLogin@state_mgr@@AAEXXZ 00427d00 f   Gamelib:StateMgr.obj
 0001:00027620       ?UpdateOnlineLogin@state_mgr@@AAEXXZ 00427d60 f   Gamelib:StateMgr.obj
 0001:00027700       ?ExitOnlineLogin@state_mgr@@AAEXXZ 00427e40 f   Gamelib:StateMgr.obj
 0001:00027740       ?UpdateGameOver@state_mgr@@AAEXXZ 00427e80 f   Gamelib:StateMgr.obj
 0001:000278c0       ?CheckForDisconnect@state_mgr@@AAEHXZ 00428000 f   Gamelib:StateMgr.obj
 0001:000279f0       ?StartBackgroundRendering@state_mgr@@QAEXXZ 00428130 f   Gamelib:StateMgr.obj
 0001:00027ab0       ?StopBackgroundRendering@state_mgr@@QAEXXZ 004281f0 f   Gamelib:StateMgr.obj
 0001:00027b50       ?SilentSaveProfileReturn@state_mgr@@AAEXXZ 00428290 f   Gamelib:StateMgr.obj
 0001:00027bd0       ?SilentSaveProfile@state_mgr@@QAEXXZ 00428310 f   Gamelib:StateMgr.obj
 0001:00027d50       ?DisconnectFromNetwork@state_mgr@@AAEXXZ 00428490 f   Gamelib:StateMgr.obj
 0001:00027d70       ?Reboot@state_mgr@@QAEXW4reboot_reason@@@Z 004284b0 f   Gamelib:StateMgr.obj
 0001:00027e10       ?SetActiveControllerID@state_mgr@@QAEXH@Z 00428550 f   Gamelib:StateMgr.obj
 0001:00027e30       ?EnterFollowBuddy@state_mgr@@AAEXXZ 00428570 f   Gamelib:StateMgr.obj
 0001:000280e0       ?UpdateFollowBuddy@state_mgr@@AAEXXZ 00428820 f   Gamelib:StateMgr.obj
 0001:00028130       ?SetFeedbackPlayer@state_mgr@@QAEXPBD_K@Z 00428870 f   Gamelib:StateMgr.obj
 0001:00028160       ?KillFrontEndMusic@@YAXXZ  004288a0 f   Gamelib:StateMgr.obj
 0001:000281b0       ?InitFrontEndMusic@@YAXXZ  004288f0 f   Gamelib:StateMgr.obj
 0001:000281d0       ?PushState@?$queue_machine@$07@@QAEXP8MemCardMgr@@AEXXZ@Z 00428910 f i Gamelib:StateMgr.obj
 0001:00028240       ??$CreateSettings@Vdlg_av_settings@@@MemCardMgr@@QAEXPAVdlg_av_settings@@P81@AEXXZ@Z 00428980 f i UserInterface:dlg_AVSettings.obj
 0001:00028240       ??$CreateSettings@Vstate_mgr@@@MemCardMgr@@QAEXPAVstate_mgr@@P81@AEXXZ@Z 00428980 f i Gamelib:StateMgr.obj
 0001:00028240       ??$CreateSettings@Vdlg_online_level_select@@@MemCardMgr@@QAEXPAVdlg_online_level_select@@P81@AEXXZ@Z 00428980 f i UserInterface:dlg_OnlineLevelSelect.obj
 0001:00028240       ??$CreateSettings@Vdlg_join_filter@@@MemCardMgr@@QAEXPAVdlg_join_filter@@P81@AEXXZ@Z 00428980 f i UserInterface:dlg_JoinFilter.obj
 0001:00028280       ??0bin_level@@QAE@XZ       004289c0 f   Gamelib:BinLevel.obj
 0001:000282f0       ?NullData@bin_level@@IAEXH@Z 00428a30 f   Gamelib:BinLevel.obj
 0001:00028340       ?ClearData@bin_level@@QAEXH@Z 00428a80 f   Gamelib:BinLevel.obj
 0001:000283c0       ?LoadLevel@bin_level@@QAEHPBD00@Z 00428b00 f   Gamelib:BinLevel.obj
 0001:000286d0       ?LoadData@bin_level@@QAEHPBD0@Z 00428e10 f   Gamelib:BinLevel.obj
 0001:000288b0       ?AddPropertyToObject@template_mgr@@IAEXAAUprop_entry@1@PAVobject@@@Z 00428ff0 f   Gamelib:TemplateMgr.obj
 0001:000288b0       ?AddPropertyToObject@bin_level@@IAEXAAUprop_entry@1@PAVobject@@@Z 00428ff0 f   Gamelib:BinLevel.obj
 0001:00028d00       ?SaveRuntimeDynamicData@bin_level@@QAEHXZ 00429440 f   Gamelib:BinLevel.obj
 0001:00029200       ?LoadRuntimeDynamicData@bin_level@@QAEHXZ 00429940 f   Gamelib:BinLevel.obj
 0001:00029410       ?SetRigidColor@bin_level@@QAEXPBD@Z 00429b50 f   Gamelib:BinLevel.obj
 0001:00029480       ?AddDataToBitStream@bin_level@@IAEXAAVprop_container@@@Z 00429bc0 f   Gamelib:BinLevel.obj
 0001:000296b0       ?Append@?$xarray@Uguid@@@@QAEXABUguid@@@Z 00429df0 f i Gamelib:BinLevel.obj
 0001:00029740       ?ClosestPointToRectangle@vector3@@QBEMABT1@00AAT1@@Z 00429e80 f i Gamelib:ZoneMgr.obj
 0001:00029970       ?Setup@plane@@QAEXABTvector3@@00@Z 0042a0b0 f i Gamelib:ZoneMgr.obj
 0001:00029a50       ?GetOrthoVectors@plane@@QBEXAATvector3@@0@Z 0042a190 f i Gamelib:ZoneMgr.obj
 0001:00029cc0       ?ClipNGon@plane@@QBEHPATvector3@@AAHPBT2@H@Z 0042a400 f i Gamelib:ZoneMgr.obj
 0001:00029ea0       ?GetBBoxIndices@plane@@QBEXPAH0@Z 0042a5e0 f i Gamelib:ZoneMgr.obj
 0001:00029f50       ?Set@bbox@@QAEXABTvector3@@M@Z 0042a690 f i Gamelib:ZoneMgr.obj
 0001:0002a000       ?Intersect@bbox@@QBEHABU1@@Z 0042a740 f i Gamelib:ZoneMgr.obj
 0001:0002a050       ?SetZone1@object@@QAEXG@Z  0042a790 f i Gamelib:ZoneMgr.obj
 0001:0002a070       ?SetZone2@object@@QAEXG@Z  0042a7b0 f i Gamelib:ZoneMgr.obj
 0001:0002a090       ?Reset@zone_mgr@@QAEXXZ    0042a7d0 f   Gamelib:ZoneMgr.obj
 0001:0002a140       ??1zone_mgr@@QAE@XZ        0042a880 f   Gamelib:ZoneMgr.obj
 0001:0002a1d0       ??0portal@zone_mgr@@QAE@XZ 0042a910 f i Gamelib:ZoneMgr.obj
 0001:0002a1f0       ?ComputeFrustum@zone_mgr@@IBEHABUzone@1@AAUfrustum@1@ABU31@ABTvector3@@ABUportal@1@@Z 0042a930 f   Gamelib:ZoneMgr.obj
 0001:0002a830       ?Search@zone_mgr@@QAEXPAMMHH@Z 0042af70 f   Gamelib:ZoneMgr.obj
 0001:0002a940       ?UpdateEar@zone_mgr@@QAEXH@Z 0042b080 f   Gamelib:ZoneMgr.obj
 0001:0002a9d0       ?PortalWalk@zone_mgr@@IAEXPAUfrustum@1@ABU21@@Z 0042b110 f   Gamelib:ZoneMgr.obj
 0001:0002abb0       ?PortalWalk@zone_mgr@@QAEXABVview@@H@Z 0042b2f0 f   Gamelib:ZoneMgr.obj
 0001:0002ae00       ?RenderMPZoneStates@zone_mgr@@QBEXXZ 0042b540 f   Gamelib:ZoneMgr.obj
 0001:0002b190       ?FindZone@zone_mgr@@QBEEABTvector3@@@Z 0042b8d0 f   Gamelib:ZoneMgr.obj
 0001:0002b200       ?BBoxInView@zone_mgr@@IBEHABUfrustum@1@ABUbbox@@@Z 0042b940 f   Gamelib:ZoneMgr.obj
 0001:0002b2a0       ?IsBBoxVisible@zone_mgr@@QBEHABUbbox@@EE@Z 0042b9e0 f   Gamelib:ZoneMgr.obj
 0001:0002b360       ?LineCrossPortal@zone_mgr@@IBEHABUportal@1@ABTvector3@@1@Z 0042baa0 f   Gamelib:ZoneMgr.obj
 0001:0002b5a0       ?MoveTracker@zone_mgr@@ABEXAAUtracker@1@ABTvector3@@@Z 0042bce0 f   Gamelib:ZoneMgr.obj
 0001:0002baf0       ?InitZoneTracking@zone_mgr@@QBEXAAVobject@@AAUtracker@1@@Z 0042c230 f   Gamelib:ZoneMgr.obj
 0001:0002bb50       ?UpdateZoneTracking@zone_mgr@@QBEXAAVobject@@AAUtracker@1@ABTvector3@@@Z 0042c290 f   Gamelib:ZoneMgr.obj
 0001:0002bbb0       ?Load@zone_mgr@@QAEXPBD@Z  0042c2f0 f   Gamelib:ZoneMgr.obj
 0001:0002be10       ?TurnPortalOff@zone_mgr@@QAEXUguid@@@Z 0042c550 f   Gamelib:ZoneMgr.obj
 0001:0002be60       ?TurnPortalOn@zone_mgr@@QAEXUguid@@@Z 0042c5a0 f   Gamelib:ZoneMgr.obj
 0001:0002beb0       ?SetPortalOcclusion@zone_mgr@@QAEXUguid@@M@Z 0042c5f0 f   Gamelib:ZoneMgr.obj
 0001:0002bf00       ?IsAdjacentZone@zone_mgr@@QAEHHH@Z 0042c640 f   Gamelib:ZoneMgr.obj
 0001:0002bf80       ??0bbox@@QAE@ABTvector3@@0@Z 0042c6c0 f i Gamelib:SpatialDBase.obj
 0001:0002bf80       ?Set@bbox@@QAEXABTvector3@@0@Z 0042c6c0 f i Gamelib:TriggerEx_Object.obj
 0001:0002c060       ?GetCellRegion@spatial_dbase@@QBEXABUbbox@@HAAH11111@Z 0042c7a0 f i Gamelib:SpatialDBase.obj
 0001:0002c130       ?GetCellIndex@spatial_dbase@@QAEGHHHHH@Z 0042c870 f i Gamelib:SpatialDBase.obj
 0001:0002c1e0       ?Clear@spatial_dbase@@QAEXXZ 0042c920 f   Gamelib:SpatialDBase.obj
 0001:0002c240       ?Init@spatial_dbase@@QAEXM@Z 0042c980 f   Gamelib:SpatialDBase.obj
 0001:0002c320       ?AllocCell@spatial_dbase@@IAEGHHHH@Z 0042ca60 f   Gamelib:SpatialDBase.obj
 0001:0002c520       ?FreeCell@spatial_dbase@@IAEXG@Z 0042cc60 f   Gamelib:SpatialDBase.obj
 0001:0002c660       ?TraverseCells@spatial_dbase@@QAEGABUbbox@@I@Z 0042cda0 f   Gamelib:SpatialDBase.obj
 0001:0002cab0       ?TraverseCells@spatial_dbase@@QAEGABTvector3@@0I@Z 0042d1f0 f   Gamelib:SpatialDBase.obj
 0001:0002ce40       ?Rotate@vector3@@QAEXABUradian3@@@Z 0042d580 f i Gamelib:SimpleUtils.obj
 0001:0002cfb0       ?NormalizeAndScale@vector3@@QAEXM@Z 0042d6f0 f i Gamelib:SimpleUtils.obj
 0001:0002d020       ?GetPitch@vector3@@QBEMXZ  0042d760 f i Gamelib:SimpleUtils.obj
 0001:0002d050       ?GetPitchYaw@vector3@@QBEXAAM0@Z 0042d790 f i Gamelib:SimpleUtils.obj
 0001:0002d090       ??0quaternion@@QAE@ABTvector3@@M@Z 0042d7d0 f i Gamelib:SimpleUtils.obj
 0001:0002d0f0       ??Dquaternion@@QBE?ATvector3@@ABT1@@Z 0042d830 f i Gamelib:SimpleUtils.obj
 0001:0002d290       ?Transform@matrix4@@QBEXPATvector3@@PBT2@H@Z 0042d9d0 f i Gamelib:SimpleUtils.obj
 0001:0002d680       ?Setup@matrix4@@QAEXABTvector3@@ABUradian3@@0@Z 0042ddc0 f i Gamelib:SimpleUtils.obj
 0001:0002d7f0       ??0bbox@@QAE@ABTvector3@@M@Z 0042df30 f i Gamelib:SimpleUtils.obj
 0001:0002d8a0       ?GetName@rhandle_base@@QBEPBDXZ 0042dfe0 f i Gamelib:SimpleUtils.obj
 0001:0002d8c0       ?IsLoaded@rhandle_base@@QBEHXZ 0042e000 f i Gamelib:SimpleUtils.obj
 0001:0002d8f0       ?SetMaxCollisions@collision_mgr@@QAEXH@Z 0042e030 f i Gamelib:SimpleUtils.obj
 0001:0002d910       ?GetRTTI@netobj@@SAABUrtti@@XZ 0042e050 f i Gamelib:SimpleUtils.obj
 0001:0002d970       ?GetFaction@actor@@QBE?AW4factions@@XZ 0042e0b0 f i Gamelib:SimpleUtils.obj
 0001:0002d990       ?GetRTTI@play_surface@@SAABUrtti@@XZ 0042e0d0 f i Gamelib:SimpleUtils.obj
 0001:0002d9f0       ?SMP_UTIL_PointObjectAt@@YAXPAVobject@@ABTvector3@@1M@Z 0042e130 f   Gamelib:SimpleUtils.obj
 0001:0002da80       ?SMP_UTIL_IsParticleFxVar@@YAHAAVprop_query@@PBDAAU?$rhandle@D@@@Z 0042e1c0 f   Gamelib:SimpleUtils.obj
 0001:0002db60       ?SMP_UTIL_IsAudioVar@@YAHAAVprop_query@@PBDAAU?$rhandle@D@@AAH@Z 0042e2a0 f   Gamelib:SimpleUtils.obj
 0001:0002dd60       ?SMP_UTIL_IsBoneVar@@YAHAAVprop_query@@PBDAAVobject@@AAH3@Z 0042e4a0 f   Gamelib:SimpleUtils.obj
 0001:0002de40       ?SMP_UTIL_IsAnimVar@@YAHAAVprop_query@@PBD1AAU?$rhandle@Vanim_group@@@@AAH3@Z 0042e580 f   Gamelib:SimpleUtils.obj
 0001:0002e1e0       ?SMP_UTIL_IsTemplateVar@@YAHAAVprop_query@@PBDAAH@Z 0042e920 f   Gamelib:SimpleUtils.obj
 0001:0002e310       ?SMP_UTIL_GetFactionForGuid@@YA?AW4factions@@Uguid@@@Z 0042ea50 f   Gamelib:SimpleUtils.obj
 0001:0002e3e0       ?SMP_UTIL_Get_God@@YAPAVgod@@XZ 0042eb20 f   Gamelib:SimpleUtils.obj
 0001:0002e400       ?SMP_UTIL_GetActivePlayer@@YAPAVplayer@@XZ 0042eb40 f   Gamelib:SimpleUtils.obj
 0001:0002e440       ?SMP_UTIL_GetActivePlayerGuid@@YA?AUguid@@XZ 0042eb80 f   Gamelib:SimpleUtils.obj
 0001:0002e470       ?SMP_UTIL_GetUntransformedBBox@@YA?AUbbox@@ABTmatrix4@@ABU1@@Z 0042ebb0 f   Gamelib:SimpleUtils.obj
 0001:0002e4d0       ?SMP_UTIL_GetInfoAllPlayers@@YAHHPATmatrix4@@PAPAVplayer@@@Z 0042ec10 f   Gamelib:SimpleUtils.obj
 0001:0002e5a0       ?SMP_UTIL_InitFXFromString@@YAHPBDAAVfx_handle@@@Z 0042ece0 f   Gamelib:SimpleUtils.obj
 0001:0002e610       ?SMP_UTIL_IsHiddenManualResource@@YAHAAVprop_query@@PBD1@Z 0042ed50 f   Gamelib:SimpleUtils.obj
 0001:0002e680       ??0?$object_ptr@Vobject@@@@QAE@ABUguid@@@Z 0042edc0 f i Gamelib:SimpleUtils.obj
 0001:0002e6e0       ?GetRTTI@player@@SAABUrtti@@XZ 0042ee20 f i Gamelib:LevelLoader.obj
 0001:0002e740       ?LoadInfo@level_loader@@QAEXPBD@Z 0042ee80 f   Gamelib:LevelLoader.obj
 0001:0002ea30       ?LoadDFS@level_loader@@QAEXPBD@Z 0042f170 f   Gamelib:LevelLoader.obj
 0001:0002ec40       ?RestoreTextureAllocator@@YAXXZ 0042f380 f   Gamelib:LevelLoader.obj
 0001:0002ecb0       ?InitSlideShow@level_loader@@QAEXPBD@Z 0042f3f0 f   Gamelib:LevelLoader.obj
 0001:0002f180       ?LoadLevel@level_loader@@QAEXH@Z 0042f8c0 f   Gamelib:LevelLoader.obj
 0001:0002fd10       ?LoadLevelFinish@level_loader@@QAEXXZ 00430450 f   Gamelib:LevelLoader.obj
 0001:0002fe70       ?UnloadLevel@level_loader@@QAEXH@Z 004305b0 f   Gamelib:LevelLoader.obj
 0001:00030990       ?MountDefaultFilesystems@level_loader@@QAEXXZ 004310d0 f   Gamelib:LevelLoader.obj
 0001:00030a20       ?UnmountDefaultFilesystems@level_loader@@QAEXXZ 00431160 f   Gamelib:LevelLoader.obj
 0001:00030aa0       ?OnPollReturn@level_loader@@AAEXXZ 004311e0 f   Gamelib:LevelLoader.obj
 0001:00030af0       ?FetchManifest@level_loader@@AAEXXZ 00431230 f   Gamelib:LevelLoader.obj
 0001:00030ba0       ?UnloadContent@level_loader@@AAEXXZ 004312e0 f   Gamelib:LevelLoader.obj
 0001:00030c20       ??$PushState@Vdlg_profile_options@@@?$queue_machine@$07@@QAEXP8MemCardMgr@@AEXXZPAVdlg_profile_options@@P82@AEXXZ@Z 00431360 f i UserInterface:dlg_ProfileOptions.obj
 0001:00030c20       ??$PushState@Vlevel_loader@@@?$queue_machine@$07@@QAEXP8MemCardMgr@@AEXXZPAVlevel_loader@@P82@AEXXZ@Z 00431360 f i Gamelib:LevelLoader.obj
 0001:00030c20       ??$PushState@Vdlg_join_filter@@@?$queue_machine@$07@@QAEXP8MemCardMgr@@AEXXZPAVdlg_join_filter@@P82@AEXXZ@Z 00431360 f i UserInterface:dlg_JoinFilter.obj
 0001:00030c20       ??$PushState@Vstate_mgr@@@?$queue_machine@$07@@QAEXP8MemCardMgr@@AEXXZPAVstate_mgr@@P82@AEXXZ@Z 00431360 f i Gamelib:StateMgr.obj
 0001:00030c20       ??$PushState@Vdlg_multi_player@@@?$queue_machine@$07@@QAEXP8MemCardMgr@@AEXXZPAVdlg_multi_player@@P82@AEXXZ@Z 00431360 f i UserInterface:dlg_MultiPlayerXBOX.obj
 0001:00030c20       ??$PushState@Vdlg_profile_select@@@?$queue_machine@$07@@QAEXP8MemCardMgr@@AEXXZPAVdlg_profile_select@@P82@AEXXZ@Z 00431360 f i UserInterface:dlg_ProfileSelect.obj
 0001:00030c20       ??$PushState@Vdlg_av_settings@@@?$queue_machine@$07@@QAEXP8MemCardMgr@@AEXXZPAVdlg_av_settings@@P82@AEXXZ@Z 00431360 f i UserInterface:dlg_AVSettings.obj
 0001:00030c20       ??$PushState@Vdlg_online_level_select@@@?$queue_machine@$07@@QAEXP8MemCardMgr@@AEXXZPAVdlg_online_level_select@@P82@AEXXZ@Z 00431360 f i UserInterface:dlg_OnlineLevelSelect.obj
 0001:00030c90       ??0level_check_points@@QAE@XZ 004313d0 f i Gamelib:CheckPointMgr.obj
 0001:00030d20       ?ActivateSoundEmitters@@YAXABTvector3@@@Z 00431460 f   Gamelib:CheckPointMgr.obj
 0001:00030d70       ?Reinit@check_point_mgr@@QAEXH@Z 004314b0 f   Gamelib:CheckPointMgr.obj
 0001:00030db0       ?Restore@check_point_mgr@@QAEHH@Z 004314f0 f   Gamelib:CheckPointMgr.obj
 0001:00031130       ?SetCheckPoint@check_point_mgr@@QAEHUguid@@0HH@Z 00431870 f   Gamelib:CheckPointMgr.obj
 0001:00031370       ?Setup@plane@@QAEXABTvector3@@0@Z 00431ab0 f i Gamelib:DecalMgr.obj
 0001:00031430       ?AddVerts@bbox@@QAEAAU1@PBTvector3@@H@Z 00431b70 f i Gamelib:DecalMgr.obj
 0001:000314e0       ??0registration_info@decal_mgr@@QAE@XZ 00431c20 f   Gamelib:DecalMgr.obj
 0001:00031530       ??1registration_info@decal_mgr@@QAE@XZ 00431c70 f   Gamelib:DecalMgr.obj
 0001:00031540       ?Kill@registration_info@decal_mgr@@QAEXXZ 00431c80 f   Gamelib:DecalMgr.obj
 0001:000315a0       ?AllocVertList@registration_info@decal_mgr@@QAEXH@Z 00431ce0 f   Gamelib:DecalMgr.obj
 0001:00031620       ??0decal_mgr@@QAE@XZ       00431d60 f   Gamelib:DecalMgr.obj
 0001:00031750       ?Init@decal_mgr@@QAEXXZ    00431e90 f   Gamelib:DecalMgr.obj
 0001:00031810       ?Kill@decal_mgr@@QAEXXZ    00431f50 f   Gamelib:DecalMgr.obj
 0001:00031860       ?ResetDynamicDecals@decal_mgr@@QAEXXZ 00431fa0 f   Gamelib:DecalMgr.obj
 0001:000318d0       ?CreateDecalFromRayCast@decal_mgr@@QAEXABUdecal_definition@@ABTvector3@@1ABUvector2@@M@Z 00432010 f   Gamelib:DecalMgr.obj
 0001:00031a30       ?CreateBulletHole@decal_mgr@@QAEXABUdecal_definition@@ABTvector3@@ABUplane@@PBT3@@Z 00432170 f   Gamelib:DecalMgr.obj
 0001:00032240       ?CreateDecalAtPoint@decal_mgr@@QAEXABUdecal_definition@@ABTvector3@@1ABUvector2@@M@Z 00432980 f   Gamelib:DecalMgr.obj
 0001:000322a0       ?RegisterDefinition@decal_mgr@@QAE?AUxhandle@@AAUdecal_definition@@@Z 004329e0 f   Gamelib:DecalMgr.obj
 0001:000323e0       ?CalcNoClipDecal@decal_mgr@@IAEHHABTvector3@@0ABUvector2@@MQAUdecal_vert@1@AATmatrix4@@@Z 00432b20 f   Gamelib:DecalMgr.obj
 0001:00032900       ?CalcProjectedDecal@decal_mgr@@IAEHABTvector3@@00ABUvector2@@MQAUdecal_vert@1@AATmatrix4@@@Z 00433040 f   Gamelib:DecalMgr.obj
 0001:000338a0       ?CalcDecalVertsFromVolume@decal_mgr@@IAEXABUbbox@@ABTmatrix4@@ABTvector3@@AAUworking_data@1@@Z 00433fe0 f   Gamelib:DecalMgr.obj
 0001:00035ee0       ?AddGeometryToDecal@decal_mgr@@IAEXPBUrigid_geom@@ABTmatrix4@@1ABTvector3@@AAUworking_data@1@@Z 00436620 f   Gamelib:DecalMgr.obj
 0001:00036930       ?CreateIndexedVertPool@decal_mgr@@IAEXAAUworking_data@1@@Z 00437070 f   Gamelib:DecalMgr.obj
 0001:00036a30       ?RemoveDegenerateTris@decal_mgr@@IAEXAAUworking_data@1@@Z 00437170 f   Gamelib:DecalMgr.obj
 0001:00036b90       ?CollectCoplanarEdges@decal_mgr@@IAEHAAUworking_data@1@AAUplane@@@Z 004372d0 f   Gamelib:DecalMgr.obj
 0001:00037000       ?DecalEdgeSortFn@@YAHPBX0@Z 00437740 f   Gamelib:DecalMgr.obj
 0001:00037040       ?RemoveDuplicateEdges@decal_mgr@@IAEXAAUworking_data@1@@Z 00437780 f   Gamelib:DecalMgr.obj
 0001:000370e0       ?GetCoplanarPolyVerts@decal_mgr@@IAEHAAUworking_data@1@@Z 00437820 f   Gamelib:DecalMgr.obj
 0001:00037240       ?IsCollinear@decal_mgr@@IAEHABTvector3@@00@Z 00437980 f   Gamelib:DecalMgr.obj
 0001:000373c0       ?RedoWinding@decal_mgr@@IAEXAAUworking_data@1@ABUplane@@@Z 00437b00 f   Gamelib:DecalMgr.obj
 0001:00037a30       ?BuildConvexStrip@decal_mgr@@IAEXAAUworking_data@1@@Z 00438170 f   Gamelib:DecalMgr.obj
 0001:00037bb0       ?TriContainsVert@decal_mgr@@IAEHAAUworking_data@1@HHHH@Z 004382f0 f   Gamelib:DecalMgr.obj
 0001:00037fc0       ?IsAnEar@decal_mgr@@IAEHAAUworking_data@1@QAUtriangulate_link@1@HH@Z 00438700 f   Gamelib:DecalMgr.obj
 0001:00038060       ?RemoveFromConcave@decal_mgr@@IAEXQAUtriangulate_link@1@AAHH@Z 004387a0 f   Gamelib:DecalMgr.obj
 0001:000380c0       ?IsConvex@decal_mgr@@IAEHAAUworking_data@1@QAUtriangulate_link@1@HABUplane@@@Z 00438800 f   Gamelib:DecalMgr.obj
 0001:00038200       ?Triangulate@decal_mgr@@IAEXAAUworking_data@1@ABUplane@@@Z 00438940 f   Gamelib:DecalMgr.obj
 0001:00038660       ?CombineCoplanarPolys@decal_mgr@@IAEXAAUworking_data@1@@Z 00438da0 f   Gamelib:DecalMgr.obj
 0001:00038800       ?CalcDecalVerts@decal_mgr@@IAEHHABTvector3@@00ABUvector2@@MQAUdecal_vert@1@AATmatrix4@@@Z 00438f40 f   Gamelib:DecalMgr.obj
 0001:00038890       ?GetDecalStart@decal_mgr@@IAEHUxhandle@@H@Z 00438fd0 f   Gamelib:DecalMgr.obj
 0001:00038ac0       ?AddDecal@decal_mgr@@IAEXUxhandle@@HQAUdecal_vert@1@ABTmatrix4@@@Z 00439200 f   Gamelib:DecalMgr.obj
 0001:00038c70       ?AddClippedToQueue@decal_mgr@@IAEXABUdecal_definition@@ABTvector3@@11ABUvector2@@M@Z 004393b0 f   Gamelib:DecalMgr.obj
 0001:00038d50       ?RenderDynamicDecals@decal_mgr@@IAEXAAUregistration_info@1@@Z 00439490 f   Gamelib:DecalMgr.obj
 0001:00038e20       ?OnRender@decal_mgr@@QAEXXZ 00439560 f   Gamelib:DecalMgr.obj
 0001:00039040       ?UpdateAlphaFade@decal_mgr@@IAEXMMHPAIPAM@Z 00439780 f   Gamelib:DecalMgr.obj
 0001:000390f0       ?OnUpdate@decal_mgr@@QAEXM@Z 00439830 f   Gamelib:DecalMgr.obj
 0001:00039290       ??1?$xharray@Uregistration_info@decal_mgr@@@@QAE@XZ 004399d0 f i Gamelib:DecalMgr.obj
 0001:000392e0       ?Clear@?$xharray@Uregistration_info@decal_mgr@@@@QAEXH@Z 00439a20 f i Gamelib:DecalMgr.obj
 0001:00039430       ?GrowListBy@?$xharray@Uregistration_info@decal_mgr@@@@QAEXH@Z 00439b70 f i Gamelib:DecalMgr.obj
 0001:00039690       ??4registration_info@decal_mgr@@QAEAAU01@ABU01@@Z 00439dd0 f i Gamelib:DecalMgr.obj
 0001:00039700       ?GetLookAtExtent@object@@UBEMXZ 00439e40 f i Gamelib:HudObject.obj
 0001:00039710       ?GetParentGuid@object@@UAE?AUguid@@XZ 00439e50 f i Gamelib:HudObject.obj
 0001:00039730       ?GetMaterial@mutagen_reservoir@@UBEHXZ 00439e70 f i Gamelib:MutagenReservoir.obj
 0001:00039730       ?GetType@actions_ex_base@@UAE?AW4action_ex_types@1@XZ 00439e70 f i Gamelib:TriggerEx_Actions.obj
 0001:00039730       ?net_GetSlot@object@@UBEHXZ 00439e70 f i Gamelib:HudObject.obj
 0001:00039740       ?GetColBBox@object@@UAE?AUbbox@@XZ 00439e80 f i Gamelib:HudObject.obj
 0001:00039770       ?GetBBox@object@@QAEABUbbox@@XZ 00439eb0 f i Gamelib:HudObject.obj
 0001:00039790       ?GetVelocity@object@@UBE?ATvector3@@XZ 00439ed0 f i Gamelib:HudObject.obj
 0001:000397b0       ?GetSubPosition@object@@UAE?ATvector3@@H@Z 00439ef0 f i Gamelib:HudObject.obj
 0001:000397d0       ?OnAnimEvent@actor@@UAEHABUanim_event@@ABTvector3@@@Z 00439f10 f i Gamelib:Actor.obj
 0001:000397d0       ?AlertDetected@character@@UAEHMABTvector3@@@Z 00439f10 f i Gamelib:FriendlyScientist.obj
 0001:000397d0       ?GetColDetails@object@@UAEHHAAUdetail_tri@1@@Z 00439f10 f i Gamelib:HudObject.obj
 0001:000397e0       ?IsAlive@object@@UAEHXZ    00439f20 f i Gamelib:HudObject.obj
 0001:00039800       ?GetHealth@object@@UAEMXZ  00439f40 f i Gamelib:HudObject.obj
 0001:00039810       ?IsActive@object@@UAEHXZ   00439f50 f i Gamelib:HudObject.obj
 0001:00039820       ?GetObjectRTTI@object_desc@@UBEABUrtti@@XZ 00439f60 f i Gamelib:HudObject.obj
 0001:00039850       ?OnBeginRender@object_desc@@MAEHXZ 00439f90 f i Gamelib:HudObject.obj
 0001:00039870       ?OnBeginLogic@object_desc@@MAEHXZ 00439fb0 f i Gamelib:HudObject.obj
 0001:00039890       ??1hud_damage@@UAE@XZ      00439fd0 f i Gamelib:HudObject.obj
 0001:000398f0       ??_Ghud_damage@@UAEPAXI@Z  0043a030 f i Gamelib:HudObject.obj
 0001:000398f0       ??_Ehud_damage@@UAEPAXI@Z  0043a030 f i Gamelib:HudObject.obj
 0001:00039920       ??1hud_sniper@@UAE@XZ      0043a060 f i Gamelib:HudObject.obj
 0001:00039970       ??_Ehud_sniper@@UAEPAXI@Z  0043a0b0 f i Gamelib:HudObject.obj
 0001:00039970       ??_Ghud_sniper@@UAEPAXI@Z  0043a0b0 f i Gamelib:HudObject.obj
 0001:000399a0       ??_Ehud_ammo@@UAEPAXI@Z    0043a0e0 f i Gamelib:HudObject.obj
 0001:000399a0       ??_Ghud_ammo@@UAEPAXI@Z    0043a0e0 f i Gamelib:HudObject.obj
 0001:000399f0       ??_Ehud_renderable@@UAEPAXI@Z 0043a130 f i Gamelib:HudObject.obj
 0001:000399f0       ??_Ehud_icon@@UAEPAXI@Z    0043a130 f i Gamelib:HudObject.obj
 0001:000399f0       ??_Ghud_info_box@@UAEPAXI@Z 0043a130 f i Gamelib:HudObject.obj
 0001:000399f0       ??_Ehud_vote@@UAEPAXI@Z    0043a130 f i Gamelib:HudObject.obj
 0001:000399f0       ??_Ghud_icon@@UAEPAXI@Z    0043a130 f i Gamelib:HudObject.obj
 0001:000399f0       ??_Ghud_text@@UAEPAXI@Z    0043a130 f i Gamelib:hud_Text.obj
 0001:000399f0       ??_Ghud_reticle@@UAEPAXI@Z 0043a130 f i Gamelib:HudObject.obj
 0001:000399f0       ??_Ehud_info_box@@UAEPAXI@Z 0043a130 f i Gamelib:HudObject.obj
 0001:000399f0       ??_Ghud_renderable@@UAEPAXI@Z 0043a130 f i Gamelib:HudObject.obj
 0001:000399f0       ??_Ehud_text@@UAEPAXI@Z    0043a130 f i Gamelib:hud_Text.obj
 0001:000399f0       ??_Ghud_vote@@UAEPAXI@Z    0043a130 f i Gamelib:HudObject.obj
 0001:000399f0       ??_Ehud_reticle@@UAEPAXI@Z 0043a130 f i Gamelib:HudObject.obj
 0001:00039a10       ??1hud_scanner@@UAE@XZ     0043a150 f i Gamelib:HudObject.obj
 0001:00039a60       ??_Ehud_scanner@@UAEPAXI@Z 0043a1a0 f i Gamelib:HudObject.obj
 0001:00039a60       ??_Ghud_scanner@@UAEPAXI@Z 0043a1a0 f i Gamelib:HudObject.obj
 0001:00039a90       ?GetRTTI@hud_object@@SAABUrtti@@XZ 0043a1d0 f i Gamelib:HudObject.obj
 0001:00039af0       ?GetObjectRTTI@hud_object@@UBEABUrtti@@XZ 0043a230 f i Gamelib:HudObject.obj
 0001:00039b00       ?RenderLine@@YAXPBGAAUirect@@EAAUxcolor@@HHHM@Z 0043a240 f i Gamelib:HudObject.obj
 0001:00039cb0       ?Create@hud_object_desc@@UAEPAVobject@@XZ 0043a3f0 f i Gamelib:HudObject.obj
 0001:00039cd0       ?GetTypeDesc@hud_object@@UBEABVobject_desc@@XZ 0043a410 f   Gamelib:HudObject.obj
 0001:00039ce0       ??0hud_object@@QAE@XZ      0043a420 f   Gamelib:HudObject.obj
 0001:00039f10       ??_Ehud_object@@UAEPAXI@Z  0043a650 f i Gamelib:HudObject.obj
 0001:00039f10       ??_Ghud_object@@UAEPAXI@Z  0043a650 f i Gamelib:HudObject.obj
 0001:00039f40       ??1player_hud@@QAE@XZ      0043a680 f i Gamelib:HudObject.obj
 0001:0003a000       ??1hud_object@@UAE@XZ      0043a740 f   Gamelib:HudObject.obj
 0001:0003a040       ?InitHud@hud_object@@QAEXXZ 0043a780 f   Gamelib:HudObject.obj
 0001:0003a900       ?OnAdvanceLogic@hud_object@@UAEXM@Z 0043b040 f   Gamelib:HudObject.obj
 0001:0003abf0       ?IsLetterBoxOn@hud_object@@QBEHXZ 0043b330 f   Gamelib:HudObject.obj
 0001:0003ac30       ?GetLetterBoxAmount@hud_object@@QBEMXZ 0043b370 f   Gamelib:HudObject.obj
 0001:0003ac60       ?RenderLetterBox@hud_object@@SAXABUrect@@M@Z 0043b3a0 f   Gamelib:HudObject.obj
 0001:0003aef0       ?OnRender@hud_object@@UAEXXZ 0043b630 f   Gamelib:HudObject.obj
 0001:0003afd0       ?RenderTimer@hud_object@@QAEXXZ 0043b710 f   Gamelib:HudObject.obj
 0001:0003b180       ?OnEnumProp@hud_object@@UAEXAAVprop_enum@@@Z 0043b8c0 f   Gamelib:HudObject.obj
 0001:0003b2a0       ?OnProperty@hud_object@@UAEHAAVprop_query@@@Z 0043b9e0 f   Gamelib:HudObject.obj
 0001:0003b5b0       ?GetBinaryResourceName@hud_object@@QAEXAAVxstring@@@Z 0043bcf0 f   Gamelib:HudObject.obj
 0001:0003b790       ?GetLocalBBox@hud_object@@UBE?AUbbox@@XZ 0043bed0 f   Gamelib:HudObject.obj
 0001:0003b7e0       ?RenderFrameRateInfo@hud_object@@QAEXXZ 0043bf20 f   Gamelib:HudObject.obj
 0001:0003bc90       ?GetPlayerHud@hud_object@@QAEAAVplayer_hud@@H@Z 0043c3d0 f   Gamelib:HudObject.obj
 0001:0003bcd0       ?RenderObjectiveText@hud_object@@QAEXXZ 0043c410 f   Gamelib:HudObject.obj
 0001:0003bd30       ?Init@debug_menu2@@QAEHXZ  0043c470 f   Gamelib:DebugMenu2.obj
 0001:0003bf00       ?Enable@debug_menu2@@QAEXXZ 0043c640 f   Gamelib:DebugMenu2.obj
 0001:0003bf50       ?Disable@debug_menu2@@QAEXXZ 0043c690 f   Gamelib:DebugMenu2.obj
 0001:0003bfa0       ?Update@debug_menu2@@QAEHM@Z 0043c6e0 f   Gamelib:DebugMenu2.obj
 0001:0003c510       ?Render@debug_menu2@@QAEXXZ 0043cc50 f   Gamelib:DebugMenu2.obj
 0001:0003c600       ?RenderLine@debug_menu2@@SAXHPBDUirect@@HH@Z 0043cd40 f   Gamelib:DebugMenu2.obj
 0001:0003c760       ?PreLoad@rsc_loader@@EAEPAXAAPAIPBD@Z 0043cea0 f   Gamelib:ResourceMgr.obj
 0001:0003c7a0       ?Clear@rsc_mgr@@AAEXXZ     0043cee0 f   Gamelib:ResourceMgr.obj
 0001:0003c800       ?ComputeHashIndex@rsc_mgr@@AAEFPBD@Z 0043cf40 f   Gamelib:ResourceMgr.obj
 0001:0003c840       ?AllocEntry@rsc_mgr@@AAEFPBD@Z 0043cf80 f   Gamelib:ResourceMgr.obj
 0001:0003ca60       ?FreeEntry@rsc_mgr@@AAEXF@Z 0043d1a0 f   Gamelib:ResourceMgr.obj
 0001:0003cbf0       ?FindEntry@rsc_mgr@@AAEFPBD@Z 0043d330 f   Gamelib:ResourceMgr.obj
 0001:0003cc90       ?Load@rsc_mgr@@QAEXPBD@Z   0043d3d0 f   Gamelib:ResourceMgr.obj
 0001:0003cf20       ?Unload@rsc_mgr@@QAEXPBD@Z 0043d660 f   Gamelib:ResourceMgr.obj
 0001:0003cf90       ?UnloadAll@rsc_mgr@@QAEXH@Z 0043d6d0 f   Gamelib:ResourceMgr.obj
 0001:0003d050       ?TagResources@rsc_mgr@@QAEXXZ 0043d790 f   Gamelib:ResourceMgr.obj
 0001:0003d090       ?AddRHandle@rsc_mgr@@AAEXAAVrhandle_base@@PBD@Z 0043d7d0 f   Gamelib:ResourceMgr.obj
 0001:0003d170       ?GetPointerSlow@rsc_mgr@@AAEPAXABVrhandle_base@@@Z 0043d8b0 f   Gamelib:ResourceMgr.obj
 0001:0003d1c0       ?GetIndex@guid_lookup@@QAEHUguid@@@Z 0043d900 f i Gamelib:Guid.obj
 0001:0003d230       ?Resize@guid_lookup@@IAEXH@Z 0043d970 f   Gamelib:Guid.obj
 0001:0003d3a0       ?AllocNode@guid_lookup@@IAEHXZ 0043dae0 f   Gamelib:Guid.obj
 0001:0003d410       ?DeallocNode@guid_lookup@@IAEXH@Z 0043db50 f   Gamelib:Guid.obj
 0001:0003d4b0       ?Add@guid_lookup@@QAEXUguid@@I@Z 0043dbf0 f   Gamelib:Guid.obj
 0001:0003d540       ?guid_ToString@@YA?AVxstring@@Uguid@@@Z 0043dc80 f   Gamelib:Guid.obj
 0001:0003d5b0       ??0var_mngr@@QAE@XZ        0043dcf0 f i Gamelib:Global_Variables_Manager.obj
 0001:0003d610       ??1var_mngr@@UAE@XZ        0043dd50 f i Gamelib:Global_Variables_Manager.obj
 0001:0003d750       ??_Gvar_mngr@@UAEPAXI@Z    0043de90 f i Gamelib:Global_Variables_Manager.obj
 0001:0003d750       ??_Evar_mngr@@UAEPAXI@Z    0043de90 f i Gamelib:Global_Variables_Manager.obj
 0001:0003d780       ?GetVarHandle@var_mngr@@QAEHPBDPAUxhandle@@@Z 0043dec0 f   Gamelib:Global_Variables_Manager.obj
 0001:0003d810       ?GetTimerHandle@var_mngr@@QAEHPBDPAUxhandle@@@Z 0043df50 f   Gamelib:Global_Variables_Manager.obj
 0001:0003d8a0       ?GetGuidHandle@var_mngr@@QAEHPBDPAUxhandle@@@Z 0043dfe0 f   Gamelib:Global_Variables_Manager.obj
 0001:0003d930       ?SetGuid@var_mngr@@QAEXAAUxhandle@@Uguid@@@Z 0043e070 f   Gamelib:Global_Variables_Manager.obj
 0001:0003d950       ?ResetTimer@var_mngr@@QAEXAAUxhandle@@@Z 0043e090 f   Gamelib:Global_Variables_Manager.obj
 0001:0003d980       ?StartTimer@var_mngr@@QAEXAAUxhandle@@@Z 0043e0c0 f   Gamelib:Global_Variables_Manager.obj
 0001:0003d9c0       ?StopTimer@var_mngr@@QAEXAAUxhandle@@@Z 0043e100 f   Gamelib:Global_Variables_Manager.obj
 0001:0003da00       ?OnEnumProp@var_mngr@@UAEXAAVprop_enum@@@Z 0043e140 f   Gamelib:Global_Variables_Manager.obj
 0001:0003da30       ?OnProperty@var_mngr@@UAEHAAVprop_query@@@Z 0043e170 f   Gamelib:Global_Variables_Manager.obj
 0001:0003da80       ?OnEnumPropVariables@var_mngr@@UAEXAAVprop_enum@@I@Z 0043e1c0 f   Gamelib:Global_Variables_Manager.obj
 0001:0003dd90       ?OnEnumPropInternal@var_mngr@@UAEXAAVprop_enum@@@Z 0043e4d0 f   Gamelib:Global_Variables_Manager.obj
 0001:0003de20       ?OnPropertyInternal@var_mngr@@UAEHAAVprop_query@@@Z 0043e560 f   Gamelib:Global_Variables_Manager.obj
 0001:0003e0a0       ?OnPropertyVariables@var_mngr@@UAEHAAVprop_query@@@Z 0043e7e0 f   Gamelib:Global_Variables_Manager.obj
 0001:0003e4d0       ?ResetKeys@var_mngr@@IAEXXZ 0043ec10 f   Gamelib:Global_Variables_Manager.obj
 0001:0003e5c0       ?ClearData@var_mngr@@QAEXXZ 0043ed00 f   Gamelib:Global_Variables_Manager.obj
 0001:0003e630       ?ResetAllTimers@var_mngr@@QAEXXZ 0043ed70 f   Gamelib:Global_Variables_Manager.obj
 0001:0003e670       ?LoadGlobals@var_mngr@@QAEXPBD@Z 0043edb0 f   Gamelib:Global_Variables_Manager.obj
 0001:0003e720       ?SaveRuntimeData@var_mngr@@QAEHXZ 0043ee60 f   Gamelib:Global_Variables_Manager.obj
 0001:0003e9b0       ?LoadRuntimeData@var_mngr@@QAEHXZ 0043f0f0 f   Gamelib:Global_Variables_Manager.obj
 0001:0003ec70       ?Set@?$simple_string@$0EA@@@QAEXPBD@Z 0043f3b0 f i Gamelib:Global_Variables_Manager.obj
 0001:0003eca0       ?DeleteByHandle@?$xharray@Utimer_key@var_mngr@@@@QAEXUxhandle@@@Z 0043f3e0 f i Gamelib:Global_Variables_Manager.obj
 0001:0003eca0       ?DeleteByHandle@?$xharray@Uguid_key@var_mngr@@@@QAEXUxhandle@@@Z 0043f3e0 f i Gamelib:Global_Variables_Manager.obj
 0001:0003eca0       ?DeleteByHandle@?$xharray@Uprivate_instance@@@@QAEXUxhandle@@@Z 0043f3e0 f i Render:Render.obj
 0001:0003eca0       ?DeleteByHandle@?$xharray@Uregistration_info@decal_mgr@@@@QAEXUxhandle@@@Z 0043f3e0 f i Gamelib:DecalMgr.obj
 0001:0003eca0       ?DeleteByHandle@?$xharray@Uprivate_geom@@@@QAEXUxhandle@@@Z 0043f3e0 f i Render:Render.obj
 0001:0003eca0       ?DeleteByHandle@?$xharray@Uvar_key@var_mngr@@@@QAEXUxhandle@@@Z 0043f3e0 f i Gamelib:Global_Variables_Manager.obj
 0001:0003ecf0       ?Add@?$xharray@Uguid_key@var_mngr@@@@QAEAAUguid_key@var_mngr@@AAUxhandle@@@Z 0043f430 f i Gamelib:Global_Variables_Manager.obj
 0001:0003ed30       ?GrowListBy@?$xharray@Uvar_key@var_mngr@@@@QAEXH@Z 0043f470 f i Gamelib:Global_Variables_Manager.obj
 0001:0003eec0       ?GrowListBy@?$xharray@Utimer_key@var_mngr@@@@QAEXH@Z 0043f600 f i Gamelib:Global_Variables_Manager.obj
 0001:0003f050       ?GrowListBy@?$xharray@Uguid_key@var_mngr@@@@QAEXH@Z 0043f790 f i Gamelib:Global_Variables_Manager.obj
 0001:0003f1e0       ??0var_key@var_mngr@@QAE@XZ 0043f920 f i Gamelib:Global_Variables_Manager.obj
 0001:0003f1f0       ??0timer_key@var_mngr@@QAE@XZ 0043f930 f i Gamelib:Global_Variables_Manager.obj
 0001:0003f210       ??0guid_key@var_mngr@@QAE@XZ 0043f950 f i Gamelib:Global_Variables_Manager.obj
 0001:0003f220       ?Init@post_effect_mgr@@QAEXXZ 0043f960 f   Gamelib:PostEffectMgr.obj
 0001:0003f300       ?OnUpdate@post_effect_mgr@@QAEXM@Z 0043fa40 f   Gamelib:PostEffectMgr.obj
 0001:0003f520       ?Render@post_effect_mgr@@QAEXXZ 0043fc60 f   Gamelib:PostEffectMgr.obj
 0001:0003f6c0       ?RenderFog@post_effect_mgr@@QAEXXZ 0043fe00 f   Gamelib:PostEffectMgr.obj
 0001:0003f720       ?RenderScreenFade@post_effect_mgr@@QAEXXZ 0043fe60 f   Gamelib:PostEffectMgr.obj
 0001:0003f860       ?StartScreenFade@post_effect_mgr@@QAEXUxcolor@@MH@Z 0043ffa0 f   Gamelib:PostEffectMgr.obj
 0001:0003f900       ?ClearAllLogical@input_pad@@QAEXXZ 00440040 f   Gamelib:InputMgr.obj
 0001:0003f920       ?AddMapping@input_pad@@QAEXHHW4input_gadget@@HM@Z 00440060 f   Gamelib:InputMgr.obj
 0001:0003f9b0       ?DelMapping@input_pad@@QAEXHH@Z 004400f0 f   Gamelib:InputMgr.obj
 0001:0003fa10       ?OnUpdate@input_pad@@MAEXHM@Z 00440150 f   Gamelib:InputMgr.obj
 0001:0003fc10       ?OnEnumProp@input_pad@@UAEXAAVprop_enum@@@Z 00440350 f   Gamelib:InputMgr.obj
 0001:0003ffb0       ?OnProperty@input_pad@@UAEHAAVprop_query@@@Z 004406f0 f   Gamelib:InputMgr.obj
 0001:000403c0       ?SetAllLogical@input_pad@@QAEXPAUlogical@1@@Z 00440b00 f   Gamelib:InputMgr.obj
 0001:00040400       ?SetAllMap@input_pad@@QAEXHPAUmap@1@H@Z 00440b40 f   Gamelib:InputMgr.obj
 0001:00040470       ?GetNameFromGadgetID@input_pad@@QAEPBDHW4input_gadget@@@Z 00440bb0 f   Gamelib:InputMgr.obj
 0001:000404b0       ?GetGadgetIDFromName@input_pad@@QAE?AW4input_gadget@@HPBD@Z 00440bf0 f   Gamelib:InputMgr.obj
 0001:00040520       ?Update@input_mgr@@QAEHM@Z 00440c60 f   Gamelib:InputMgr.obj
 0001:00040570       ?WasPausePressed@input_mgr@@QAEHXZ 00440cb0 f   Gamelib:InputMgr.obj
 0001:00040610       ?x_ModAngle@@YAMM@Z        00440d50 f i Gamelib:PlayerObject.obj
 0001:00040670       ?x_ModAngle2@@YAMM@Z       00440db0 f i Gamelib:PlayerObject.obj
 0001:000406f0       ?RotateY@vector3@@QAEXM@Z  00440e30 f i Gamelib:PlayerObject.obj
 0001:00040750       ?Set@vector3@@QAEXABUradian3@@@Z 00440e90 f i Gamelib:PlayerObject.obj
 0001:000407c0       ??0vector3@@QAE@ABUradian3@@@Z 00440f00 f i Gamelib:PlayerObject.obj
 0001:00040830       ?GetClosestPToLSeg@vector3@@QBE?AT1@ABT1@0@Z 00440f70 f i Gamelib:PlayerObject.obj
 0001:00040950       ?v3_AngleBetween@@YAMABTvector3@@0@Z 00441090 f i Gamelib:PlayerObject.obj
 0001:00040a30       ?Setup@quaternion@@QAEXABUradian3@@@Z 00441170 f i Gamelib:PlayerObject.obj
 0001:00040d10       ?GetRotation@quaternion@@QBE?AUradian3@@XZ 00441450 f i Gamelib:PlayerObject.obj
 0001:00040e70       ?GetScale@matrix4@@QBE?ATvector3@@XZ 004415b0 f i Gamelib:PlayerObject.obj
 0001:00040ef0       ?GetRotation@matrix4@@QBE?AUradian3@@XZ 00441630 f i Gamelib:PlayerObject.obj
 0001:000411a0       ?RotateX@matrix4@@QAEXM@Z  004418e0 f i Gamelib:PlayerObject.obj
 0001:000412b0       ?RotateY@matrix4@@QAEXM@Z  004419f0 f i Gamelib:PlayerObject.obj
 0001:000413c0       ?PreRotateY@matrix4@@QAEXM@Z 00441b00 f i Gamelib:PlayerObject.obj
 0001:000414d0       ?SetZones@object@@QAEXG@Z  00441c10 f i Gamelib:PlayerObject.obj
 0001:00041520       ?AddToIgnoreList@collision_mgr@@QAEXUguid@@@Z 00441c60 f i Gamelib:PlayerObject.obj
 0001:00041550       ?StartApply@collision_mgr@@QAEXUguid@@@Z 00441c90 f i Gamelib:PlayerObject.obj
 0001:00041680       ?SetFrame@char_anim_player@@QAEXM@Z 00441dc0 f i Gamelib:PlayerObject.obj
 0001:000416d0       ?GetNBones@char_anim_player@@QAEHXZ 00441e10 f i Gamelib:PlayerObject.obj
 0001:000416d0       ?GetNBones@simple_anim_player@@QAEHXZ 00441e10 f i Gamelib:AnimPlayer.obj
 0001:00041720       ?GetBoneL2Ws@char_anim_player@@QAEPBTmatrix4@@XZ 00441e60 f i Gamelib:PlayerObject.obj
 0001:00041740       ?GetBoneL2W@char_anim_player@@QAEABTmatrix4@@H@Z 00441e80 f i Gamelib:PlayerObject.obj
 0001:00041770       ?GetBoneIndex@char_anim_player@@QAEHPBD@Z 00441eb0 f i Gamelib:PlayerObject.obj
 0001:000417e0       ?GetGameDeltaTime@obj_mgr@@QBEM_J@Z 00441f20 f i Gamelib:PlayerObject.obj
 0001:00041830       ?GetBBox@character_physics@@QBE?AUbbox@@XZ 00441f70 f i Gamelib:PlayerObject.obj
 0001:00041890       ?IsAirborn@character_physics@@QBEHXZ 00441fd0 f i Gamelib:PlayerObject.obj
 0001:000418b0       ?GetVMeshIndex@geom@@QBEHPBD@Z 00441ff0 f i Gamelib:PlayerObject.obj
 0001:00041930       ?GetRTTI@new_weapon@@SAABUrtti@@XZ 00442070 f i Gamelib:PlayerObject.obj
 0001:00041990       ?GetCanDie@actor@@UAEHXZ   004420d0 f i Gamelib:PlayerObject.obj
 0001:000419a0       ?GetSpawnFadeTime@actor@@UAEMXZ 004420e0 f i Gamelib:PlayerObject.obj
 0001:000419b0       ?GetFloorColor@actor@@QAE?AUxcolor@@XZ 004420f0 f i Gamelib:PlayerObject.obj
 0001:000419e0       ?IsActive@actor@@UAEHXZ    00442120 f i Gamelib:PlayerObject.obj
 0001:000419f0       ?IsContagious@actor@@UAEHXZ 00442130 f i Gamelib:PlayerObject.obj
 0001:00041a00       ?GetSkinInst@actor@@UAEAAVskin_inst@@XZ 00442140 f i Gamelib:PlayerObject.obj
 0001:00041a00       ?GetRenderInstPtr@actor@@UAEPAVrender_inst@@XZ 00442140 f i Gamelib:FriendlyScientist.obj
 0001:00041a10       ?GetHealth@actor@@UAEMXZ   00442150 f i Gamelib:PlayerObject.obj
 0001:00041a20       ?ResetHealth@actor@@UAEXM@Z 00442160 f i Gamelib:PlayerObject.obj
 0001:00041a50       ?GetMaxHealth@actor@@UAEMXZ 00442190 f i Gamelib:PlayerObject.obj
 0001:00041a60       ?SetMaxHealth@actor@@UAEXM@Z 004421a0 f i Gamelib:PlayerObject.obj
 0001:00041a80       ?GetParametricHealth@actor@@UAEMXZ 004421c0 f i Gamelib:PlayerObject.obj
 0001:00041aa0       ?IsFriendlyFaction@actor@@QBEHW4factions@@@Z 004421e0 f i Gamelib:PlayerObject.obj
 0001:00041af0       ?PlayDialog@actor@@UAEHW4eDialogType@1@PBDH11IEM@Z 00442230 f i Gamelib:PlayerObject.obj
 0001:00041b00       ?SetIsCrouching@actor@@QAEXH@Z 00442240 f i Gamelib:PlayerObject.obj
 0001:00041b40       ?SetIsAirborn@actor@@QAEXH@Z 00442280 f i Gamelib:PlayerObject.obj
 0001:00041b80       ?GetObjectRTTI@player@@UBEABUrtti@@XZ 004422c0 f i Gamelib:PlayerObject.obj
 0001:00041b90       ?GetRenderInstPtr@player@@UAEPAVrender_inst@@XZ 004422d0 f i Gamelib:PlayerObject.obj
 0001:00041ba0       ?GetAnimGroupHandlePtr@player@@UAEPAU?$rhandle@Vanim_group@@@@XZ 004422e0 f i Gamelib:PlayerObject.obj
 0001:00041bb0       ?SpottedByEnemy@player@@UAEXXZ 004422f0 f i Gamelib:PlayerObject.obj
 0001:00041be0       ?IsFlashlightOn@player@@UAEHXZ 00442320 f i Gamelib:PlayerObject.obj
 0001:00041bf0       ?GetBattery@player@@UAEMXZ 00442330 f i Gamelib:PlayerObject.obj
 0001:00041c00       ?GetMaxBattery@player@@UAEMXZ 00442340 f i Gamelib:PlayerObject.obj
 0001:00041c10       ?SetAimRecoverSpeed@player@@UAEXM@Z 00442350 f i Gamelib:PlayerObject.obj
 0001:00041c30       ?IsRunning@player@@UAEHXZ  00442370 f i Gamelib:PlayerObject.obj
 0001:00041c40       ?InTurret@player@@UAEHXZ   00442380 f i Gamelib:PlayerObject.obj
 0001:00041c50       ?GetMutagen@player@@UAEMXZ 00442390 f i Gamelib:PlayerObject.obj
 0001:00041c60       ?GetMaxMutagen@player@@UAEMXZ 004423a0 f i Gamelib:PlayerObject.obj
 0001:00041c70       ?SetMutagen@player@@UAEXM@Z 004423b0 f i Gamelib:PlayerObject.obj
 0001:00041c90       ?GetVelocity@player@@UBE?ATvector3@@XZ 004423d0 f i Gamelib:PlayerObject.obj
 0001:00041cc0       ?GetCollisionHeight@player@@UAEMXZ 00442400 f i Gamelib:PlayerObject.obj
 0001:00041cd0       ?GetCollisionRadius@player@@UAEMXZ 00442410 f i Gamelib:PlayerObject.obj
 0001:00041ce0       ?AddImpulse@player@@UAEXAATvector3@@@Z 00442420 f i Gamelib:PlayerObject.obj
 0001:00041d40       ?GetEyesPosition@player@@QBE?ATvector3@@XZ 00442480 f i Gamelib:PlayerObject.obj
 0001:00041d70       ?IsChangingMutation@player@@IBEHXZ 004424b0 f i Gamelib:PlayerObject.obj
 0001:00041da0       ?GetRTTI@corpse@@SAABUrtti@@XZ 004424e0 f i Gamelib:PlayerObject.obj
 0001:00041e00       ?GetRTTI@projector_obj@@SAABUrtti@@XZ 00442540 f i Gamelib:PlayerObject.obj
 0001:00041e60       ?GetRTTI@weapon_mutation@@SAABUrtti@@XZ 004425a0 f i Gamelib:PlayerObject.obj
 0001:00041e60       ?GetObjectRTTI@weapon_mutation@@UBEABUrtti@@XZ 004425a0 f i Gamelib:WeaponMutation.obj
 0001:00041e90       ?GetRTTI@focus_object@@SAABUrtti@@XZ 004425d0 f i Gamelib:PlayerObject.obj
 0001:00041ef0       ??0AimAssistData@@QAE@XZ   00442630 f   Gamelib:PlayerObject.obj
 0001:00042040       ?LoadAimAssistTweakHandles@player@@IAEXXZ 00442780 f   Gamelib:PlayerObject.obj
 0001:000425e0       ?LoadAimAssistTweaks@player@@IAEXXZ 00442d20 f   Gamelib:PlayerObject.obj
 0001:000429a0       ?Create@player_desc@@UAEPAVobject@@XZ 004430e0 f i Gamelib:PlayerObject.obj
 0001:000429c0       ??0player@@QAE@XZ          00443100 f   Gamelib:PlayerObject.obj
 0001:00043850       ??_Gplayer@@UAEPAXI@Z      00443f90 f i Gamelib:PlayerObject.obj
 0001:00043850       ??_Eplayer@@UAEPAXI@Z      00443f90 f i Gamelib:PlayerObject.obj
 0001:00043880       ??1loco@@UAE@XZ            00443fc0 f i Gamelib:PlayerObject.obj
 0001:000438e0       ??0strain_control_modifiers@player@@QAE@XZ 00444020 f   Gamelib:PlayerObject.obj
 0001:000439d0       ??1player@@UAE@XZ          00444110 f   Gamelib:PlayerObject.obj
 0001:00043b30       ?GetTypeDesc@player@@UBEABVobject_desc@@XZ 00444270 f   Gamelib:PlayerObject.obj
 0001:00043b40       ?OnInit@player@@MAEXXZ     00444280 f   Gamelib:PlayerObject.obj
 0001:00044000       ?GetMovementNoiseLevel@player@@UAEMXZ 00444740 f   Gamelib:PlayerObject.obj
 0001:000440b0       ?UpdateZoneTrack@player@@UAEXXZ 004447f0 f   Gamelib:PlayerObject.obj
 0001:00044100       ?OnReset@player@@UAEXXZ    00444840 f   Gamelib:PlayerObject.obj
 0001:00044170       ?GetHud@player@@QAEPAVhud_object@@XZ 004448b0 f   Gamelib:PlayerObject.obj
 0001:00044190       ?UpdateCameraShake@player@@MAEXM@Z 004448d0 f   Gamelib:PlayerObject.obj
 0001:000443d0       ?DoBasicPainFeedback@player@@QAEXM@Z 00444b10 f   Gamelib:PlayerObject.obj
 0001:00044530       ?RespondToPain@player@@QAEXABVpain@@@Z 00444c70 f   Gamelib:PlayerObject.obj
 0001:000447a0       ?OverrideFlinchType@player@@UAE?AW4eHitType@actor@@W423@@Z 00444ee0 f   Gamelib:PlayerObject.obj
 0001:000447a0       ?OverrideFlinchType@net_ghost@@UAE?AW4eHitType@actor@@W423@@Z 00444ee0 f   NetworkMgr:NetGhost.obj
 0001:000447c0       ?OnPain@player@@UAEXABVpain@@@Z 00444f00 f   Gamelib:PlayerObject.obj
 0001:00044a00       ?BackUpCurrentState@player@@UAEXXZ 00445140 f   Gamelib:PlayerObject.obj
 0001:00044a10       ?RestoreState@player@@UAEXXZ 00445150 f   Gamelib:PlayerObject.obj
 0001:00044a30       ?GetIsSafeSpot@player@@UAEHXZ 00445170 f   Gamelib:PlayerObject.obj
 0001:00044aa0       ?SetCurrentSpotAsSafeSpot@player@@UAEXXZ 004451e0 f   Gamelib:PlayerObject.obj
 0001:00044b30       ?ResetToLastSafeSpot@player@@UAEXXZ 00445270 f   Gamelib:PlayerObject.obj
 0001:00044be0       ?UpdateViewCinematic@player@@IAEXABM@Z 00445320 f   Gamelib:PlayerObject.obj
 0001:00044e50       ?CanSeeObject@player@@UAEHPAVobject@@@Z 00445590 f   Gamelib:PlayerObject.obj
 0001:00044f70       ?OnMoveFreeCam@player@@UAEXAAVview@@@Z 004456b0 f   Gamelib:PlayerObject.obj
 0001:000451d0       ?OnExitFreeCam@player@@UAEXAATvector3@@@Z 00445910 f   Gamelib:PlayerObject.obj
 0001:00045320       ?DoFeedback@player@@QAEXMM@Z 00445a60 f   Gamelib:PlayerObject.obj
 0001:00045350       ?OnKill@player@@UAEXXZ     00445a90 f   Gamelib:PlayerObject.obj
 0001:00045370       ?GetDefaultViewPos@player@@QAE?ATvector3@@XZ 00445ab0 f   Gamelib:PlayerObject.obj
 0001:000457b0       ?ComputeView@player@@QAEXAAVview@@W4view_flags@1@@Z 00445ef0 f   Gamelib:PlayerObject.obj
 0001:00045cc0       ?RandomizeMeleeAnimStateList@player@@QAEXXZ 00446400 f   Gamelib:PlayerObject.obj
 0001:00045e30       ?GetNextMeleeState@player@@QAE?AW4animation_state@1@XZ 00446570 f   Gamelib:PlayerObject.obj
 0001:00045e70       ?SetupThirdPersonCamera@player@@IAEXXZ 004465b0 f   Gamelib:PlayerObject.obj
 0001:000460d0       ?UpdateThirdPersonCamera@player@@IAEXXZ 00446810 f   Gamelib:PlayerObject.obj
 0001:00046250       ?SetLocalPlayer@player@@QAEXH@Z 00446990 f   Gamelib:PlayerObject.obj
 0001:000462e0       ?Push@player@@UAEXABTvector3@@@Z 00446a20 f   Gamelib:PlayerObject.obj
 0001:00046380       ?UpdateWeaponPullback@player@@QAEXXZ 00446ac0 f   Gamelib:PlayerObject.obj
 0001:000466f0       ?MoveAnimPlayer@player@@QAEXABTvector3@@@Z 00446e30 f   Gamelib:PlayerObject.obj
 0001:000467d0       ?SetCurrentStrain@player@@IAEXXZ 00446f10 f   Gamelib:PlayerObject.obj
 0001:000469b0       ?OnAdvanceLogic@player@@MAEXM@Z 004470f0 f   Gamelib:PlayerObject.obj
 0001:00047310       ?UseFocusObject@player@@IAEHXZ 00447a50 f   Gamelib:PlayerObject.obj
 0001:000473d0       ?NearMutagenReservoir@player@@IAEHXZ 00447b10 f   Gamelib:PlayerObject.obj
 0001:000474e0       ?AcquireAllLoreObjects@player@@QAEXXZ 00447c20 f   Gamelib:PlayerObject.obj
 0001:00047540       ?LoadAllLoreObjects@player@@QAEXXZ 00447c80 f   Gamelib:PlayerObject.obj
 0001:000476b0       ?GetClosestLoreObjectDist@player@@QAEHAAM@Z 00447df0 f   Gamelib:PlayerObject.obj
 0001:00047810       ?InitFlashlight@player@@QAEXABTvector3@@@Z 00447f50 f   Gamelib:PlayerObject.obj
 0001:00047920       ?IsFlashlightActive@player@@QAEHXZ 00448060 f   Gamelib:PlayerObject.obj
 0001:00047980       ?SetFlashlightActive@player@@QAEXH@Z 004480c0 f   Gamelib:PlayerObject.obj
 0001:00047b30       ?UpdateFlashlightBattery@player@@QAEXM@Z 00448270 f   Gamelib:PlayerObject.obj
 0001:00047c00       ?AddBattery@player@@UAEHABM@Z 00448340 f   Gamelib:PlayerObject.obj
 0001:00047c70       ?MoveFlashlight@player@@QAEXXZ 004483b0 f   Gamelib:PlayerObject.obj
 0001:00047ef0       ?OnDeath@player@@UAEXXZ    00448630 f   Gamelib:PlayerObject.obj
 0001:000480b0       ?OnSpawn@player@@UAEXXZ    004487f0 f   Gamelib:PlayerObject.obj
 0001:00048150       ?OnRenderTransparent@player@@MAEXXZ 00448890 f   Gamelib:PlayerObject.obj
 0001:00048410       ?OnRender@player@@MAEXXZ   00448b50 f   Gamelib:PlayerObject.obj
 0001:00048900       ?OnRenderShadowCast@player@@MAEX_K@Z 00449040 f   Gamelib:PlayerObject.obj
 0001:00048930       ?OnAliveLogic@player@@UAEXM@Z 00449070 f   Gamelib:PlayerObject.obj
 0001:00048b10       ?OnDeathLogic@player@@UAEXM@Z 00449250 f   Gamelib:PlayerObject.obj
 0001:00048bd0       ?OnMove@player@@UAEXABTvector3@@@Z 00449310 f   Gamelib:PlayerObject.obj
 0001:00048cd0       ?OnMoveViewPosition@player@@QAEXABTvector3@@@Z 00449410 f   Gamelib:PlayerObject.obj
 0001:00048db0       ?OnTransform@player@@UAEXABTmatrix4@@@Z 004494f0 f   Gamelib:PlayerObject.obj
 0001:00048eb0       ?UpdateMovement@player@@UAEXM@Z 004495f0 f   Gamelib:PlayerObject.obj
 0001:00049280       ?UpdateAudio@player@@QAEXM@Z 004499c0 f   Gamelib:PlayerObject.obj
 0001:00049330       ?UpdateCharacterRotation@player@@MAEXABM@Z 00449a70 f   Gamelib:PlayerObject.obj
 0001:00049460       ?UpdateCrouchHeight@player@@QAEXABM@Z 00449ba0 f   Gamelib:PlayerObject.obj
 0001:00049500       ?OnEnumProp@player@@MAEXAAVprop_enum@@@Z 00449c40 f   Gamelib:PlayerObject.obj
 0001:00049860       ?EnumrateStrainControls@player@@QAEXAAVprop_enum@@@Z 00449fa0 f   Gamelib:PlayerObject.obj
 0001:000499d0       ?OnStrainControlProperty@player@@QAEHAAVprop_query@@@Z 0044a110 f   Gamelib:PlayerObject.obj
 0001:00049d00       ?OnProperty@player@@MAEHAAVprop_query@@@Z 0044a440 f   Gamelib:PlayerObject.obj
 0001:0004a680       ?OnStrainProperty@player@@QAEHAAVprop_query@@@Z 0044adc0 f   Gamelib:PlayerObject.obj
 0001:0004a8c0       ?OnAnimationInit@player@@MAEXXZ 0044b000 f   Gamelib:PlayerObject.obj
 0001:0004aa90       ?GetWeaponFromAnimName@player@@QAE?AW4inven_item@@PBD@Z 0044b1d0 f   Gamelib:PlayerObject.obj
 0001:0004abd0       ?GetAnimStateFromName@player@@QAE?AW4animation_state@1@PBD@Z 0044b310 f   Gamelib:PlayerObject.obj
 0001:0004af50       ?ProcessSfxEvents@player@@MAEXXZ 0044b690 f   Gamelib:PlayerObject.obj
 0001:0004b940       ?GetMotionTransitionAnimState@player@@IAE?AW4animation_state@1@XZ 0044c080 f   Gamelib:PlayerObject.obj
 0001:0004b9c0       ?SetAnimation@player@@MAEXABW4animation_state@1@ABHABM@Z 0044c100 f   Gamelib:PlayerObject.obj
 0001:0004bac0       ?CameraFall@player@@QAEXM@Z 0044c200 f   Gamelib:PlayerObject.obj
 0001:0004bb70       ?OnAnimEvents@player@@MAEXXZ 0044c2b0 f   Gamelib:PlayerObject.obj
 0001:0004bb90       ?OnEvent@player@@UAEXABUevent@@@Z 0044c2d0 f   Gamelib:PlayerObject.obj
 0001:0004c6e0       ?SetupGrenadeThrow@player@@IAE?ATvector3@@ABT2@@Z 0044ce20 f   Gamelib:PlayerObject.obj
 0001:0004c940       ?GetThrowPoints@player@@IAEXAATvector3@@00@Z 0044d080 f   Gamelib:PlayerObject.obj
 0001:0004cac0       ?ProcessStunnedPain@player@@MAEXABVpain@@@Z 0044d200 f   Gamelib:PlayerObject.obj
 0001:0004cb00       ?UpdateStunnedNE@player@@IAEXM@Z 0044d240 f   Gamelib:PlayerObject.obj
 0001:0004cc60       ?PlayFootfall@player@@IAEXM@Z 0044d3a0 f   Gamelib:PlayerObject.obj
 0001:0004d800       ?GetFootfallHeel@player@@SAPADH@Z 0044df40 f   Gamelib:PlayerObject.obj
 0001:0004d900       ?GetFootfallToe@player@@SAPADH@Z 0044e040 f   Gamelib:PlayerObject.obj
 0001:0004da00       ?GetFootfallLandSweetner@player@@SAPADH@Z 0044e140 f   Gamelib:PlayerObject.obj
 0001:0004db00       ?GetFootfallSlide@player@@SAPADH@Z 0044e240 f   Gamelib:PlayerObject.obj
 0001:0004dc00       ?IsAnimStateAvailable2@player@@QAEHW4inven_item@@W4animation_state@1@@Z 0044e340 f   Gamelib:PlayerObject.obj
 0001:0004dc30       ?StunPlayer@player@@UAEXXZ 0044e370 f   Gamelib:PlayerObject.obj
 0001:0004dc70       ?AddHealth@player@@UAEHM@Z 0044e3b0 f   Gamelib:PlayerObject.obj
 0001:0004dcc0       ?RenderSniperZoom@player@@QAEHXZ 0044e400 f   Gamelib:PlayerObject.obj
 0001:0004dd00       ?SetMutated@player@@UAEHH@Z 0044e440 f   Gamelib:PlayerObject.obj
 0001:0004dd80       ?SetupMutationChange@player@@UAEXH@Z 0044e4c0 f   Gamelib:PlayerObject.obj
 0001:0004e0b0       ?UpdateMutagen@player@@QAEXM@Z 0044e7f0 f   Gamelib:PlayerObject.obj
 0001:0004e2e0       ?GetPositionWithOffset@player@@UAE?ATvector3@@W4eOffsetPos@actor@@@Z 0044ea20 f   Gamelib:PlayerObject.obj
 0001:0004e490       ?AddMutagen@player@@UAEHABM@Z 0044ebd0 f   Gamelib:PlayerObject.obj
 0001:0004e530       ?GetL2W@player@@QBEABTmatrix4@@XZ 0044ec70 f   Gamelib:PlayerObject.obj
 0001:0004e5f0       ?GetLocalBBox@player@@UBE?AUbbox@@XZ 0044ed30 f   Gamelib:PlayerObject.obj
 0001:0004e6e0       ?GetColBBox@player@@UAE?AUbbox@@XZ 0044ee20 f   Gamelib:PlayerObject.obj
 0001:0004e7e0       ?OnColCheck@player@@UAEXXZ 0044ef20 f   Gamelib:PlayerObject.obj
 0001:0004e920       ?TakeFallPain@player@@UAEXXZ 0044f060 f   Gamelib:PlayerObject.obj
 0001:0004ea90       ?AddItemToInventory2@player@@UAEHW4inven_item@@@Z 0044f1d0 f   Gamelib:PlayerObject.obj
 0001:0004eb00       ?RemoveItemFromInventory2@player@@UAEHW4inven_item@@H@Z 0044f240 f   Gamelib:PlayerObject.obj
 0001:0004eb80       ?ItemAcquiredMessage@player@@QAEXW4inven_item@@@Z 0044f2c0 f   Gamelib:PlayerObject.obj
 0001:0004ec30       ?NoWeapon_NoAmmoPickupMessage@player@@QAEXW4inven_item@@@Z 0044f370 f   Gamelib:PlayerObject.obj
 0001:0004ece0       ?CanTakePickup@player@@QAEHAAVpickup@@@Z 0044f420 f   Gamelib:PlayerObject.obj
 0001:0004eef0       ?TakePickup@player@@QAEXAAVpickup@@@Z 0044f630 f   Gamelib:PlayerObject.obj
 0001:0004f300       ?OnPickup@player@@UAEHAAVpickup@@@Z 0044fa40 f   Gamelib:PlayerObject.obj
 0001:0004f360       ?GetStartWeaponsForLevel@@YAHPBD@Z 0044faa0 f   Gamelib:PlayerObject.obj
 0001:0004f3c0       ?GetEquipedWeaponForLevel@@YA?AW4inven_item@@PBD@Z 0044fb00 f   Gamelib:PlayerObject.obj
 0001:0004f420       ?DebugSetupInventory@player@@QAEXPBD@Z 0044fb60 f   Gamelib:PlayerObject.obj
 0001:0004f4e0       ?ReInitInventory@player@@QAEXXZ 0044fc20 f   Gamelib:PlayerObject.obj
 0001:0004f570       ?InitInventory@player@@UAEXXZ 0044fcb0 f   Gamelib:PlayerObject.obj
 0001:0004f5e0       ?IsAvatar@player@@QAEHXZ   0044fd20 f   Gamelib:PlayerObject.obj
 0001:0004f610       ?UsingLoco@player@@MAEHXZ  0044fd50 f   Gamelib:PlayerObject.obj
 0001:0004f620       ?ComputeSoftLean@@YAMM@Z   0044fd60 f   Gamelib:PlayerObject.obj
 0001:0004f6c0       ?ComputeLean@@YAMM@Z       0044fe00 f   Gamelib:PlayerObject.obj
 0001:0004f780       ?ComputeLeanValueForPosition@@YAMABTvector3@@0H@Z 0044fec0 f   Gamelib:PlayerObject.obj
 0001:0004f840       ?UpdateLean@player@@QAEXM@Z 0044ff80 f   Gamelib:PlayerObject.obj
 0001:0004fd90       ?GetLeanOffset@player@@IAE?ATvector3@@XZ 004504d0 f   Gamelib:PlayerObject.obj
 0001:0004ff90       ?UpdateArmsOffsetForLean@player@@QAEXXZ 004506d0 f   Gamelib:PlayerObject.obj
 0001:00050380       ?ManTurret@player@@QAEXUguid@@0000000@Z 00450ac0 f   Gamelib:PlayerObject.obj
 0001:000506e0       ?ExitTurret@player@@QAEXXZ 00450e20 f   Gamelib:PlayerObject.obj
 0001:000508a0       ?Teleport@player@@UAEXABTvector3@@HH@Z 00450fe0 f   Gamelib:PlayerObject.obj
 0001:00050a50       ?Teleport@player@@UAEXABTvector3@@MMHH@Z 00451190 f   Gamelib:PlayerObject.obj
 0001:00050d40       ?ForceNextWeapon@player@@IAEXXZ 00451480 f   Gamelib:PlayerObject.obj
 0001:00050e20       ?ForceMutationChange@player@@MAEXH@Z 00451560 f   Gamelib:PlayerObject.obj
 0001:00050e60       ?GetBonePos@player@@UAE?ATvector3@@H@Z 004515a0 f   Gamelib:PlayerObject.obj
 0001:00050ef0       ?ContagionDOT@player@@UAEXXZ 00451630 f   Gamelib:PlayerObject.obj
 0001:00051200       ??0?$object_ptr@Vcorpse@@@@QAE@ABUguid@@@Z 00451940 f i Gamelib:PlayerObject.obj
 0001:00051260       ??0?$object_ptr@Vprojector_obj@@@@QAE@ABUguid@@@Z 004519a0 f i Gamelib:PlayerObject.obj
 0001:000512b0       ?Append@?$xarray@Vpain@@@@QAEXABVpain@@@Z 004519f0 f i Gamelib:PlayerObject.obj
 0001:000513c0       ??4pain@@QAEAAV0@ABV0@@Z   00451b00 f i Gamelib:PlayerObject.obj
 0001:000515b0       ??0zone_info@playsurface_mgr@@QAE@XZ 00451cf0 f   Gamelib:PlaySurfaceMgr.obj
 0001:000515d0       ??1zone_info@playsurface_mgr@@QAE@XZ 00451d10 f   Gamelib:PlaySurfaceMgr.obj
 0001:000515e0       ?Unload@zone_info@playsurface_mgr@@QAEXXZ 00451d20 f   Gamelib:PlaySurfaceMgr.obj
 0001:00051640       ??0playsurface_mgr@@QAE@XZ 00451d80 f   Gamelib:PlaySurfaceMgr.obj
 0001:000516e0       ??1playsurface_mgr@@QAE@XZ 00451e20 f   Gamelib:PlaySurfaceMgr.obj
 0001:000517a0       ?Reset@playsurface_mgr@@QAEXXZ 00451ee0 f   Gamelib:PlaySurfaceMgr.obj
 0001:00051ac0       ?SurfaceCompareFn@@YAHPBX0@Z 00452200 f   Gamelib:PlaySurfaceMgr.obj
 0001:00051af0       ?UnloadZone@playsurface_mgr@@IAEXAAUzone_info@1@@Z 00452230 f   Gamelib:PlaySurfaceMgr.obj
 0001:00051b60       ?LoadZone@playsurface_mgr@@IAEXAAUzone_info@1@@Z 004522a0 f   Gamelib:PlaySurfaceMgr.obj
 0001:00051c00       ?LoadAllZones@playsurface_mgr@@QAEXXZ 00452340 f   Gamelib:PlaySurfaceMgr.obj
 0001:00051c40       ?CreateProxyPlaySurfaceObject@playsurface_mgr@@QAEXXZ 00452380 f   Gamelib:PlaySurfaceMgr.obj
 0001:00051c90       ?LoadBasicInfo@playsurface_mgr@@IAEXXZ 004523d0 f   Gamelib:PlaySurfaceMgr.obj
 0001:00051df0       ?ResolveSurfaceData@playsurface_mgr@@IAEXAAUzone_info@1@@Z 00452530 f   Gamelib:PlaySurfaceMgr.obj
 0001:00051fb0       ?RenderZone@playsurface_mgr@@IAEXAAUzone_info@1@EE@Z 004526f0 f   Gamelib:PlaySurfaceMgr.obj
 0001:000520e0       ?MarkLitPlaySurfaces@playsurface_mgr@@IAEXXZ 00452820 f   Gamelib:PlaySurfaceMgr.obj
 0001:000522b0       ?RenderPlaySurfaces@playsurface_mgr@@QAEXXZ 004529f0 f   Gamelib:PlaySurfaceMgr.obj
 0001:000523b0       ?ClearDBaseQueries@playsurface_mgr@@IAEXXZ 00452af0 f   Gamelib:PlaySurfaceMgr.obj
 0001:00052450       ?CollectSurfaces@playsurface_mgr@@QAEXABUbbox@@II@Z 00452b90 f   Gamelib:PlaySurfaceMgr.obj
 0001:000524b0       ?CollectSurfaces@playsurface_mgr@@QAEXABTvector3@@0II@Z 00452bf0 f   Gamelib:PlaySurfaceMgr.obj
 0001:00052510       ?GetNextSurface@playsurface_mgr@@QAEPAUsurface@1@XZ 00452c50 f   Gamelib:PlaySurfaceMgr.obj
 0001:00052550       ?SetCapacity@?$xarray@Uzone_info@playsurface_mgr@@@@QAEXH@Z 00452c90 f i Gamelib:PlaySurfaceMgr.obj
 0001:000526e0       ?SetCapacity@?$xarray@Ugeom_name@playsurface_mgr@@@@QAEXH@Z 00452e20 f i Gamelib:PlaySurfaceMgr.obj
 0001:00052750       ?NewState@perception_mgr@@QAEXW4perception_state@1@@Z 00452e90 f   Gamelib:PerceptionMgr.obj
 0001:00052770       ?Update@perception_mgr@@QAEXM@Z 00452eb0 f   Gamelib:PerceptionMgr.obj
 0001:000529c0       ?BeginMutate@perception_mgr@@QAEXXZ 00453100 f   Gamelib:PerceptionMgr.obj
 0001:000529e0       ??9vector3@@QBEHABT0@@Z    00453120 f i Gamelib:Corpse.obj
 0001:00052a20       ?SetAttrBits@object@@QAEXI@Z 00453160 f i Gamelib:Corpse.obj
 0001:00052a60       ?GetLODMask@geom@@QBE_KIG@Z 004531a0 f i Gamelib:Corpse.obj
 0001:00052b50       ?GetLODMask@render_inst@@QAE_KG@Z 00453290 f i Gamelib:Corpse.obj
 0001:00052b80       ?GetRTTI@net_proj@@SAABUrtti@@XZ 004532c0 f i Gamelib:Corpse.obj
 0001:00052be0       ?GetRTTI@character@@SAABUrtti@@XZ 00453320 f i Gamelib:Corpse.obj
 0001:00052c40       ?GetRTTI@base_projectile@@SAABUrtti@@XZ 00453380 f i Gamelib:Corpse.obj
 0001:00052ca0       ?CreateDecalFromRayCast@decal_mgr@@QAEXABUdecal_definition@@ABTvector3@@1@Z 004533e0 f i Gamelib:Corpse.obj
 0001:00052d10       ?GetObjectRTTI@corpse@@UBEABUrtti@@XZ 00453450 f i Gamelib:Corpse.obj
 0001:00052d20       ?GetMaterial@corpse@@UBEHXZ 00453460 f i Gamelib:Corpse.obj
 0001:00052d30       ?GetHealth@corpse@@UAEMXZ  00453470 f i Gamelib:Corpse.obj
 0001:00052d40       ?GetRenderInstPtr@corpse@@UAEPAVrender_inst@@XZ 00453480 f i Gamelib:Corpse.obj
 0001:00052d50       ?GetAnimGroupHandlePtr@corpse@@UAEPAU?$rhandle@Vanim_group@@@@XZ 00453490 f i Gamelib:Corpse.obj
 0001:00052d60       ?GetLogicalName@corpse@@UAEPBDXZ 004534a0 f i Gamelib:Corpse.obj
 0001:00052d70       ?Create@corpse_desc@@UAEPAVobject@@XZ 004534b0 f i Gamelib:Corpse.obj
 0001:00052d90       ?GetTypeDesc@corpse@@UBEABVobject_desc@@XZ 004534d0 f   Gamelib:Corpse.obj
 0001:00052da0       ??0corpse@@QAE@XZ          004534e0 f   Gamelib:Corpse.obj
 0001:00052fb0       ??_Ecorpse@@UAEPAXI@Z      004536f0 f i Gamelib:Corpse.obj
 0001:00052fb0       ??_Gcorpse@@UAEPAXI@Z      004536f0 f i Gamelib:Corpse.obj
 0001:00053010       ?OnKill@corpse@@UAEXXZ     00453750 f   Gamelib:Corpse.obj
 0001:00053040       ?OnMove@corpse@@UAEXABTvector3@@@Z 00453780 f   Gamelib:Corpse.obj
 0001:00053130       ?OnTransform@corpse@@UAEXABTmatrix4@@@Z 00453870 f   Gamelib:Corpse.obj
 0001:000531c0       ?GetLocalBBox@corpse@@UBE?AUbbox@@XZ 00453900 f   Gamelib:Corpse.obj
 0001:000532c0       ?LimitCount@corpse@@SAXXZ  00453a00 f   Gamelib:Corpse.obj
 0001:00053410       ?Initialize@corpse@@QAEHAAVactor@@HPAVactor_effects@@@Z 00453b50 f   Gamelib:Corpse.obj
 0001:00053660       ??4floor_properties@@QAEAAV0@ABV0@@Z 00453da0 f i Gamelib:Corpse.obj
 0001:000536f0       ?Initialize@corpse@@QAEHPBD00H@Z 00453e30 f   Gamelib:Corpse.obj
 0001:000539a0       ?InitializeEditorPlaced@corpse@@QAEHXZ 004540e0 f   Gamelib:Corpse.obj
 0001:00053b30       ?OnRenderShadowCast@corpse@@UAEX_K@Z 00454270 f   Gamelib:Corpse.obj
 0001:00053bb0       ?OnRender@corpse@@UAEXXZ   004542f0 f   Gamelib:Corpse.obj
 0001:00053c80       ?OnRenderTransparent@corpse@@UAEXXZ 004543c0 f   Gamelib:Corpse.obj
 0001:00053d00       ?OnAdvanceLogic@corpse@@UAEXM@Z 00454440 f   Gamelib:Corpse.obj
 0001:000540a0       ?OnActivate@corpse@@UAEXH@Z 004547e0 f   Gamelib:Corpse.obj
 0001:000540d0       ?CreateSplatDecalOnGround@corpse@@QAEXXZ 00454810 f   Gamelib:Corpse.obj
 0001:000542b0       ?CreateImpactEffect@corpse@@QAEXABVpain@@@Z 004549f0 f   Gamelib:Corpse.obj
 0001:00054350       ?OnPain@corpse@@UAEXABVpain@@@Z 00454a90 f   Gamelib:Corpse.obj
 0001:00054420       ?OnColCheck@corpse@@UAEXXZ 00454b60 f   Gamelib:Corpse.obj
 0001:000544c0       ?ChangeObjectGuid@corpse@@QAEXUguid@@@Z 00454c00 f   Gamelib:Corpse.obj
 0001:000544e0       ?OnEnumProp@corpse@@MAEXAAVprop_enum@@@Z 00454c20 f   Gamelib:Corpse.obj
 0001:00054650       ?OnProperty@corpse@@MAEHAAVprop_query@@@Z 00454d90 f   Gamelib:Corpse.obj
 0001:00054ae0       ?GetEnumStringCorpse@corpse@@QAE?AVxstring@@XZ 00455220 f   Gamelib:Corpse.obj
 0001:00054be0       ?NameToEnum@corpse@@QAE?AW4eCorpseName@@PBD@Z 00455320 f   Gamelib:Corpse.obj
 0001:00054c40       ??0?$object_ptr@Vactor@@@@QAE@ABUguid@@@Z 00455380 f i Gamelib:Corpse.obj
 0001:00054ca0       ?RotateX@vector3@@QAEXM@Z  004553e0 f i Gamelib:AlienGlob.obj
 0001:00054d00       ?Random@xcolor@@QAEXE@Z    00455440 f i Gamelib:AlienGlob.obj
 0001:00054db0       ?GetRTTI@alien_glob@@SAABUrtti@@XZ 004554f0 f i Gamelib:AlienGlob.obj
 0001:00054e10       ?GetObjectRTTI@alien_glob@@UBEABUrtti@@XZ 00455550 f i Gamelib:AlienGlob.obj
 0001:00054e20       ?GetRTTI@group@@SAABUrtti@@XZ 00455560 f i Gamelib:AlienGlob.obj
 0001:00054e80       ?GetRTTI@debris_meson_explosion@@SAABUrtti@@XZ 004555c0 f i Gamelib:AlienGlob.obj
 0001:00054e80       ?GetObjectRTTI@debris_meson_explosion@@UBEABUrtti@@XZ 004555c0 f i Gamelib:debris_meson_lash.obj
 0001:00054eb0       ?Create@alien_glob_desc@@UAEPAVobject@@XZ 004555f0 f i Gamelib:AlienGlob.obj
 0001:00054ed0       ?GetTypeDesc@alien_glob@@UBEABVobject_desc@@XZ 00455610 f   Gamelib:AlienGlob.obj
 0001:00054ee0       ??0alien_glob_mgr@@QAE@XZ  00455620 f   Gamelib:AlienGlob.obj
 0001:00055350       ?Advance@alien_glob_mgr@@QAEXM@Z 00455a90 f   Gamelib:AlienGlob.obj
 0001:000553f0       ?RequestAudio@alien_glob_mgr@@QAEXPAValien_glob@@W4glob_audio@1@@Z 00455b30 f   Gamelib:AlienGlob.obj
 0001:00055660       ??0alien_glob@@QAE@XZ      00455da0 f   Gamelib:AlienGlob.obj
 0001:00055a00       ??_Ealien_glob@@UAEPAXI@Z  00456140 f i Gamelib:AlienGlob.obj
 0001:00055a00       ??_Galien_glob@@UAEPAXI@Z  00456140 f i Gamelib:AlienGlob.obj
 0001:00055a50       ?GetLocalBBox@alien_glob@@UBE?AUbbox@@XZ 00456190 f   Gamelib:AlienGlob.obj
 0001:00055a50       ?GetLocalBBox@simple_sound_emitter@@UBE?AUbbox@@XZ 00456190 f   Gamelib:SimpleSoundEmitter.obj
 0001:00055aa0       ?OnAdvanceLogic@alien_glob@@UAEXM@Z 004561e0 f   Gamelib:AlienGlob.obj
 0001:00055be0       ?UpdateInAir@alien_glob@@QAEHXZ 00456320 f   Gamelib:AlienGlob.obj
 0001:00055d20       ?UpdateIdleAI@alien_glob@@QAEHXZ 00456460 f   Gamelib:AlienGlob.obj
 0001:00055f30       ?UpdateAI@alien_glob@@QAEHXZ 00456670 f   Gamelib:AlienGlob.obj
 0001:00056370       ?SetupAttackData@alien_glob@@IAEXXZ 00456ab0 f   Gamelib:AlienGlob.obj
 0001:000563d0       ?GetAttackDestination@alien_glob@@IAE?ATvector3@@XZ 00456b10 f   Gamelib:AlienGlob.obj
 0001:00056470       ?UpdatePhysics@alien_glob@@QAEXXZ 00456bb0 f   Gamelib:AlienGlob.obj
 0001:00056680       ?UpdateCollision@alien_glob@@QAEXXZ 00456dc0 f   Gamelib:AlienGlob.obj
 0001:00056980       ?UpdateRenderPosition@alien_glob@@QAEXXZ 004570c0 f   Gamelib:AlienGlob.obj
 0001:00056b00       ?BackupOldVelocities@alien_glob@@QAEXXZ 00457240 f   Gamelib:AlienGlob.obj
 0001:00056b30       ?CalculateNewVelocities@alien_glob@@QAEXXZ 00457270 f   Gamelib:AlienGlob.obj
 0001:00056c50       ?Scatter@alien_glob@@QAEXABTvector3@@HH@Z 00457390 f   Gamelib:AlienGlob.obj
 0001:000572d0       ?Jump@alien_glob@@QAEXABTvector3@@HH@Z 00457a10 f   Gamelib:AlienGlob.obj
 0001:00057ce0       ?Land@alien_glob@@QAEXABTvector3@@0Uguid@@H@Z 00458420 f   Gamelib:AlienGlob.obj
 0001:00057f50       ?OnPain@alien_glob@@UAEXABVpain@@@Z 00458690 f   Gamelib:AlienGlob.obj
 0001:00057ff0       ?OnColCheck@alien_glob@@UAEXXZ 00458730 f   Gamelib:AlienGlob.obj
 0001:00058090       ?OnMove@alien_glob@@UAEXABTvector3@@@Z 004587d0 f   Gamelib:AlienGlob.obj
 0001:00058230       ?OnTransform@alien_glob@@UAEXABTmatrix4@@@Z 00458970 f   Gamelib:AlienGlob.obj
 0001:000582b0       ?UpdateColor@alien_glob@@QAEXXZ 004589f0 f   Gamelib:AlienGlob.obj
 0001:00058410       ?OnRenderTransparent@alien_glob@@UAEXXZ 00458b50 f   Gamelib:AlienGlob.obj
 0001:00058630       ?OnEnumProp@alien_glob@@UAEXAAVprop_enum@@@Z 00458d70 f   Gamelib:AlienGlob.obj
 0001:00058700       ?OnProperty@alien_glob@@UAEHAAVprop_query@@@Z 00458e40 f   Gamelib:AlienGlob.obj
 0001:00058a30       ?GetLogicalName@alien_glob@@UAEPBDXZ 00459170 f   Gamelib:AlienGlob.obj
 0001:00058a50       ?OnActivate@alien_glob@@UAEXH@Z 00459190 f   Gamelib:AlienGlob.obj
 0001:00058a80       ?OnAddedToGroup@alien_glob@@UAEXUguid@@@Z 004591c0 f   Gamelib:AlienGlob.obj
 0001:00058aa0       ?SetStage@alien_glob@@QAEXH@Z 004591e0 f   Gamelib:AlienGlob.obj
 0001:00058c60       ?StartEndOfLife@alien_glob@@IAEXW4endoflife@1@@Z 004593a0 f   Gamelib:AlienGlob.obj
 0001:00058d40       ?OnThink@alien_glob@@QAEXM@Z 00459480 f   Gamelib:AlienGlob.obj
 0001:00059020       ??0?$object_ptr@Vactor@@@@QAE@PAVobject@@@Z 00459760 f i Gamelib:AlienGlob.obj
 0001:00059080       ??0?$object_ptr@Vdebris_meson_explosion@@@@QAE@ABUguid@@@Z 004597c0 f i Gamelib:AlienGlob.obj
 0001:000590d0       ??0?$object_ptr@Vgroup@@@@QAE@ABUguid@@@Z 00459810 f i Gamelib:AlienGlob.obj
 0001:00059120       ??0?$object_ptr@Valien_glob@@@@QAE@ABUguid@@@Z 00459860 f i Gamelib:AlienGlob.obj
 0001:00059180       ?TurnAttrBitsOn@object@@QAEXI@Z 004598c0 f i Gamelib:TriggerEx_Object.obj
 0001:000591c0       ?GetObjectRTTI@trigger_ex_object@@UBEABUrtti@@XZ 00459900 f i Gamelib:TriggerEx_Object.obj
 0001:000591d0       ?IsActive@trigger_ex_object@@UAEHXZ 00459910 f i Gamelib:TriggerEx_Object.obj
 0001:000591e0       ?GetRTTI@trigger_meta_base@@SAABUrtti@@XZ 00459920 f i Gamelib:TriggerEx_Object.obj
 0001:00059240       ?GetObjectRTTI@trigger_meta_label@@UBEABUrtti@@XZ 00459980 f i Gamelib:trigger_meta_label.obj
 0001:00059240       ?GetRTTI@trigger_meta_label@@SAABUrtti@@XZ 00459980 f i Gamelib:TriggerEx_Object.obj
 0001:00059270       ?GetRTTI@action_ai_base@@SAABUrtti@@XZ 004599b0 f i Gamelib:TriggerEx_Object.obj
 0001:000592d0       ?OnEnumProp@trigger_ex_object_desc@@UAEXAAVprop_enum@@@Z 00459a10 f i Gamelib:TriggerEx_Object.obj
 0001:00059310       ?OnProperty@trigger_ex_object_desc@@UAEHAAVprop_query@@@Z 00459a50 f i Gamelib:TriggerEx_Object.obj
 0001:00059370       ?Create@trigger_ex_object_desc@@UAEPAVobject@@XZ 00459ab0 f i Gamelib:TriggerEx_Object.obj
 0001:00059390       ?GetTypeDesc@trigger_ex_object@@UBEABVobject_desc@@XZ 00459ad0 f   Gamelib:TriggerEx_Object.obj
 0001:000593a0       ??0trigger_ex_object@@QAE@XZ 00459ae0 f   Gamelib:TriggerEx_Object.obj
 0001:00059550       ??_Gtrigger_ex_object@@UAEPAXI@Z 00459c90 f i Gamelib:TriggerEx_Object.obj
 0001:00059550       ??_Etrigger_ex_object@@UAEPAXI@Z 00459c90 f i Gamelib:TriggerEx_Object.obj
 0001:00059580       ??1trigger_ex_object@@UAE@XZ 00459cc0 f   Gamelib:TriggerEx_Object.obj
 0001:000595f0       ?OnInit@trigger_ex_object@@MAEXXZ 00459d30 f   Gamelib:TriggerEx_Object.obj
 0001:00059660       ?PreUpdateState@trigger_ex_object@@IAEXXZ 00459da0 f   Gamelib:TriggerEx_Object.obj
 0001:000596c0       ?OnKill@trigger_ex_object@@MAEXXZ 00459e00 f   Gamelib:TriggerEx_Object.obj
 0001:000596d0       ?ReleaseBlocking@trigger_ex_object@@QAEXXZ 00459e10 f   Gamelib:TriggerEx_Object.obj
 0001:00059770       ?GetLocalBBox@trigger_ex_object@@UBE?AUbbox@@XZ 00459eb0 f   Gamelib:TriggerEx_Object.obj
 0001:00059890       ?OnRender@trigger_ex_object@@MAEXXZ 00459fd0 f   Gamelib:TriggerEx_Object.obj
 0001:000598d0       ?OnColCheck@trigger_ex_object@@UAEXXZ 0045a010 f   Gamelib:TriggerEx_Object.obj
 0001:000599b0       ?OnColNotify@trigger_ex_object@@UAEXAAVobject@@@Z 0045a0f0 f   Gamelib:TriggerEx_Object.obj
 0001:00059c10       ?ActivateSpatialTrigger@trigger_ex_object@@IAEXXZ 0045a350 f   Gamelib:TriggerEx_Object.obj
 0001:00059c60       ?DeactivateSpatialTrigger@trigger_ex_object@@IAEXXZ 0045a3a0 f   Gamelib:TriggerEx_Object.obj
 0001:00059c80       ?OnEnumProp@trigger_ex_object@@UAEXAAVprop_enum@@@Z 0045a3c0 f   Gamelib:TriggerEx_Object.obj
 0001:00059e00       ?OnProperty@trigger_ex_object@@UAEHAAVprop_query@@@Z 0045a540 f   Gamelib:TriggerEx_Object.obj
 0001:0005a2c0       ?EnumPropSpatial@trigger_ex_object@@IAEXAAVprop_enum@@@Z 0045aa00 f   Gamelib:TriggerEx_Object.obj
 0001:0005a3c0       ?OnPropertySpatial@trigger_ex_object@@IAEHAAVprop_query@@@Z 0045ab00 f   Gamelib:TriggerEx_Object.obj
 0001:0005a680       ?SetTriggerState@trigger_ex_object@@IAEXW4trigger_ex_state@1@@Z 0045adc0 f   Gamelib:TriggerEx_Object.obj
 0001:0005a7f0       ?OnMove@trigger_ex_object@@UAEXABTvector3@@@Z 0045af30 f   Gamelib:TriggerEx_Object.obj
 0001:0005a830       ?KillTrigger@trigger_ex_object@@QAEXXZ 0045af70 f   Gamelib:TriggerEx_Object.obj
 0001:0005a890       ?ExecuteLogic@trigger_ex_object@@MAEXM@Z 0045afd0 f   Gamelib:TriggerEx_Object.obj
 0001:0005aa30       ?LogicCheckOnActivate@trigger_ex_object@@QAEXXZ 0045b170 f   Gamelib:TriggerEx_Object.obj
 0001:0005aab0       ?ExecuteSleeping@trigger_ex_object@@IAEXM@Z 0045b1f0 f   Gamelib:TriggerEx_Object.obj
 0001:0005aae0       ?ExecuteChecking@trigger_ex_object@@IAEXM@Z 0045b220 f   Gamelib:TriggerEx_Object.obj
 0001:0005abd0       ?ExecuteRecovery@trigger_ex_object@@IAEXM@Z 0045b310 f   Gamelib:TriggerEx_Object.obj
 0001:0005ac80       ?ExecuteDelaying@trigger_ex_object@@IAEXM@Z 0045b3c0 f   Gamelib:TriggerEx_Object.obj
 0001:0005ad10       ?AddAction@trigger_ex_object@@IAEHW4action_ex_types@actions_ex_base@@HH@Z 0045b450 f   Gamelib:TriggerEx_Object.obj
 0001:0005add0       ?EnumPropActions@trigger_ex_object@@IAEXAAVprop_enum@@@Z 0045b510 f   Gamelib:TriggerEx_Object.obj
 0001:0005aea0       ?EnumPropElseActions@trigger_ex_object@@IAEXAAVprop_enum@@@Z 0045b5e0 f   Gamelib:TriggerEx_Object.obj
 0001:0005afa0       ?OnPropertyActions@trigger_ex_object@@IAEHAAVprop_query@@@Z 0045b6e0 f   Gamelib:TriggerEx_Object.obj
 0001:0005b200       ?SetTriggerActionIndexToLabel@trigger_ex_object@@QAEHPBD@Z 0045b940 f   Gamelib:TriggerEx_Object.obj
 0001:0005b3b0       ?GetValidLabels@trigger_ex_object@@QAEXHPAD@Z 0045baf0 f   Gamelib:TriggerEx_Object.obj
 0001:0005b620       ?ExecuteAllActions@trigger_ex_object@@IAEXXZ 0045bd60 f   Gamelib:TriggerEx_Object.obj
 0001:0005b670       ?EnumPropDynamic@trigger_ex_object@@IAEXAAVprop_enum@@@Z 0045bdb0 f   Gamelib:TriggerEx_Object.obj
 0001:0005b700       ?OnPropertyDynamic@trigger_ex_object@@IAEHAAVprop_query@@@Z 0045be40 f   Gamelib:TriggerEx_Object.obj
 0001:0005b850       ?OnActivate@trigger_ex_object@@UAEXH@Z 0045bf90 f   Gamelib:TriggerEx_Object.obj
 0001:0005b920       ?QueryPlayerInVolume@trigger_ex_object@@IAEHXZ 0045c060 f   Gamelib:TriggerEx_Object.obj
 0001:0005b970       ?QueryNpcInVolume@trigger_ex_object@@IAEHXZ 0045c0b0 f   Gamelib:TriggerEx_Object.obj
 0001:0005b9f0       ?QueryBulletInVolume@trigger_ex_object@@IAEHXZ 0045c130 f   Gamelib:TriggerEx_Object.obj
 0001:0005ba40       ?QueryObjectInVolume@trigger_ex_object@@MAEHPAVobject@@@Z 0045c180 f   Gamelib:TriggerEx_Object.obj
 0001:0005bb70       ?ForceStartTrigger@trigger_ex_object@@QAEXXZ 0045c2b0 f   Gamelib:TriggerEx_Object.obj
 0001:0005bbd0       ?OnAdvanceLogic@trigger_ex_object@@MAEXM@Z 0045c310 f   Gamelib:TriggerEx_Object.obj
 0001:0005be40       ?ExecuteIndividualAction@trigger_ex_object@@IAEHPAVactions_ex_base@@HM@Z 0045c580 f   Gamelib:TriggerEx_Object.obj
 0001:0005bed0       ?DumpData@trigger_ex_object@@QAEXPAI@Z 0045c610 f   Gamelib:TriggerEx_Object.obj
 0001:0005c0c0       ?Set@?$simple_string@$0CA@@@QAEXPBD@Z 0045c800 f i Gamelib:TriggerEx_Object.obj
 0001:0005c0f0       ??0?$enum_table@W4anims_type@skin_prop_surface@@@@QAE@PAV?$enum_pair@W4anims_type@skin_prop_surface@@@@@Z 0045c830 f i Gamelib:SkinPropSurface.obj
 0001:0005c0f0       ??0?$enum_table@W4generic_pain_type@@@@QAE@PAV?$enum_pair@W4generic_pain_type@@@@@Z 0045c830 f i Gamelib:PainMgr.obj
 0001:0005c0f0       ??0?$enum_table@W4particle_logic_type@particle_emitter@@@@QAE@PAV?$enum_pair@W4particle_logic_type@particle_emitter@@@@@Z 0045c830 f i Gamelib:ParticleEmiter.obj
 0001:0005c0f0       ??0?$enum_table@W4trigger_ex_spatial_activation_bullet_types@trigger_ex_object@@@@QAE@PAV?$enum_pair@W4trigger_ex_spatial_activation_bullet_types@trigger_ex_object@@@@@Z 0045c830 f i Gamelib:TriggerEx_Object.obj
 0001:0005c0f0       ??0?$enum_table@W4action_ex_types@actions_ex_base@@@@QAE@PAV?$enum_pair@W4action_ex_types@actions_ex_base@@@@@Z 0045c830 f i Gamelib:TriggerEx_Actions.obj
 0001:0005c0f0       ??0?$enum_table@W4eDialogActors@character@@@@QAE@PAV?$enum_pair@W4eDialogActors@character@@@@@Z 0045c830 f i Gamelib:Character.obj
 0001:0005c0f0       ??0?$enum_table@W4char_states_to_transition_to@character_task_set@@@@QAE@PAV?$enum_pair@W4char_states_to_transition_to@character_task_set@@@@@Z 0045c830 f i Gamelib:character_task_set.obj
 0001:0005c0f0       ??0?$enum_table@W4codes@condition_check_global@@@@QAE@PAV?$enum_pair@W4codes@condition_check_global@@@@@Z 0045c830 f i Gamelib:condition_check_global.obj
 0001:0005c0f0       ??0?$enum_table@W4hit_location_type@action_object_damage@@@@QAE@PAV?$enum_pair@W4hit_location_type@action_object_damage@@@@@Z 0045c830 f i Gamelib:action_object_damage.obj
 0001:0005c0f0       ??0?$enum_table@H@@QAE@PAV?$enum_pair@H@@@Z 0045c830 f i Gamelib:Corpse.obj
 0001:0005c0f0       ??0?$enum_table@W4feedback_emitter_spatial_types@feedback_emitter@@@@QAE@PAV?$enum_pair@W4feedback_emitter_spatial_types@feedback_emitter@@@@@Z 0045c830 f i Gamelib:feedbackemitter.obj
 0001:0005c0f0       ??0?$enum_table@W4trigger_ex_spatial_types@trigger_ex_object@@@@QAE@PAV?$enum_pair@W4trigger_ex_spatial_types@trigger_ex_object@@@@@Z 0045c830 f i Gamelib:TriggerEx_Object.obj
 0001:0005c0f0       ??0?$enum_table@W4particle_endroutine_type@particle_emitter@@@@QAE@PAV?$enum_pair@W4particle_endroutine_type@particle_emitter@@@@@Z 0045c830 f i Gamelib:ParticleEmiter.obj
 0001:0005c0f0       ??0?$enum_table@W4damage_field_spatial_types@damage_field@@@@QAE@PAV?$enum_pair@W4damage_field_spatial_types@damage_field@@@@@Z 0045c830 f i Gamelib:DamageField.obj
 0001:0005c0f0       ??0?$enum_table@W4type@mutanttank_attack_state@@@@QAE@PAV?$enum_pair@W4type@mutanttank_attack_state@@@@@Z 0045c830 f i Gamelib:MutantTank_Attack_State.obj
 0001:0005c0f0       ??0?$enum_table@W4particle_visibility_type@particle_emitter@@@@QAE@PAV?$enum_pair@W4particle_visibility_type@particle_emitter@@@@@Z 0045c830 f i Gamelib:ParticleEmiter.obj
 0001:0005c0f0       ??0?$enum_table@W4trigger_ex_spatial_activation_response@trigger_ex_object@@@@QAE@PAV?$enum_pair@W4trigger_ex_spatial_activation_response@trigger_ex_object@@@@@Z 0045c830 f i Gamelib:TriggerEx_Object.obj
 0001:0005c0f0       ??0?$enum_table@W4trigger_ex_spatial_activation_types@trigger_ex_object@@@@QAE@PAV?$enum_pair@W4trigger_ex_spatial_activation_types@trigger_ex_object@@@@@Z 0045c830 f i Gamelib:TriggerEx_Object.obj
 0001:0005c0f0       ??0?$enum_table@W4eCoverDesire@character_attack_state@@@@QAE@PAV?$enum_pair@W4eCoverDesire@character_attack_state@@@@@Z 0045c830 f i Gamelib:Character_Attack_State.obj
 0001:0005c0f0       ??0?$enum_table@W4factions@@@@QAE@PAV?$enum_pair@W4factions@@@@@Z 0045c830 f i Gamelib:factions.obj
 0001:0005c0f0       ??0?$enum_table@W4handle_commands@character_task@@@@QAE@PAV?$enum_pair@W4handle_commands@character_task@@@@@Z 0045c830 f i Gamelib:character_task_set.obj
 0001:0005c0f0       ??0?$enum_table@W4conditional_ex_types@conditional_ex_base@@@@QAE@PAV?$enum_pair@W4conditional_ex_types@conditional_ex_base@@@@@Z 0045c830 f i Gamelib:TriggerEx_Conditionals.obj
 0001:0005c0f0       ??0?$enum_table@W4property_compare_modes@condition_check_property@@@@QAE@PAV?$enum_pair@W4property_compare_modes@condition_check_property@@@@@Z 0045c830 f i Gamelib:condition_check_property.obj
 0001:0005c160       ??0server_info@@QAE@XZ     0045c8a0 f i Gamelib:GameConfig.obj
 0001:0005c1a0       ?SetLevelID@game_config@@QAEHH@Z 0045c8e0 f   Gamelib:GameConfig.obj
 0001:0005c1f0       ?SetGameTypeID@game_config@@QAEXW4game_type@@@Z 0045c930 f   Gamelib:GameConfig.obj
 0001:0005c4d0       ?SetShortGameType@game_config@@QAEXPBG@Z 0045cc10 f   Gamelib:GameConfig.obj
 0001:0005c4f0       ?SetGameType@game_config@@QAEXPBG@Z 0045cc30 f   Gamelib:GameConfig.obj
 0001:0005c510       ?SetVoiceEnabled@game_config@@QAEXH@Z 0045cc50 f   Gamelib:GameConfig.obj
 0001:0005c540       ?SetPrivateServer@game_config@@QAEXH@Z 0045cc80 f   Gamelib:GameConfig.obj
 0001:0005c570       ?SetServerName@game_config@@QAEXPBG@Z 0045ccb0 f   Gamelib:GameConfig.obj
 0001:0005c590       ?DisplayMessage@game_text_mgr@@QAEXPBD0@Z 0045ccd0 f   Gamelib:GameTextMgr.obj
 0001:0005c7e0       ?Update@game_text_mgr@@QAEXM@Z 0045cf20 f   Gamelib:GameTextMgr.obj
 0001:0005c8b0       ??0collision_shape@@QAE@XZ 0045cff0 f i Gamelib:PhysicsMgr.obj
 0001:0005c8e0       ??1collision_shape@@QAE@XZ 0045d020 f i Gamelib:PhysicsMgr.obj
 0001:0005c900       ?GetState@rigid_body@@QBEXAAUstate@1@@Z 0045d040 f i Gamelib:PhysicsMgr.obj
 0001:0005c950       ?ApplyLocalImpulse@rigid_body@@QAEXABTvector3@@0@Z 0045d090 f i Gamelib:PhysicsMgr.obj
 0001:0005cac0       ?collision_sort_lo_to_hi@@YAHPBX0@Z 0045d200 f   Gamelib:PhysicsMgr.obj
 0001:0005caf0       ??0physics_mgr@@QAE@XZ     0045d230 f   Gamelib:PhysicsMgr.obj
 0001:0005cca0       ?Init@physics_mgr@@QAEXXZ  0045d3e0 f   Gamelib:PhysicsMgr.obj
 0001:0005ce30       ?RemoveInstance@physics_mgr@@QAEXPAVphysics_inst@@@Z 0045d570 f   Gamelib:PhysicsMgr.obj
 0001:0005cf30       ?WakeupInstance@physics_mgr@@QAEXPAVphysics_inst@@@Z 0045d670 f   Gamelib:PhysicsMgr.obj
 0001:0005cff0       ?PutToSleepInstance@physics_mgr@@QAEXPAVphysics_inst@@@Z 0045d730 f   Gamelib:PhysicsMgr.obj
 0001:0005d090       ?CollisionWakeupInstance@physics_mgr@@QAEXPAVphysics_inst@@@Z 0045d7d0 f   Gamelib:PhysicsMgr.obj
 0001:0005d120       ?AddCollision@physics_mgr@@QAEHPAVrigid_body@@0ABTvector3@@1ABM@Z 0045d860 f   Gamelib:PhysicsMgr.obj
 0001:0005d2c0       ?DetectWorldCollisions@physics_mgr@@QAEXPAVphysics_inst@@@Z 0045da00 f   Gamelib:PhysicsMgr.obj
 0001:0005d320       ?DetectSelfCollisions@physics_mgr@@QAEXPAVphysics_inst@@@Z 0045da60 f   Gamelib:PhysicsMgr.obj
 0001:0005d4d0       ?DetectInstInstCollisions@physics_mgr@@QAEXPAVphysics_inst@@@Z 0045dc10 f   Gamelib:PhysicsMgr.obj
 0001:0005d940       ?DetectInstActorCollisions@physics_mgr@@QAEXPAVphysics_inst@@@Z 0045e080 f   Gamelib:PhysicsMgr.obj
 0001:0005dbe0       ?DetectCollisions@physics_mgr@@QAEXXZ 0045e320 f   Gamelib:PhysicsMgr.obj
 0001:0005dca0       ?PreApplyCollisions@physics_mgr@@QAEXM@Z 0045e3e0 f   Gamelib:PhysicsMgr.obj
 0001:0005e050       ?SolveCollision@physics_mgr@@QAEHAAUcollision@1@@Z 0045e790 f   Gamelib:PhysicsMgr.obj
 0001:0005e860       ?PreApplyConstraints@physics_mgr@@QAEXM@Z 0045efa0 f   Gamelib:PhysicsMgr.obj
 0001:0005e900       ?SolveCollisions@physics_mgr@@QAEXMH@Z 0045f040 f   Gamelib:PhysicsMgr.obj
 0001:0005ea30       ?SolveContacts@physics_mgr@@QAEXMH@Z 0045f170 f   Gamelib:PhysicsMgr.obj
 0001:0005ebf0       ?ShockPropagation@physics_mgr@@QAEXXZ 0045f330 f   Gamelib:PhysicsMgr.obj
 0001:0005ef00       ?PutInstancesToSleep@physics_mgr@@QAEXM@Z 0045f640 f   Gamelib:PhysicsMgr.obj
 0001:0005f0d0       ?BuildActiveBodyList@physics_mgr@@QAEXXZ 0045f810 f   Gamelib:PhysicsMgr.obj
 0001:0005f170       ?BuildActiveBodyAndConstraintList@physics_mgr@@QAEXXZ 0045f8b0 f   Gamelib:PhysicsMgr.obj
 0001:0005f380       ?Step@physics_mgr@@QAEXM@Z 0045fac0 f   Gamelib:PhysicsMgr.obj
 0001:0005f5a0       ?Advance@physics_mgr@@QAEXM@Z 0045fce0 f   Gamelib:PhysicsMgr.obj
 0001:0005f620       ?SetCapacity@?$xarray@Tmatrix4@@@@QAEXH@Z 0045fd60 f i Gamelib:PhysicsInst.obj
 0001:0005f620       ?SetCapacity@?$xarray@Usphere@collision_shape@@@@QAEXH@Z 0045fd60 f i Gamelib:PhysicsMgr.obj
 0001:0005f6a0       ?Append@?$xarray@Vactive_constraint@@@@QAEAAVactive_constraint@@XZ 0045fde0 f i Gamelib:PhysicsMgr.obj
 0001:0005f730       ?SetCapacity@?$xarray@Vactive_constraint@@@@QAEXH@Z 0045fe70 f i Gamelib:PhysicsMgr.obj
 0001:0005f7b0       ?Append@?$xarray@Ucollision@physics_mgr@@@@QAEAAUcollision@physics_mgr@@XZ 0045fef0 f i Gamelib:PhysicsMgr.obj
 0001:0005f840       ?SetCapacity@?$xarray@Ucollision@physics_mgr@@@@QAEXH@Z 0045ff80 f i Gamelib:PhysicsMgr.obj
 0001:0005f8c0       ??0active_constraint@@QAE@XZ 00460000 f i Gamelib:PhysicsMgr.obj
 0001:0005f8d0       ?Rotate@matrix4@@QAEXABUradian3@@@Z 00460010 f i Gamelib:Obj_Mgr.obj
 0001:0005f950       ?Intersect@bbox@@QBEHAAMABTvector3@@1@Z 00460090 f i Gamelib:Obj_Mgr.obj
 0001:0005fb60       ??0obj_mgr@@QAE@XZ         004602a0 f   Gamelib:Obj_Mgr.obj
 0001:0005fd50       ??1obj_mgr@@QAE@XZ         00460490 f   Gamelib:Obj_Mgr.obj
 0001:0005fe00       ?Init@obj_mgr@@QAEXXZ      00460540 f   Gamelib:Obj_Mgr.obj
 0001:00060070       ?AddSlotToZone@obj_mgr@@QAEXG@Z 004607b0 f   Gamelib:Obj_Mgr.obj
 0001:00060120       ?AddSlotToRenderable@obj_mgr@@QAEXG@Z 00460860 f   Gamelib:Obj_Mgr.obj
 0001:000601d0       ?RemoveSlotFromZone@obj_mgr@@QAEXG@Z 00460910 f   Gamelib:Obj_Mgr.obj
 0001:000602e0       ?RemoveSlotFromRenderable@obj_mgr@@QAEXG@Z 00460a20 f   Gamelib:Obj_Mgr.obj
 0001:000603f0       ?AllocSlot@obj_mgr@@IAEGXZ 00460b30 f   Gamelib:Obj_Mgr.obj
 0001:00060480       ?CreateObject@obj_mgr@@IAEPAVobject@@ABVobject_desc@@G@Z 00460bc0 f   Gamelib:Obj_Mgr.obj
 0001:00060640       ?CreateObject@obj_mgr@@QAEXABVobject_desc@@Uguid@@@Z 00460d80 f   Gamelib:Obj_Mgr.obj
 0001:00060720       ?CreateObject@obj_mgr@@QAE?AUguid@@ABVobject_desc@@@Z 00460e60 f   Gamelib:Obj_Mgr.obj
 0001:00060790       ?CreateObject@obj_mgr@@QAE?AUguid@@PBD@Z 00460ed0 f   Gamelib:Obj_Mgr.obj
 0001:000607e0       ?CreateObject@obj_mgr@@QAEXPBDUguid@@@Z 00460f20 f   Gamelib:Obj_Mgr.obj
 0001:000608d0       ?ChangeObjectGuid@obj_mgr@@QAEXUguid@@0@Z 00461010 f   Gamelib:Obj_Mgr.obj
 0001:00060950       ?GetSlotFromGuid@obj_mgr@@QAEGUguid@@@Z 00461090 f   Gamelib:Obj_Mgr.obj
 0001:00060980       ?UnlinkAndFreeObject@obj_mgr@@IAEXG@Z 004610c0 f   Gamelib:Obj_Mgr.obj
 0001:00060a10       ?EmptyDeleteObjectList@obj_mgr@@QAEXXZ 00461150 f   Gamelib:Obj_Mgr.obj
 0001:00060a70       ?DestroyObjectEx@obj_mgr@@QAEXUguid@@H@Z 004611b0 f   Gamelib:Obj_Mgr.obj
 0001:00060c30       ?Clear@obj_mgr@@QAEXXZ     00461370 f   Gamelib:Obj_Mgr.obj
 0001:00061110       ?AdvanceAllLogic@obj_mgr@@QAEXM@Z 00461850 f   Gamelib:Obj_Mgr.obj
 0001:00061210       ?ResetSearchResult@obj_mgr@@QAEXXZ 00461950 f   Gamelib:Obj_Mgr.obj
 0001:00061250       ?HasLOS@obj_mgr@@QAEHUguid@@ABTvector3@@01@Z 00461990 f   Gamelib:Obj_Mgr.obj
 0001:00061350       ?SelectBBox@obj_mgr@@QAEXIABUbbox@@W4type@object@@I@Z 00461a90 f   Gamelib:Obj_Mgr.obj
 0001:00061550       ?SelectRay@obj_mgr@@QAEXIABTvector3@@0W4type@object@@I@Z 00461c90 f   Gamelib:Obj_Mgr.obj
 0001:00061720       ?SelectByAttribute@obj_mgr@@QAEXIW4type@object@@@Z 00461e60 f   Gamelib:Obj_Mgr.obj
 0001:00061800       ?RemoveFromSpatialDBase@obj_mgr@@QAEXG@Z 00461f40 f   Gamelib:Obj_Mgr.obj
 0001:000618e0       ?AddToSpatialDBase@obj_mgr@@QAEXG@Z 00462020 f   Gamelib:Obj_Mgr.obj
 0001:00061ae0       ?IsBoxInView@obj_mgr@@QBEHABUbbox@@I@Z 00462220 f   Gamelib:Obj_Mgr.obj
 0001:00061d30       ?DoVisibilityTests@obj_mgr@@IAEXABVview@@@Z 00462470 f   Gamelib:Obj_Mgr.obj
 0001:00062160       ?RenderNormalObjects@obj_mgr@@IAEXXZ 004628a0 f   Gamelib:Obj_Mgr.obj
 0001:00062220       ?RenderClothObjects@obj_mgr@@QAEXW4type@object@@@Z 00462960 f   Gamelib:Obj_Mgr.obj
 0001:00062280       ?TransparentSortFn@@YAHPBX0@Z 004629c0 f   Gamelib:Obj_Mgr.obj
 0001:000622b0       ?RenderSpecialObjects@obj_mgr@@IAEXXZ 004629f0 f   Gamelib:Obj_Mgr.obj
 0001:000624f0       ?Render2dObjects@obj_mgr@@IAEXXZ 00462c30 f   Gamelib:Obj_Mgr.obj
 0001:00062570       ?CollectShadowCasters@obj_mgr@@IAEXXZ 00462cb0 f   Gamelib:Obj_Mgr.obj
 0001:00062870       ??0shad_projector@obj_mgr@@QAE@XZ 00462fb0 f i Gamelib:Obj_Mgr.obj
 0001:00062880       ?CompleteVisAndShadowTests@obj_mgr@@IAEXXZ 00462fc0 f   Gamelib:Obj_Mgr.obj
 0001:00062d80       ?CreateShadowMap@obj_mgr@@IAEXXZ 004634c0 f   Gamelib:Obj_Mgr.obj
 0001:00062f60       ?Render3dPrep@obj_mgr@@IAEXHABVview@@E@Z 004636a0 f   Gamelib:Obj_Mgr.obj
 0001:000630f0       ?Render3dObjects@obj_mgr@@QAEXHABVview@@E@Z 00463830 f   Gamelib:Obj_Mgr.obj
 0001:00063190       ?Render@obj_mgr@@QAEXHABVview@@E@Z 004638d0 f   Gamelib:Obj_Mgr.obj
 0001:00063320       ?OnEnumProp@object_desc@@MAEXAAVprop_enum@@@Z 00463a60 f   Gamelib:Obj_Mgr.obj
 0001:000633a0       ?OnProperty@object_desc@@MAEHAAVprop_query@@@Z 00463ae0 f   Gamelib:Obj_Mgr.obj
 0001:00063440       ?Append@?$xarray@G@@QAEXABG@Z 00463b80 f i Gamelib:Obj_Mgr.obj
 0001:000634b0       ?FreeExtra@?$xarray@G@@QAEXXZ 00463bf0 f i Gamelib:Obj_Mgr.obj
 0001:00063520       ?Append@?$xarray@Ushad_projector@obj_mgr@@@@QAEXABUshad_projector@obj_mgr@@@Z 00463c60 f i Gamelib:Obj_Mgr.obj
 0001:000635c0       ?SetCapacity@?$xarray@Ushad_projector@obj_mgr@@@@QAEXH@Z 00463d00 f i Gamelib:Obj_Mgr.obj
 0001:00063640       ?Append@?$xarray@Ushad_receiver@obj_mgr@@@@QAEXABUshad_receiver@obj_mgr@@@Z 00463d80 f i Gamelib:Obj_Mgr.obj
 0001:00063700       ?SetCapacity@?$xarray@Ushad_receiver@obj_mgr@@@@QAEXH@Z 00463e40 f i Gamelib:Obj_Mgr.obj
 0001:00063790       ?Delete@?$xarray@Uspecial_render_obj@@@@QAEXHH@Z 00463ed0 f i Gamelib:Obj_Mgr.obj
 0001:000637d0       ?FreeExtra@?$xarray@Uspecial_render_obj@@@@QAEXXZ 00463f10 f i Gamelib:Obj_Mgr.obj
 0001:00063850       ??0event_data@@QAE@XZ      00463f90 f   Gamelib:AnimEvent.obj
 0001:00063870       ??0anim_event@@QAE@XZ      00463fb0 f   Gamelib:AnimEvent.obj
 0001:00063880       ?Init@anim_event@@SAXXZ    00463fc0 f   Gamelib:AnimEvent.obj
 0001:00063910       ?SetData@anim_event@@QAEXABVevent_data@@@Z 00464050 f   Gamelib:AnimEvent.obj
 0001:00063ce0       ?GetNBools@event_data_format@@QBEHXZ 00464420 f i Gamelib:AnimEvent.obj
 0001:00063d30       ?GetFloat@anim_event@@QBEMH@Z 00464470 f   Gamelib:AnimEvent.obj
 0001:00063d80       ?GetPoint@anim_event@@QBE?ATvector3@@H@Z 004644c0 f   Gamelib:AnimEvent.obj
 0001:00063e50       ?GetBool@anim_event@@QBEHH@Z 00464590 f   Gamelib:AnimEvent.obj
 0001:00063ee0       ?GetString@anim_event@@QBEPBDH@Z 00464620 f   Gamelib:AnimEvent.obj
 0001:00063fb0       ?SaveTypeNameString@anim_event@@CAHPBD@Z 004646f0 f   Gamelib:AnimEvent.obj
 0001:000640d0       ?ResetByteStreams@anim_event@@SAXXZ 00464810 f   Gamelib:AnimEvent.obj
 0001:00064130       ?Init@tracer_mgr@@QAEXXZ   00464870 f   Gamelib:TracerMgr.obj
 0001:00064230       ?AddTracer@tracer_mgr@@QAEIW4tracer_type@1@MABTvector3@@1ABUxcolor@@@Z 00464970 f   Gamelib:TracerMgr.obj
 0001:00064360       ?OnUpdate@tracer_mgr@@QAEXM@Z 00464aa0 f   Gamelib:TracerMgr.obj
 0001:00064530       ?Render@tracer_mgr@@QAEXXZ 00464c70 f   Gamelib:TracerMgr.obj
 0001:000647f0       ??1map_list@@QAE@XZ        00464f30 f   Gamelib:MapList.obj
 0001:000648b0       ?LoadDefault@map_list@@QAEXXZ 00464ff0 f   Gamelib:MapList.obj
 0001:00064b40       ?Clear@map_list@@QAEXXZ    00465280 f   Gamelib:MapList.obj
 0001:00064fe0       ?Append@map_list@@QAEHABVmap_entry@@PBV1@@Z 00465720 f   Gamelib:MapList.obj
 0001:00065190       ?Find@map_list@@QAEPBVmap_entry@@HH@Z 004658d0 f   Gamelib:MapList.obj
 0001:00065220       ?IsPresent@map_list@@AAEHPBD@Z 00465960 f   Gamelib:MapList.obj
 0001:00065280       ?RemoveByFlags@map_list@@QAEXW4map_flags@@@Z 004659c0 f   Gamelib:MapList.obj
 0001:00065360       ?FillString@@YAXPBD@Z      00465aa0 f   Gamelib:MapList.obj
 0001:000653c0       ?Parse@map_list@@QAEXPBDW4map_flags@@H@Z 00465b00 f   Gamelib:MapList.obj
 0001:000658a0       ?GetGameTypeInfo@map_list@@QBEPBVgame_type_info@@H@Z 00465fe0 f   Gamelib:MapList.obj
 0001:00065970       ?GetMapInfo@map_list@@QBEPBVmap_info@@H@Z 004660b0 f   Gamelib:MapList.obj
 0001:00065a00       ??0map_info@@QAE@XZ        00466140 f   Gamelib:MapList.obj
 0001:00065a60       ??1game_type_info@@QAE@XZ  004661a0 f   Gamelib:MapList.obj
 0001:00065a60       ??1map_info@@QAE@XZ        004661a0 f   Gamelib:MapList.obj
 0001:00065ac0       ??0game_type_info@@QAE@XZ  00466200 f   Gamelib:MapList.obj
 0001:00065b10       ?Delete@?$xarray@Vmap_entry@@@@QAEXHH@Z 00466250 f i Gamelib:MapList.obj
 0001:00065b80       ?Append@?$xarray@Vmap_entry@@@@QAEAAVmap_entry@@XZ 004662c0 f i Gamelib:MapList.obj
 0001:00065c10       ?SetCapacity@?$xarray@Vmap_entry@@@@QAEXH@Z 00466350 f i Gamelib:MapList.obj
 0001:00065c90       ?Delete@?$xarray@Vmap_info@@@@QAEXHH@Z 004663d0 f i Gamelib:MapList.obj
 0001:00065cf0       ?Append@?$xarray@Vmap_info@@@@QAEXABVmap_info@@@Z 00466430 f i Gamelib:MapList.obj
 0001:00065e20       ?Append@?$xarray@Vmap_info@@@@QAEAAVmap_info@@XZ 00466560 f i Gamelib:MapList.obj
 0001:00065f40       ?SetCapacity@?$xarray@Vmap_info@@@@QAEXH@Z 00466680 f i Gamelib:MapList.obj
 0001:00066050       ?Clear@?$xarray@Vmap_info@@@@QAEXXZ 00466790 f i Gamelib:MapList.obj
 0001:000660a0       ?Find@?$xarray@Vmap_info@@@@QBEHABVmap_info@@H@Z 004667e0 f i Gamelib:MapList.obj
 0001:000660d0       ?Delete@?$xarray@Vgame_type_info@@@@QAEXHH@Z 00466810 f i Gamelib:MapList.obj
 0001:00066130       ?Append@?$xarray@Vgame_type_info@@@@QAEXABVgame_type_info@@@Z 00466870 f i Gamelib:MapList.obj
 0001:00066260       ?Append@?$xarray@Vgame_type_info@@@@QAEAAVgame_type_info@@XZ 004669a0 f i Gamelib:MapList.obj
 0001:00066380       ?SetCapacity@?$xarray@Vgame_type_info@@@@QAEXH@Z 00466ac0 f i Gamelib:MapList.obj
 0001:00066490       ?Clear@?$xarray@Vgame_type_info@@@@QAEXXZ 00466bd0 f i Gamelib:MapList.obj
 0001:000664e0       ?Find@?$xarray@Vgame_type_info@@@@QBEHABVgame_type_info@@H@Z 00466c20 f i Gamelib:MapList.obj
 0001:00066510       ??4map_info@@QAEAAV0@ABV0@@Z 00466c50 f i Gamelib:MapList.obj
 0001:000665f0       ??4game_type_info@@QAEAAV0@ABV0@@Z 00466d30 f i Gamelib:MapList.obj
 0001:000666b0       ?Reset@global_settings@@QAEXH@Z 00466df0 f   Gamelib:GlobalSettings.obj
 0001:00066990       ?Commit@global_settings@@QAEXXZ 004670d0 f   Gamelib:GlobalSettings.obj
 0001:00066a70       ?CommitAudio@global_settings@@QAEXXZ 004671b0 f   Gamelib:GlobalSettings.obj
 0001:00066ae0       ?HasChanged@global_settings@@QAEHXZ 00467220 f   Gamelib:GlobalSettings.obj
 0001:00066b10       ?Validate@global_settings@@QAEHXZ 00467250 f   Gamelib:GlobalSettings.obj
 0001:00066b40       ?Checksum@global_settings@@QAEXXZ 00467280 f   Gamelib:GlobalSettings.obj
 0001:00066b70       ?UpdateHeadsetMode@global_settings@@QAEXW4headset_mode@@@Z 004672b0 f   Gamelib:GlobalSettings.obj
 0001:00066be0       ?GetRTTI@proxy_playsurface@@SAABUrtti@@XZ 00467320 f i Gamelib:ProxyPlaySurface.obj
 0001:00066c40       ?GetObjectRTTI@proxy_playsurface@@UBEABUrtti@@XZ 00467380 f i Gamelib:ProxyPlaySurface.obj
 0001:00066c50       ?Create@proxy_playsurface_desc@@UAEPAVobject@@XZ 00467390 f i Gamelib:ProxyPlaySurface.obj
 0001:00066c90       ?GetTypeDesc@proxy_playsurface@@UBEABVobject_desc@@XZ 004673d0 f   Gamelib:ProxyPlaySurface.obj
 0001:00066ca0       ?GetLocalBBox@proxy_playsurface@@UBE?AUbbox@@XZ 004673e0 f   Gamelib:ProxyPlaySurface.obj
 0001:00066d80       ?GetColDetails@proxy_playsurface@@UAEHHAAUdetail_tri@object@@@Z 004674c0 f   Gamelib:ProxyPlaySurface.obj
 0001:00066e00       ?SetSurface@proxy_playsurface@@QAEXUguid@@@Z 00467540 f   Gamelib:ProxyPlaySurface.obj
 0001:00066e80       ?OnRenderShadowReceive@proxy_playsurface@@UAEX_K@Z 004675c0 f   Gamelib:ProxyPlaySurface.obj
 0001:00066ef0       ?GetDecalDef@decal_package@@QBEPAUdecal_definition@@PBDH@Z 00467630 f i Gamelib:ProjectileExplosiveBullett.obj
 0001:00066f80       ?GetObjectRTTI@explosive_bullet_projectile@@UBEABUrtti@@XZ 004676c0 f i Gamelib:ProjectileExplosiveBullett.obj
 0001:00066fb0       ?Create@explosive_bullet_projectile_desc@@UAEPAVobject@@XZ 004676f0 f i Gamelib:ProjectileExplosiveBullett.obj
 0001:00067010       ?GetTypeDesc@explosive_bullet_projectile@@UBEABVobject_desc@@XZ 00467750 f   Gamelib:ProjectileExplosiveBullett.obj
 0001:00067020       ??0explosive_bullet_projectile@@QAE@XZ 00467760 f   Gamelib:ProjectileExplosiveBullett.obj
 0001:00067070       ?OnAdvanceLogic@explosive_bullet_projectile@@UAEXM@Z 004677b0 f   Gamelib:ProjectileExplosiveBullett.obj
 0001:00067070       ?OnAdvanceLogic@bullet_projectile@@UAEXM@Z 004677b0 f   Gamelib:ProjectileBullett.obj
 0001:000670d0       ?GetLocalBBox@explosive_bullet_projectile@@UBE?AUbbox@@XZ 00467810 f   Gamelib:ProjectileExplosiveBullett.obj
 0001:000670d0       ?GetLocalBBox@bullet_projectile@@UBE?AUbbox@@XZ 00467810 f   Gamelib:ProjectileBullett.obj
 0001:00067140       ?OnEnumProp@explosive_bullet_projectile@@UAEXAAVprop_enum@@@Z 00467880 f   Gamelib:ProjectileExplosiveBullett.obj
 0001:000671b0       ?OnProperty@explosive_bullet_projectile@@UAEHAAVprop_query@@@Z 004678f0 f   Gamelib:ProjectileExplosiveBullett.obj
 0001:000672e0       ?OnBulletHit@explosive_bullet_projectile@@MAEXAAUcollision@collision_mgr@@ABTvector3@@@Z 00467a20 f   Gamelib:ProjectileExplosiveBullett.obj
 0001:00067420       ?GetRTTI@blueprint_bag@@SAABUrtti@@XZ 00467b60 f i Gamelib:BluePrintBag.obj
 0001:00067480       ?GetObjectRTTI@blueprint_bag@@UBEABUrtti@@XZ 00467bc0 f i Gamelib:BluePrintBag.obj
 0001:00067490       ?Create@blueprint_bag_desc@@UAEPAVobject@@XZ 00467bd0 f i Gamelib:BluePrintBag.obj
 0001:000674b0       ?GetTypeDesc@blueprint_bag@@UBEABVobject_desc@@XZ 00467bf0 f   Gamelib:BluePrintBag.obj
 0001:000674c0       ??0blueprint_bag@@QAE@XZ   00467c00 f   Gamelib:BluePrintBag.obj
 0001:000675a0       ?OnEnumProp@blueprint_bag@@UAEXAAVprop_enum@@@Z 00467ce0 f   Gamelib:BluePrintBag.obj
 0001:00067660       ?OnProperty@blueprint_bag@@UAEHAAVprop_query@@@Z 00467da0 f   Gamelib:BluePrintBag.obj
 0001:000677d0       ?GetRTTI@alarm_node@@SAABUrtti@@XZ 00467f10 f i Gamelib:AlarmNode.obj
 0001:00067830       ?GetObjectRTTI@alarm_node@@UBEABUrtti@@XZ 00467f70 f i Gamelib:AlarmNode.obj
 0001:00067840       ?Create@alarm_node_desc@@UAEPAVobject@@XZ 00467f80 f i Gamelib:AlarmNode.obj
 0001:00067860       ??0alarm_node@@QAE@XZ      00467fa0 f   Gamelib:AlarmNode.obj
 0001:00067910       ?OnInit@spawner_object@@UAEXXZ 00468050 f   Gamelib:SpawnerObject.obj
 0001:00067910       ?OnInit@alarm_node@@UAEXXZ 00468050 f   Gamelib:AlarmNode.obj
 0001:00067910       ?OnInit@manipulator@@MAEXXZ 00468050 f   Gamelib:Manipulator.obj
 0001:00067950       ?GetTypeDesc@alarm_node@@UBEABVobject_desc@@XZ 00468090 f   Gamelib:AlarmNode.obj
 0001:00067960       ?GetLocalBBox@alarm_node@@UBE?AUbbox@@XZ 004680a0 f   Gamelib:AlarmNode.obj
 0001:00067960       ?GetLocalBBox@level_settings@@UBE?AUbbox@@XZ 004680a0 f   Gamelib:LevelSettings.obj
 0001:00067960       ?GetLocalBBox@character_task_set@@UBE?AUbbox@@XZ 004680a0 f   Gamelib:character_task_set.obj
 0001:00067960       ?GetLocalBBox@blueprint_bag@@UBE?AUbbox@@XZ 004680a0 f   Gamelib:BluePrintBag.obj
 0001:00067960       ?GetLocalBBox@mp_settings@@UBE?AUbbox@@XZ 004680a0 f   Gamelib:MP_Settings.obj
 0001:00067960       ?GetLocalBBox@marker_object@@UBE?AUbbox@@XZ 004680a0 f   Gamelib:marker_object.obj
 0001:00067960       ?GetLocalBBox@input_setting@@UBE?AUbbox@@XZ 004680a0 f   Gamelib:InputSetting.obj
 0001:00067960       ?GetLocalBBox@spawn_point@@UBE?AUbbox@@XZ 004680a0 f   Gamelib:SpawnPoint.obj
 0001:00067960       ?GetLocalBBox@cinema_object@@UBE?AUbbox@@XZ 004680a0 f   Gamelib:Cinema.obj
 0001:00067960       ?GetLocalBBox@nav_point@@UBE?AUbbox@@XZ 004680a0 f   Gamelib:NavPoint.obj
 0001:000679a0       ?InvalidateNode@alarm_node@@QAEXXZ 004680e0 f   Gamelib:AlarmNode.obj
 0001:000679e0       ?ReserveAllInGroup@alarm_node@@IAEXXZ 00468120 f   Gamelib:AlarmNode.obj
 0001:00067b00       ?ActivateAllInGroup@alarm_node@@IAEXXZ 00468240 f   Gamelib:AlarmNode.obj
 0001:00067bf0       ?IsReserved@alarm_node@@QAEHUguid@@@Z 00468330 f   Gamelib:AlarmNode.obj
 0001:00067cc0       ?OnAdvanceLogic@alarm_node@@UAEXM@Z 00468400 f   Gamelib:AlarmNode.obj
 0001:00067cf0       ?OnActivate@alarm_node@@UAEXH@Z 00468430 f   Gamelib:AlarmNode.obj
 0001:00067d20       ?Activate@alarm_node@@QAEXH@Z 00468460 f   Gamelib:AlarmNode.obj
 0001:00067db0       ?Deactivate@alarm_node@@QAEXXZ 004684f0 f   Gamelib:AlarmNode.obj
 0001:00067e20       ?OnEnumProp@alarm_node@@UAEXAAVprop_enum@@@Z 00468560 f   Gamelib:AlarmNode.obj
 0001:00067fb0       ?OnProperty@alarm_node@@UAEHAAVprop_query@@@Z 004686f0 f   Gamelib:AlarmNode.obj
 0001:00068130       ?GetRTTI@god@@SAABUrtti@@XZ 00468870 f i Gamelib:God.obj
 0001:00068190       ?GetObjectRTTI@god@@UBEABUrtti@@XZ 004688d0 f i Gamelib:God.obj
 0001:000681a0       ?Create@god_desc@@UAEPAVobject@@XZ 004688e0 f i Gamelib:God.obj
 0001:000681c0       ?GetTypeDesc@god@@UBEABVobject_desc@@XZ 00468900 f   Gamelib:God.obj
 0001:000681d0       ?OnEnumProp@god_desc@@UAEXAAVprop_enum@@@Z 00468910 f   Gamelib:God.obj
 0001:00068230       ??0god@@QAE@XZ             00468970 f   Gamelib:God.obj
 0001:00068340       ?OnActivate@god@@UAEXH@Z   00468a80 f   Gamelib:God.obj
 0001:00068360       ?IntersectBBoxes@@YAHQAUbbox@@PAVobject@@H@Z 00468aa0 f   Gamelib:God.obj
 0001:00068450       ?GetCanMeleePlayer@god@@QAEHUguid@@@Z 00468b90 f   Gamelib:God.obj
 0001:00068490       ?OnAdvanceLogic@god@@UAEXM@Z 00468bd0 f   Gamelib:God.obj
 0001:00068be0       ?GetLocalBBox@god@@UBE?AUbbox@@XZ 00469320 f   Gamelib:God.obj
 0001:00068c30       ?AddTargettingData@god@@QAEXUTargettingData@1@@Z 00469370 f   Gamelib:God.obj
 0001:00068ca0       ?GetNumTargettingCloser@god@@QAEHUTargettingData@1@@Z 004693e0 f   Gamelib:God.obj
 0001:00068ea0       ?GetMinDistanceToPlayersThroughZones@god@@QAEMABTvector3@@G@Z 004695e0 f   Gamelib:God.obj
 0001:00068f40       ?IsActiveZone@god@@QAEHG@Z 00469680 f   Gamelib:God.obj
 0001:00068fb0       ?RequestPathWithEdges@god@@QAEHPAVobject@@ABTvector3@@AAUpath_find_struct@@HPBUpathing_hints@@H@Z 004696f0 f   Gamelib:God.obj
 0001:00069360       ?GetRTTI@marker_object@@SAABUrtti@@XZ 00469aa0 f i Gamelib:marker_object.obj
 0001:000693c0       ?GetObjectRTTI@marker_object@@UBEABUrtti@@XZ 00469b00 f i Gamelib:marker_object.obj
 0001:000693d0       ?Create@marker_object_desc@@UAEPAVobject@@XZ 00469b10 f i Gamelib:marker_object.obj
 0001:00069400       ?GetTypeDesc@marker_object@@UBEABVobject_desc@@XZ 00469b40 f   Gamelib:marker_object.obj
 0001:00069410       ?GetAnimGroupHandlePtr@actor@@UAEPAU?$rhandle@Vanim_group@@@@XZ 00469b50 f i Gamelib:FriendlyScientist.obj
 0001:00069420       ?GetVelocity@actor@@UBE?ATvector3@@XZ 00469b60 f i Gamelib:FriendlyScientist.obj
 0001:00069470       ?GetLogStateChanges@character@@UAEHXZ 00469bb0 f i Gamelib:FriendlyScientist.obj
 0001:00069480       ?GetObjectRTTI@friendly_scientist@@UBEABUrtti@@XZ 00469bc0 f i Gamelib:FriendlyScientist.obj
 0001:00069480       ?GetRTTI@friendly_scientist@@SAABUrtti@@XZ 00469bc0 f i Gamelib:FriendlyScientist.obj
 0001:000694b0       ??0friendly_scientist@@QAE@XZ 00469bf0 f   Gamelib:FriendlyScientist.obj
 0001:000695c0       ??_Efriendly_scientist@@UAEPAXI@Z 00469d00 f i Gamelib:FriendlyScientist.obj
 0001:000695c0       ??_Gfriendly_scientist@@UAEPAXI@Z 00469d00 f i Gamelib:FriendlyScientist.obj
 0001:000695f0       ??1friendly_scientist@@UAE@XZ 00469d30 f   Gamelib:FriendlyScientist.obj
 0001:00069670       ?Create@friendly_scientist_desc@@UAEPAVobject@@XZ 00469db0 f i Gamelib:FriendlyScientist.obj
 0001:00069690       ?GetTypeDesc@friendly_scientist@@UBEABVobject_desc@@XZ 00469dd0 f   Gamelib:FriendlyScientist.obj
 0001:000696a0       ?OnInit@mutant_tank@@UAEXXZ 00469de0 f   Gamelib:Mutant_Tank.obj
 0001:000696a0       ?OnInit@gray@@UAEXXZ       00469de0 f   Gamelib:Gray.obj
 0001:000696a0       ?OnInit@friendly_scientist@@UAEXXZ 00469de0 f   Gamelib:FriendlyScientist.obj
 0001:000696a0       ?OnInit@grunt@@UAEXXZ      00469de0 f   Gamelib:Grunt.obj
 0001:000696a0       ?OnInit@soldier@@UAEXXZ    00469de0 f   Gamelib:Soldier.obj
 0001:000696a0       ?OnInit@genericNPC@@UAEXXZ 00469de0 f   Gamelib:GenericNPC.obj
 0001:000696b0       ?OnEnumProp@friendly_scientist@@UAEXAAVprop_enum@@@Z 00469df0 f   Gamelib:FriendlyScientist.obj
 0001:000696f0       ?OnProperty@gray@@UAEHAAVprop_query@@@Z 00469e30 f   Gamelib:Gray.obj
 0001:000696f0       ?OnProperty@friendly_scientist@@UAEHAAVprop_query@@@Z 00469e30 f   Gamelib:FriendlyScientist.obj
 0001:00069710       ?GetRTTI@zone_portal@@SAABUrtti@@XZ 00469e50 f i Gamelib:Portal.obj
 0001:00069770       ?GetObjectRTTI@zone_portal@@UBEABUrtti@@XZ 00469eb0 f i Gamelib:Portal.obj
 0001:00069780       ?Create@zone_portal_desc@@UAEPAVobject@@XZ 00469ec0 f i Gamelib:Portal.obj
 0001:000697e0       ?GetTypeDesc@zone_portal@@UBEABVobject_desc@@XZ 00469f20 f   Gamelib:Portal.obj
 0001:000697f0       ??0zone_portal@@QAE@XZ     00469f30 f   Gamelib:Portal.obj
 0001:00069840       ?GetLocalBBox@zone_portal@@UBE?AUbbox@@XZ 00469f80 f   Gamelib:Portal.obj
 0001:000698e0       ?OnRender@zone_portal@@MAEXXZ 0046a020 f   Gamelib:Portal.obj
 0001:00069910       ?OnEnumProp@zone_portal@@UAEXAAVprop_enum@@@Z 0046a050 f   Gamelib:Portal.obj
 0001:000699a0       ?OnProperty@zone_portal@@UAEHAAVprop_query@@@Z 0046a0e0 f   Gamelib:Portal.obj
 0001:00069b70       ?Setup@matrix4@@QAEXABTvector3@@ABUquaternion@@0@Z 0046a2b0 f i Gamelib:NewWeapon.obj
 0001:00069ce0       ?IsAtEnd@char_anim_player@@QAEHXZ 0046a420 f i Gamelib:NewWeapon.obj
 0001:00069d10       ?GetBindPosition@char_anim_player@@QAE?ATvector3@@H@Z 0046a450 f i Gamelib:NewWeapon.obj
 0001:00069d80       ?GetMeshIndex@geom@@QBEHPBD@Z 0046a4c0 f i Gamelib:NewWeapon.obj
 0001:00069e00       ?GetObjectRTTI@new_weapon@@UBEABUrtti@@XZ 0046a540 f i Gamelib:NewWeapon.obj
 0001:00069e10       ?GetYaw@new_weapon@@QAEMXZ 0046a550 f i Gamelib:NewWeapon.obj
 0001:00069e70       ?GetParentGuid@new_weapon@@UAE?AUguid@@XZ 0046a5b0 f i Gamelib:NewWeapon.obj
 0001:00069e90       ?GetTotalSecondaryAmmo@new_weapon@@UAEHXZ 0046a5d0 f i Gamelib:NewWeapon.obj
 0001:00069ea0       ?Create@new_weapon_desc@@UAEPAVobject@@XZ 0046a5e0 f i Gamelib:NewWeapon.obj
 0001:00069ec0       ?GetTypeDesc@new_weapon@@UBEABVobject_desc@@XZ 0046a600 f   Gamelib:NewWeapon.obj
 0001:00069ed0       ?Init@dual_weapon_anim_controller@@QAEXUguid@@ABU?$rhandle@Vanim_group@@@@PBD2@Z 0046a610 f   Gamelib:NewWeapon.obj
 0001:00069f50       ?SetAnimGroup@dual_weapon_anim_controller@@UAEXABU?$rhandle@Vanim_group@@@@@Z 0046a690 f   Gamelib:NewWeapon.obj
 0001:00069f60       ?MixKeys@dual_weapon_anim_controller@@UAEXPAUanim_key@@@Z 0046a6a0 f   Gamelib:NewWeapon.obj
 0001:0006a1b0       ??0new_weapon@@QAE@XZ      0046a8f0 f   Gamelib:NewWeapon.obj
 0001:0006a6a0       ??_Enew_weapon@@UAEPAXI@Z  0046ade0 f i Gamelib:NewWeapon.obj
 0001:0006a6a0       ??_Gnew_weapon@@UAEPAXI@Z  0046ade0 f i Gamelib:NewWeapon.obj
 0001:0006a6d0       ??1new_weapon@@UAE@XZ      0046ae10 f   Gamelib:NewWeapon.obj
 0001:0006aa00       ?InitWeapon@new_weapon@@UAEXABTvector3@@W4render_state@1@Uguid@@@Z 0046b140 f   Gamelib:NewWeapon.obj
 0001:0006ad80       ?InitWeapon@new_weapon@@UAEXPBD0ABTvector3@@ABW4render_state@1@ABUguid@@@Z 0046b4c0 f   Gamelib:NewWeapon.obj
 0001:0006b1e0       ?InitNPCDualAnimController@new_weapon@@QAEXPAVdual_weapon_anim_controller@@PBD1@Z 0046b920 f   Gamelib:NewWeapon.obj
 0001:0006b250       ?IsWeaponReady@new_weapon@@UAEHABW4ammo_priority@1@@Z 0046b990 f   Gamelib:NewWeapon.obj
 0001:0006b270       ?GetWeaponPrefixFromInvType2@new_weapon@@SAPADW4inven_item@@@Z 0046b9b0 f   Gamelib:NewWeapon.obj
 0001:0006b310       ?CanReload@new_weapon@@UAEHABW4ammo_priority@1@@Z 0046ba50 f   Gamelib:NewWeapon.obj
 0001:0006b350       ?CanFire@new_weapon@@UAEHH@Z 0046ba90 f   Gamelib:NewWeapon.obj
 0001:0006b390       ?Reload@new_weapon@@UAEXABW4ammo_priority@1@@Z 0046bad0 f   Gamelib:NewWeapon.obj
 0001:0006b3c0       ?SetupDualAmmo@new_weapon@@UAEXW4inven_item@@@Z 0046bb00 f   Gamelib:NewWeapon.obj
 0001:0006b450       ?GetDualWeaponID@new_weapon@@SA?AW4inven_item@@W42@@Z 0046bb90 f   Gamelib:NewWeapon.obj
 0001:0006b470       ?GetParentIDForDualWeapon@new_weapon@@SA?AW4inven_item@@W42@@Z 0046bbb0 f   Gamelib:NewWeapon.obj
 0001:0006b490       ?FireWeapon@new_weapon@@QAEHABTvector3@@0ABMABUradian3@@ABUguid@@H@Z 0046bbd0 f   Gamelib:NewWeapon.obj
 0001:0006b520       ?FireSecondary@new_weapon@@QAEHABTvector3@@0ABMABUradian3@@ABUguid@@H@Z 0046bc60 f   Gamelib:NewWeapon.obj
 0001:0006b5a0       ?NPCFireWeapon@new_weapon@@QAEHABTvector3@@0ABUguid@@MH@Z 0046bce0 f   Gamelib:NewWeapon.obj
 0001:0006b610       ?NPCFireSecondary@new_weapon@@QAEXABTvector3@@0ABUguid@@MH@Z 0046bd50 f   Gamelib:NewWeapon.obj
 0001:0006b650       ?FireGhostPrimary@new_weapon@@UAEHHHAATvector3@@@Z 0046bd90 f   Gamelib:NewWeapon.obj
 0001:0006bb10       ?FireGhostSecondary@new_weapon@@UAEHH@Z 0046c250 f   Gamelib:NewWeapon.obj
 0001:0006bb50       ?GetFrameParametric@new_weapon@@UAEMXZ 0046c290 f   Gamelib:NewWeapon.obj
 0001:0006bba0       ?SetFrameParametric@new_weapon@@UAEXM@Z 0046c2e0 f   Gamelib:NewWeapon.obj
 0001:0006bbf0       ?OnRender@new_weapon@@UAEXXZ 0046c330 f   Gamelib:NewWeapon.obj
 0001:0006bd40       ?OnRenderTransparent@new_weapon@@UAEXXZ 0046c480 f   Gamelib:NewWeapon.obj
 0001:0006bd50       ?RenderWeapon@new_weapon@@UAEXHABUxcolor@@H@Z 0046c490 f   Gamelib:NewWeapon.obj
 0001:0006c100       ?OnAdvanceLogic@new_weapon@@UAEXM@Z 0046c840 f   Gamelib:NewWeapon.obj
 0001:0006c310       ?NotifyAmmoFull@new_weapon@@UAEXPAVplayer@@@Z 0046ca50 f   Gamelib:NewWeapon.obj
 0001:0006c3c0       ?OnColCheck@new_weapon@@UAEXXZ 0046cb00 f   Gamelib:NewWeapon.obj
 0001:0006c420       ?GetLocalBBox@new_weapon@@UBE?AUbbox@@XZ 0046cb60 f   Gamelib:NewWeapon.obj
 0001:0006c4b0       ?GetCurrentAnimGroup@new_weapon@@QAEABVanim_group@@XZ 0046cbf0 f   Gamelib:NewWeapon.obj
 0001:0006c500       ?HasAnimGroup@new_weapon@@QAEHXZ 0046cc40 f   Gamelib:NewWeapon.obj
 0001:0006c5a0       ?OnMove@new_weapon@@UAEXABTvector3@@@Z 0046cce0 f   Gamelib:NewWeapon.obj
 0001:0006c680       ?OnTransform@new_weapon@@UAEXABTmatrix4@@@Z 0046cdc0 f   Gamelib:NewWeapon.obj
 0001:0006c720       ?RenderMuzzleFx@new_weapon@@MAEXXZ 0046ce60 f   Gamelib:NewWeapon.obj
 0001:0006c8b0       ?AdvanceMuzzleFX@new_weapon@@MAEXM@Z 0046cff0 f   Gamelib:NewWeapon.obj
 0001:0006d070       ?InitMuzzleFx@new_weapon@@UAEXHH@Z 0046d7b0 f   Gamelib:NewWeapon.obj
 0001:0006d250       ?KillAllMuzzleFX@new_weapon@@QAEXXZ 0046d990 f   Gamelib:NewWeapon.obj
 0001:0006d330       ?SetAnimation@new_weapon@@UAEXABHABM0@Z 0046da70 f   Gamelib:NewWeapon.obj
 0001:0006d370       ?SetRotation@new_weapon@@QAEXABM0@Z 0046dab0 f   Gamelib:NewWeapon.obj
 0001:0006d3d0       ?OnEnumProp@new_weapon@@UAEXAAVprop_enum@@@Z 0046db10 f   Gamelib:NewWeapon.obj
 0001:0006d7a0       ?OnProperty@new_weapon@@UAEHAAVprop_query@@@Z 0046dee0 f   Gamelib:NewWeapon.obj
 0001:0006e4d0       ?OnEnumProp@ammo@new_weapon@@QAEXAAVprop_enum@@@Z 0046ec10 f   Gamelib:NewWeapon.obj
 0001:0006e530       ?OnProperty@ammo@new_weapon@@QAEHAAVprop_query@@@Z 0046ec70 f   Gamelib:NewWeapon.obj
 0001:0006e740       ?ResetWeapon@new_weapon@@UAEXXZ 0046ee80 f   Gamelib:NewWeapon.obj
 0001:0006e760       ?CreateBullet@new_weapon@@IAEPAVbase_projectile@@PBDABTvector3@@ABUradian3@@1Uguid@@ABVpain_handle@@W4ammo_priority@1@HH@Z 0046eea0 f   Gamelib:NewWeapon.obj
 0001:0006e920       ?GetFiringBonePosition@new_weapon@@UAEHAATvector3@@H@Z 0046f060 f   Gamelib:NewWeapon.obj
 0001:0006eaf0       ?GetAimBonePosition@new_weapon@@UAEHAATvector3@@H@Z 0046f230 f   Gamelib:NewWeapon.obj
 0001:0006ecc0       ?GetFlashlightTransformInfo@new_weapon@@UAEHAATmatrix4@@AATvector3@@@Z 0046f400 f   Gamelib:NewWeapon.obj
 0001:0006ed60       ?OnKill@new_weapon@@UAEXXZ 0046f4a0 f   Gamelib:NewWeapon.obj
 0001:0006eda0       ?AddAmmoToWeapon@new_weapon@@QAEXHH@Z 0046f4e0 f   Gamelib:NewWeapon.obj
 0001:0006ee90       ?ClearClipAmmo@new_weapon@@QAEXABW4ammo_priority@1@@Z 0046f5d0 f   Gamelib:NewWeapon.obj
 0001:0006eed0       ?DecrementAmmo@new_weapon@@QAEXABW4ammo_priority@1@ABH@Z 0046f610 f   Gamelib:NewWeapon.obj
 0001:0006ef60       ?FillAmmo@new_weapon@@UAEXXZ 0046f6a0 f   Gamelib:NewWeapon.obj
 0001:0006ef90       ?GetCenterReticleBmp@new_weapon@@QAEPAVxbitmap@@XZ 0046f6d0 f   Gamelib:NewWeapon.obj
 0001:0006efd0       ?GetEdgeReticleBmp@new_weapon@@QAEPAVxbitmap@@XZ 0046f710 f   Gamelib:NewWeapon.obj
 0001:0006f010       ?CanIntereptSecondaryFire@new_weapon@@UAEHH@Z 0046f750 f   Gamelib:NewWeapon.obj
 0001:0006f010       ?CanIntereptPrimaryFire@new_weapon@@UAEHH@Z 0046f750 f   Gamelib:NewWeapon.obj
 0001:0006f060       ?SetupRenderInformation@new_weapon@@UAEXXZ 0046f7a0 f   Gamelib:NewWeapon.obj
 0001:0006f310       ?UpdateReticle@new_weapon@@UAEXM@Z 0046fa50 f   Gamelib:NewWeapon.obj
 0001:0006f3b0       ?UpdateAmmoWarning@new_weapon@@UAEXXZ 0046faf0 f   Gamelib:NewWeapon.obj
 0001:0006f560       ?SetAmmoHudColor@new_weapon@@UAEXPAVplayer@@PAVhud_object@@Uxcolor@@@Z 0046fca0 f   Gamelib:NewWeapon.obj
 0001:0006f5a0       ?CheckReticleLocked@new_weapon@@UAEHXZ 0046fce0 f   Gamelib:NewWeapon.obj
 0001:0006f620       ?SetRenderState@new_weapon@@UAEXW4render_state@1@@Z 0046fd60 f   Gamelib:NewWeapon.obj
 0001:0006f630       ?IncrementZoom@new_weapon@@UAEHXZ 0046fd70 f   Gamelib:NewWeapon.obj
 0001:0006f6b0       ?ClearZoom@new_weapon@@UAEXXZ 0046fdf0 f   Gamelib:NewWeapon.obj
 0001:0006f710       ?GetRenderInstPtr@new_weapon@@UAEPAVrender_inst@@XZ 0046fe50 f   Gamelib:NewWeapon.obj
 0001:0006f730       ?GetAnimGroupHandlePtr@new_weapon@@UAEPAU?$rhandle@Vanim_group@@@@XZ 0046fe70 f   Gamelib:NewWeapon.obj
 0001:0006f750       ?DrawLaserFixupBitmap@new_weapon@@UAEXPAVxbitmap@@MUxcolor@@AAUcollision@collision_mgr@@@Z 0046fe90 f   Gamelib:NewWeapon.obj
 0001:0006fde0       ?GetScopeTexture@new_weapon@@IAEPAVxbitmap@@XZ 00470520 f   Gamelib:NewWeapon.obj
 0001:0006fe60       ?InstallCustomScope@new_weapon@@IAEXXZ 004705a0 f   Gamelib:NewWeapon.obj
 0001:0006ff30       ??0?$object_ptr@Vnew_weapon@@@@QAE@ABUguid@@@Z 00470670 f i Gamelib:NewWeapon.obj
 0001:0006ff90       ??0?$object_ptr@Vplayer@@@@QAE@ABUguid@@@Z 004706d0 f i Gamelib:NewWeapon.obj
 0001:0006ffe0       ?SetRotation@matrix4@@QAEXABUquaternion@@@Z 00470720 f i Gamelib:Tracker.obj
 0001:000700f0       ?GetRTTI@path@@SAABUrtti@@XZ 00470830 f i Gamelib:Tracker.obj
 0001:00070150       ?GetRTTI@tracker@@SAABUrtti@@XZ 00470890 f i Gamelib:Tracker.obj
 0001:000701b0       ?GetObjectRTTI@tracker@@UBEABUrtti@@XZ 004708f0 f i Gamelib:Tracker.obj
 0001:000701c0       ?Create@tracker_desc@@UAEPAVobject@@XZ 00470900 f i Gamelib:Tracker.obj
 0001:000701e0       ?GetTypeDesc@tracker@@UBEABVobject_desc@@XZ 00470920 f   Gamelib:Tracker.obj
 0001:000701f0       ??0tracker@@QAE@XZ         00470930 f   Gamelib:Tracker.obj
 0001:000703d0       ?GetLocalBBox@tracker@@UBE?AUbbox@@XZ 00470b10 f   Gamelib:Tracker.obj
 0001:00070420       ?OnEnumProp@tracker@@UAEXAAVprop_enum@@@Z 00470b60 f   Gamelib:Tracker.obj
 0001:000704c0       ?OnProperty@tracker@@UAEHAAVprop_query@@@Z 00470c00 f   Gamelib:Tracker.obj
 0001:000707b0       ?OnMove@tracker@@UAEXABTvector3@@@Z 00470ef0 f   Gamelib:Tracker.obj
 0001:00070800       ?OnTransform@tracker@@UAEXABTmatrix4@@@Z 00470f40 f   Gamelib:Tracker.obj
 0001:00070880       ?OnAdvanceLogic@tracker@@MAEXM@Z 00470fc0 f   Gamelib:Tracker.obj
 0001:00070a40       ?Update@tracker@@UAEXH@Z   00471180 f   Gamelib:Tracker.obj
 0001:00070c10       ??0?$object_ptr@Vpath@@@@QAE@ABUguid@@@Z 00471350 f i Gamelib:Tracker.obj
 0001:00070c70       ?GetSkinGeom@skin_inst@@QBEPAUskin_geom@@XZ 004713b0 f i Gamelib:PlayerObject.obj
 0001:00070c70       ?GetRigidGeom@rigid_inst@@QBEPAUrigid_geom@@XZ 004713b0 f i Gamelib:AlienOrb.obj
 0001:00070cb0       ?GetRenderInstPtr@play_surface@@UAEPAVrender_inst@@XZ 004713f0 f i Gamelib:AlienOrb.obj
 0001:00070cb0       ?GetRenderInstPtr@skin_prop_surface@@UAEPAVrender_inst@@XZ 004713f0 f i Gamelib:SkinPropSurface.obj
 0001:00070cb0       ?GetAnimGroupHandlePtr@manipulator@@UAEPAU?$rhandle@Vanim_group@@@@XZ 004713f0 f i Gamelib:Manipulator.obj
 0001:00070cc0       ?GetSimpleAnimPlayer@anim_surface@@UAEPAVsimple_anim_player@@XZ 00471400 f i Gamelib:AlienOrb.obj
 0001:00070cd0       ?GetAnimGroupHandlePtr@turret@@MAEPAU?$rhandle@Vanim_group@@@@XZ 00471410 f i Gamelib:Turret.obj
 0001:00070cd0       ?GetAnimGroupHandlePtr@anim_surface@@UAEPAU?$rhandle@Vanim_group@@@@XZ 00471410 f i Gamelib:AlienOrb.obj
 0001:00070cd0       ?GetSimpleAnimPlayer@skin_prop_surface@@UAEPAVsimple_anim_player@@XZ 00471410 f i Gamelib:SkinPropSurface.obj
 0001:00070ce0       ?GetRTTI@alien_orb@@SAABUrtti@@XZ 00471420 f i Gamelib:AlienOrb.obj
 0001:00070d40       ?GetObjectRTTI@alien_orb@@UBEABUrtti@@XZ 00471480 f i Gamelib:AlienOrb.obj
 0001:00070d50       ?GetRTTI@particle_emitter@@SAABUrtti@@XZ 00471490 f i Gamelib:AlienOrb.obj
 0001:00070db0       ?IsDestroyed@turret@@QAEHXZ 004714f0 f i Gamelib:AlienOrb.obj
 0001:00070dd0       ?GetRTTI@alien_spawn_tube@@SAABUrtti@@XZ 00471510 f i Gamelib:AlienOrb.obj
 0001:00070e30       ?Create@alien_orb_desc@@UAEPAVobject@@XZ 00471570 f i Gamelib:AlienOrb.obj
 0001:00070e50       ??0alien_orb@@QAE@XZ       00471590 f   Gamelib:AlienOrb.obj
 0001:00071160       ??_Galien_orb@@UAEPAXI@Z   004718a0 f i Gamelib:AlienOrb.obj
 0001:00071160       ??_Ealien_orb@@UAEPAXI@Z   004718a0 f i Gamelib:AlienOrb.obj
 0001:00071190       ??1alien_orb@@UAE@XZ       004718d0 f   Gamelib:AlienOrb.obj
 0001:000711f0       ?GetTypeDesc@alien_orb@@UBEABVobject_desc@@XZ 00471930 f   Gamelib:AlienOrb.obj
 0001:00071200       ?OnEnumProp@alien_orb@@UAEXAAVprop_enum@@@Z 00471940 f   Gamelib:AlienOrb.obj
 0001:000714d0       ?OnProperty@alien_orb@@UAEHAAVprop_query@@@Z 00471c10 f   Gamelib:AlienOrb.obj
 0001:00071e40       ?SetDeath@alien_orb@@IAEXXZ 00472580 f   Gamelib:AlienOrb.obj
 0001:000721d0       ?HandleCommonDeath@alien_orb@@IAEXXZ 00472910 f   Gamelib:AlienOrb.obj
 0001:00072320       ?SetDestroyed@alien_orb@@IAEXXZ 00472a60 f   Gamelib:AlienOrb.obj
 0001:000726b0       ?OnAdvanceLogic@alien_orb@@UAEXM@Z 00472df0 f   Gamelib:AlienOrb.obj
 0001:00072c80       ?SwitchState@alien_orb@@IAEXW4state@1@@Z 004733c0 f   Gamelib:AlienOrb.obj
 0001:00072d90       ?GetDistToTarget@alien_orb@@IAEMXZ 004734d0 f   Gamelib:AlienOrb.obj
 0001:00072ea0       ?IsTargetValid@alien_orb@@IAEHXZ 004735e0 f   Gamelib:AlienOrb.obj
 0001:00072f40       ?SelectTargetInVolume@alien_orb@@SA?AUguid@@W4type@object@@ABUbbox@@U2@2@Z 00473680 f   Gamelib:AlienOrb.obj
 0001:00073400       ?FindTarget@alien_orb@@IAEHXZ 00473b40 f   Gamelib:AlienOrb.obj
 0001:00073630       ?LaunchToTarget@alien_orb@@IAEXM@Z 00473d70 f   Gamelib:AlienOrb.obj
 0001:000737e0       ?MoveToTarget@alien_orb@@IAEXM@Z 00473f20 f   Gamelib:AlienOrb.obj
 0001:00073b60       ?OnRender@alien_orb@@UAEXXZ 004742a0 f   Gamelib:AlienOrb.obj
 0001:00073bc0       ?OnTransform@alien_orb@@UAEXABTmatrix4@@@Z 00474300 f   Gamelib:AlienOrb.obj
 0001:00073c40       ?DeactivateOrb@alien_orb@@QAEXXZ 00474380 f   Gamelib:AlienOrb.obj
 0001:00073ca0       ?HandleRenderableStates@alien_orb@@IAEXXZ 004743e0 f   Gamelib:AlienOrb.obj
 0001:00073d40       ?StartMoving@alien_orb@@IAEXXZ 00474480 f   Gamelib:AlienOrb.obj
 0001:00073ff0       ?StopMoving@alien_orb@@IAEXXZ 00474730 f   Gamelib:AlienOrb.obj
 0001:00074030       ?EnterTargetObject@alien_orb@@IAEHXZ 00474770 f   Gamelib:AlienOrb.obj
 0001:000740f0       ?ReserveTarget@alien_orb@@IAEHXZ 00474830 f   Gamelib:AlienOrb.obj
 0001:00074180       ?MoveGeomAndParticles@alien_orb@@IAEXXZ 004748c0 f   Gamelib:AlienOrb.obj
 0001:000742b0       ?SetScriptedPosition@alien_orb@@QAEXUguid@@@Z 004749f0 f   Gamelib:AlienOrb.obj
 0001:00074310       ??0?$object_ptr@Vturret@@@@QAE@PAVobject@@@Z 00474a50 f i Gamelib:AlienOrb.obj
 0001:00074370       ?GetObjectRTTI@level_settings@@UBEABUrtti@@XZ 00474ab0 f i Gamelib:LevelSettings.obj
 0001:00074380       ?Create@level_settings_desc@@UAEPAVobject@@XZ 00474ac0 f i Gamelib:LevelSettings.obj
 0001:000743d0       ?GetTypeDesc@level_settings@@UBEABVobject_desc@@XZ 00474b10 f   Gamelib:LevelSettings.obj
 0001:000743e0       ?OnInit@level_settings@@UAEXXZ 00474b20 f   Gamelib:LevelSettings.obj
 0001:00074430       ?OnEnumProp@level_settings@@UAEXAAVprop_enum@@@Z 00474b70 f   Gamelib:LevelSettings.obj
 0001:00074490       ?OnProperty@level_settings@@UAEHAAVprop_query@@@Z 00474bd0 f   Gamelib:LevelSettings.obj
 0001:00074620       ?GetObjectRTTI@weapon_dual_smp@@UBEABUrtti@@XZ 00474d60 f i Gamelib:WeaponDualSMP.obj
 0001:00074650       ?GetLogicalName@weapon_smp@@UAEPBDXZ 00474d90 f i Gamelib:WeaponSMP.obj
 0001:00074650       ?GetLogicalName@weapon_dual_smp@@UAEPBDXZ 00474d90 f i Gamelib:WeaponDualSMP.obj
 0001:00074660       ?GetTotalSecondaryAmmo@weapon_msn@@UAEHXZ 00474da0 f i Gamelib:WeaponMSN.obj
 0001:00074660       ?GetTotalSecondaryAmmo@weapon_desert_eagle@@UAEHXZ 00474da0 f i Gamelib:WeaponDesertEagle.obj
 0001:00074660       ?GetTotalSecondaryAmmo@weapon_bbg@@UAEHXZ 00474da0 f i Gamelib:WeaponBBG.obj
 0001:00074660       ?GetTotalSecondaryAmmo@weapon_smp@@UAEHXZ 00474da0 f i Gamelib:WeaponSMP.obj
 0001:00074660       ?GetTotalSecondaryAmmo@weapon_tra@@UAEHXZ 00474da0 f i Gamelib:WeaponTRA.obj
 0001:00074660       ?GetTotalSecondaryAmmo@weapon_scanner@@UAEHXZ 00474da0 f i Gamelib:WeaponScanner.obj
 0001:00074660       ?GetTotalSecondaryAmmo@weapon_dual_smp@@UAEHXZ 00474da0 f i Gamelib:WeaponDualSMP.obj
 0001:00074670       ?Create@weapon_dual_smp_desc@@UAEPAVobject@@XZ 00474db0 f i Gamelib:WeaponDualSMP.obj
 0001:00074690       ?GetTypeDesc@weapon_dual_smp@@UBEABVobject_desc@@XZ 00474dd0 f   Gamelib:WeaponDualSMP.obj
 0001:000746a0       ??0weapon_dual_smp@@QAE@XZ 00474de0 f   Gamelib:WeaponDualSMP.obj
 0001:000747b0       ??_Gweapon_dual_smp@@UAEPAXI@Z 00474ef0 f i Gamelib:WeaponDualSMP.obj
 0001:000747b0       ??_Eweapon_dual_smp@@UAEPAXI@Z 00474ef0 f i Gamelib:WeaponDualSMP.obj
 0001:000747e0       ??1weapon_dual_smp@@UAE@XZ 00474f20 f   Gamelib:WeaponDualSMP.obj
 0001:00074830       ?InitWeapon@weapon_dual_smp@@UAEXPBD0ABTvector3@@ABW4render_state@new_weapon@@ABUguid@@@Z 00474f70 f   Gamelib:WeaponDualSMP.obj
 0001:00074880       ?InitWeapon@weapon_dual_smp@@UAEXABTvector3@@W4render_state@new_weapon@@Uguid@@@Z 00474fc0 f   Gamelib:WeaponDualSMP.obj
 0001:000748d0       ?FireWeaponProtected@weapon_dual_smp@@MAEHABTvector3@@0ABMABUradian3@@ABUguid@@H@Z 00475010 f   Gamelib:WeaponDualSMP.obj
 0001:00074b00       ?FireNPCWeaponProtected@weapon_dual_smp@@MAEHABTvector3@@0ABUguid@@MH@Z 00475240 f   Gamelib:WeaponDualSMP.obj
 0001:00074db0       ?OnAdvanceLogic@weapon_smp@@UAEXM@Z 004754f0 f   Gamelib:WeaponSMP.obj
 0001:00074db0       ?OnAdvanceLogic@weapon_dual_smp@@UAEXM@Z 004754f0 f   Gamelib:WeaponDualSMP.obj
 0001:00074e80       ?BeginPrimaryFire@weapon_dual_smp@@UAEXXZ 004755c0 f   Gamelib:WeaponDualSMP.obj
 0001:00074e80       ?BeginAltFire@weapon_smp@@UAEXXZ 004755c0 f   Gamelib:WeaponSMP.obj
 0001:00074e80       ?BeginPrimaryFire@weapon_smp@@UAEXXZ 004755c0 f   Gamelib:WeaponSMP.obj
 0001:00074e80       ?BeginAltFire@weapon_dual_smp@@UAEXXZ 004755c0 f   Gamelib:WeaponDualSMP.obj
 0001:00074f50       ?EndAltFire@weapon_dual_smp@@UAEXXZ 00475690 f   Gamelib:WeaponDualSMP.obj
 0001:00074f50       ?EndPrimaryFire@weapon_dual_smp@@UAEXXZ 00475690 f   Gamelib:WeaponDualSMP.obj
 0001:00075010       ?ReleaseAudio@weapon_dual_smp@@UAEXXZ 00475750 f   Gamelib:WeaponDualSMP.obj
 0001:00075050       ?OnEnumProp@weapon_smp@@UAEXAAVprop_enum@@@Z 00475790 f   Gamelib:WeaponSMP.obj
 0001:00075050       ?OnEnumProp@weapon_dual_smp@@UAEXAAVprop_enum@@@Z 00475790 f   Gamelib:WeaponDualSMP.obj
 0001:00075090       ?OnProperty@weapon_dual_smp@@UAEHAAVprop_query@@@Z 004757d0 f   Gamelib:WeaponDualSMP.obj
 0001:00075170       ?IsAtEnd@simple_anim_player@@QBEHXZ 004758b0 f i Gamelib:ReactiveSurface.obj
 0001:000751a0       ?GetRTTI@reactive_surface@@SAABUrtti@@XZ 004758e0 f i Gamelib:ReactiveSurface.obj
 0001:00075200       ?GetObjectRTTI@reactive_surface@@UBEABUrtti@@XZ 00475940 f i Gamelib:ReactiveSurface.obj
 0001:00075210       ?Create@reactive_surface_desc@@UAEPAVobject@@XZ 00475950 f i Gamelib:ReactiveSurface.obj
 0001:00075230       ?QuickResourceName@glass_surface_desc@@UBEPBDXZ 00475970 f i Gamelib:GlassSurface.obj
 0001:00075230       ?QuickResourceName@anim_surface_desc@@UBEPBDXZ 00475970 f i Gamelib:AnimSurface.obj
 0001:00075230       ?QuickResourceName@cloth_object_desc@@UBEPBDXZ 00475970 f i Gamelib:ClothObject.obj
 0001:00075230       ?QuickResourceName@prop_surface_desc@@UBEPBDXZ 00475970 f i Gamelib:PropSurface.obj
 0001:00075230       ?QuickResourceName@play_surface_desc@@UBEPBDXZ 00475970 f i Gamelib:PlaySurface.obj
 0001:00075230       ?QuickResourceName@turret_desc@@UBEPBDXZ 00475970 f i Gamelib:Turret.obj
 0001:00075230       ?QuickResourceName@team_prop_desc@@UBEPBDXZ 00475970 f i Gamelib:TeamProp.obj
 0001:00075230       ?QuickResourceName@door_desc@@UBEPBDXZ 00475970 f i Gamelib:Door.obj
 0001:00075230       ?QuickResourceName@destructible_obj_desc@@UBEPBDXZ 00475970 f i Gamelib:DestructibleObj.obj
 0001:00075230       ?QuickResourceName@super_destructible_obj_desc@@UBEPBDXZ 00475970 f i Gamelib:SuperDestructible.obj
 0001:00075230       ?QuickResourceName@pickup_desc@@UBEPBDXZ 00475970 f i Gamelib:Pickup.obj
 0001:00075230       ?QuickResourceName@reactive_surface_desc@@UBEPBDXZ 00475970 f i Gamelib:ReactiveSurface.obj
 0001:00075240       ?QuickResourcePropertyName@team_prop_desc@@UBEPBDXZ 00475980 f i Gamelib:TeamProp.obj
 0001:00075240       ?QuickResourcePropertyName@glass_surface_desc@@UBEPBDXZ 00475980 f i Gamelib:GlassSurface.obj
 0001:00075240       ?QuickResourcePropertyName@turret_desc@@UBEPBDXZ 00475980 f i Gamelib:Turret.obj
 0001:00075240       ?QuickResourcePropertyName@hazmat_desc@@UBEPBDXZ 00475980 f i Gamelib:Soldier.obj
 0001:00075240       ?QuickResourcePropertyName@grunt_desc@@UBEPBDXZ 00475980 f i Gamelib:Grunt.obj
 0001:00075240       ?QuickResourcePropertyName@pickup_desc@@UBEPBDXZ 00475980 f i Gamelib:Pickup.obj
 0001:00075240       ?QuickResourcePropertyName@play_surface_desc@@UBEPBDXZ 00475980 f i Gamelib:PlaySurface.obj
 0001:00075240       ?QuickResourcePropertyName@soldier_desc@@UBEPBDXZ 00475980 f i Gamelib:Soldier.obj
 0001:00075240       ?QuickResourcePropertyName@mutant_tank_desc@@UBEPBDXZ 00475980 f i Gamelib:Mutant_Tank.obj
 0001:00075240       ?QuickResourcePropertyName@door_desc@@UBEPBDXZ 00475980 f i Gamelib:Door.obj
 0001:00075240       ?QuickResourcePropertyName@prop_surface_desc@@UBEPBDXZ 00475980 f i Gamelib:PropSurface.obj
 0001:00075240       ?QuickResourcePropertyName@super_destructible_obj_desc@@UBEPBDXZ 00475980 f i Gamelib:SuperDestructible.obj
 0001:00075240       ?QuickResourcePropertyName@gray_desc@@UBEPBDXZ 00475980 f i Gamelib:Gray.obj
 0001:00075240       ?QuickResourcePropertyName@generic_desc@@UBEPBDXZ 00475980 f i Gamelib:GenericNPC.obj
 0001:00075240       ?QuickResourcePropertyName@anim_surface_desc@@UBEPBDXZ 00475980 f i Gamelib:AnimSurface.obj
 0001:00075240       ?QuickResourcePropertyName@cloth_object_desc@@UBEPBDXZ 00475980 f i Gamelib:ClothObject.obj
 0001:00075240       ?QuickResourcePropertyName@destructible_obj_desc@@UBEPBDXZ 00475980 f i Gamelib:DestructibleObj.obj
 0001:00075240       ?QuickResourcePropertyName@reactive_surface_desc@@UBEPBDXZ 00475980 f i Gamelib:ReactiveSurface.obj
 0001:00075240       ?QuickResourcePropertyName@skin_prop_surface_desc@@UBEPBDXZ 00475980 f i Gamelib:SkinPropSurface.obj
 0001:00075250       ??0reactive_surface@@QAE@XZ 00475990 f   Gamelib:ReactiveSurface.obj
 0001:000752a0       ?GetTypeDesc@reactive_surface@@UBEABVobject_desc@@XZ 004759e0 f   Gamelib:ReactiveSurface.obj
 0001:000752b0       ?OnEnumProp@reactive_surface@@UAEXAAVprop_enum@@@Z 004759f0 f   Gamelib:ReactiveSurface.obj
 0001:000754c0       ?OnProperty@reactive_surface@@UAEHAAVprop_query@@@Z 00475c00 f   Gamelib:ReactiveSurface.obj
 0001:000756f0       ?OnAdvanceLogic@reactive_surface@@UAEXM@Z 00475e30 f   Gamelib:ReactiveSurface.obj
 0001:00075920       ?PlayAnim@reactive_surface@@IAEXF@Z 00476060 f   Gamelib:ReactiveSurface.obj
 0001:000759b0       ??Ybbox@@QAEAAU0@ABU0@@Z   004760f0 f i Gamelib:PropSurface.obj
 0001:00075a50       ?GetDebrisMgr@debris_mgr@@SAPAV1@XZ 00476190 f i Gamelib:PropSurface.obj
 0001:00075a80       ?GetObjectRTTI@prop_surface@@UBEABUrtti@@XZ 004761c0 f i Gamelib:PropSurface.obj
 0001:00075a80       ?GetRTTI@prop_surface@@SAABUrtti@@XZ 004761c0 f i Gamelib:PropSurface.obj
 0001:00075ab0       ?Create@prop_surface_desc@@UAEPAVobject@@XZ 004761f0 f i Gamelib:PropSurface.obj
 0001:00075ad0       ?GetTypeDesc@prop_surface@@UBEABVobject_desc@@XZ 00476210 f   Gamelib:PropSurface.obj
 0001:00075ae0       ??0prop_surface@@QAE@XZ    00476220 f   Gamelib:PropSurface.obj
 0001:00075ba0       ??_Gprop_surface@@UAEPAXI@Z 004762e0 f i Gamelib:PropSurface.obj
 0001:00075ba0       ??_Eprop_surface@@UAEPAXI@Z 004762e0 f i Gamelib:PropSurface.obj
 0001:00075bd0       ??1prop_surface@@UAE@XZ    00476310 f   Gamelib:PropSurface.obj
 0001:00075c40       ?OnPain@prop_surface@@UAEXABVpain@@@Z 00476380 f   Gamelib:PropSurface.obj
 0001:00075e70       ?OnAdvanceLogic@prop_surface@@UAEXM@Z 004765b0 f   Gamelib:PropSurface.obj
 0001:00075e90       ?OnEnumProp@prop_surface@@UAEXAAVprop_enum@@@Z 004765d0 f   Gamelib:PropSurface.obj
 0001:00075f90       ?OnProperty@prop_surface@@UAEHAAVprop_query@@@Z 004766d0 f   Gamelib:PropSurface.obj
 0001:00076490       ?OnRender@prop_surface@@UAEXXZ 00476bd0 f   Gamelib:PropSurface.obj
 0001:00076560       ?OnPolyCacheGather@prop_surface@@UAEXXZ 00476ca0 f   Gamelib:PropSurface.obj
 0001:00076570       ?OnColCheck@prop_surface@@UAEXXZ 00476cb0 f   Gamelib:PropSurface.obj
 0001:00076590       ?OnMove@prop_surface@@UAEXABTvector3@@@Z 00476cd0 f   Gamelib:PropSurface.obj
 0001:000766f0       ?OnTransform@prop_surface@@UAEXABTmatrix4@@@Z 00476e30 f   Gamelib:PropSurface.obj
 0001:00076840       ?GetObjectRTTI@weapon_msn@@UBEABUrtti@@XZ 00476f80 f i Gamelib:WeaponMSN.obj
 0001:00076870       ?GetLogicalName@weapon_msn@@UAEPBDXZ 00476fb0 f i Gamelib:WeaponMSN.obj
 0001:00076880       ?Create@weapon_msn_desc@@UAEPAVobject@@XZ 00476fc0 f i Gamelib:WeaponMSN.obj
 0001:000768a0       ?GetTypeDesc@weapon_msn@@UBEABVobject_desc@@XZ 00476fe0 f   Gamelib:WeaponMSN.obj
 0001:000768b0       ??0weapon_msn@@QAE@XZ      00476ff0 f   Gamelib:WeaponMSN.obj
 0001:00076af0       ??_Eweapon_msn@@UAEPAXI@Z  00477230 f i Gamelib:WeaponMSN.obj
 0001:00076af0       ??_Gweapon_msn@@UAEPAXI@Z  00477230 f i Gamelib:WeaponMSN.obj
 0001:00076b20       ??1weapon_msn@@UAE@XZ      00477260 f   Gamelib:WeaponMSN.obj
 0001:00076bc0       ?OnEnumProp@weapon_msn@@UAEXAAVprop_enum@@@Z 00477300 f   Gamelib:WeaponMSN.obj
 0001:00076cc0       ?OnProperty@weapon_msn@@UAEHAAVprop_query@@@Z 00477400 f   Gamelib:WeaponMSN.obj
 0001:000771d0       ?InitWeapon@weapon_msn@@UAEXPBD0ABTvector3@@ABW4render_state@new_weapon@@ABUguid@@@Z 00477910 f   Gamelib:WeaponMSN.obj
 0001:00077270       ?InitWeapon@weapon_msn@@UAEXABTvector3@@W4render_state@new_weapon@@Uguid@@@Z 004779b0 f   Gamelib:WeaponMSN.obj
 0001:00077300       ?ResetWeapon@weapon_msn@@UAEXXZ 00477a40 f   Gamelib:WeaponMSN.obj
 0001:00077390       ?OnAdvanceLogic@weapon_msn@@UAEXM@Z 00477ad0 f   Gamelib:WeaponMSN.obj
 0001:000773d0       ?UpdateReticle@weapon_msn@@MAEXM@Z 00477b10 f   Gamelib:WeaponMSN.obj
 0001:00077490       ?SetupRenderInformation@weapon_msn@@UAEXXZ 00477bd0 f   Gamelib:WeaponMSN.obj
 0001:00077490       ?SetupRenderInformation@weapon_bbg@@UAEXXZ 00477bd0 f   Gamelib:WeaponBBG.obj
 0001:00077510       ?GetFiringStartPosition@weapon_msn@@UAEHAATvector3@@@Z 00477c50 f   Gamelib:WeaponMSN.obj
 0001:00077570       ?FireWeaponProtected@weapon_msn@@MAEHABTvector3@@0ABMABUradian3@@ABUguid@@H@Z 00477cb0 f   Gamelib:WeaponMSN.obj
 0001:00077820       ?FireSecondaryProtected@weapon_msn@@MAEHABTvector3@@0ABMABUradian3@@ABUguid@@H@Z 00477f60 f   Gamelib:WeaponMSN.obj
 0001:00077b70       ?FireNPCWeaponProtected@weapon_msn@@MAEHABTvector3@@0ABUguid@@MH@Z 004782b0 f   Gamelib:WeaponMSN.obj
 0001:00077f50       ?FireGhostPrimary@weapon_msn@@UAEHHHAATvector3@@@Z 00478690 f   Gamelib:WeaponMSN.obj
 0001:00078120       ?BeginAltRampUp@weapon_msn@@UAEXXZ 00478860 f   Gamelib:WeaponMSN.obj
 0001:00078180       ?EndAltRampUp@weapon_msn@@UAEXHH@Z 004788c0 f   Gamelib:WeaponMSN.obj
 0001:000781d0       ?EndAltHold@weapon_msn@@UAEXH@Z 00478910 f   Gamelib:WeaponMSN.obj
 0001:00078220       ?KillFire@weapon_msn@@IAEXXZ 00478960 f   Gamelib:WeaponMSN.obj
 0001:00078300       ?MoveMuzzleFx@weapon_msn@@MAEXXZ 00478a40 f   Gamelib:WeaponMSN.obj
 0001:00078320       ?CanFire@weapon_msn@@UAEHH@Z 00478a60 f   Gamelib:WeaponMSN.obj
 0001:00078350       ?ReleaseAudio@weapon_msn@@UAEXXZ 00478a90 f   Gamelib:WeaponMSN.obj
 0001:000783c0       ?UpdateReloadFx@weapon_msn@@IAEXXZ 00478b00 f   Gamelib:WeaponMSN.obj
 0001:00078550       ?UpdateChargeUpFx@weapon_msn@@IAEXXZ 00478c90 f   Gamelib:WeaponMSN.obj
 0001:00078880       ?DestroyChargeUpFx@weapon_msn@@IAEXXZ 00478fc0 f   Gamelib:WeaponMSN.obj
 0001:00078920       ?CanSwitchIdleAnim@weapon_bbg@@UAEHXZ 00479060 f   Gamelib:WeaponBBG.obj
 0001:00078920       ?CanSwitchIdleAnim@weapon_msn@@UAEHXZ 00479060 f   Gamelib:WeaponMSN.obj
 0001:00078960       ?BeginSwitchFrom@weapon_msn@@UAEXXZ 004790a0 f   Gamelib:WeaponMSN.obj
 0001:000789d0       ?BeginIdle@weapon_msn@@UAEXXZ 00479110 f   Gamelib:WeaponMSN.obj
 0001:000789f0       ?EndIdle@weapon_msn@@UAEXXZ 00479130 f   Gamelib:WeaponMSN.obj
 0001:00078a30       ?DecrementAmmo@weapon_msn@@UAEXABW4ammo_priority@new_weapon@@ABH@Z 00479170 f   Gamelib:WeaponMSN.obj
 0001:00078b00       ?GetObjectRTTI@controller@@UBEABUrtti@@XZ 00479240 f i Gamelib:Controller.obj
 0001:00078b30       ?Create@controller_desc@@UAEPAVobject@@XZ 00479270 f i Gamelib:Controller.obj
 0001:00078b50       ?GetTypeDesc@controller@@UBEABVobject_desc@@XZ 00479290 f   Gamelib:Controller.obj
 0001:00078b60       ??0controller@@QAE@XZ      004792a0 f   Gamelib:Controller.obj
 0001:00078c90       ?OnEnumProp@controller@@UAEXAAVprop_enum@@@Z 004793d0 f   Gamelib:Controller.obj
 0001:00078d90       ?OnProperty@controller@@UAEHAAVprop_query@@@Z 004794d0 f   Gamelib:Controller.obj
 0001:00079040       ?MoveObject@controller@@IBEXHABTmatrix4@@@Z 00479780 f   Gamelib:Controller.obj
 0001:00079150       ?OnMove@controller@@UAEXABTvector3@@@Z 00479890 f   Gamelib:Controller.obj
 0001:00079220       ?OnTransform@controller@@UAEXABTmatrix4@@@Z 00479960 f   Gamelib:Controller.obj
 0001:00079350       ?OnAdvanceLogic@camera@@MAEXM@Z 00479a90 f   Gamelib:Camera.obj
 0001:00079350       ?OnAdvanceLogic@controller@@MAEXM@Z 00479a90 f   Gamelib:Controller.obj
 0001:00079360       ?GetRTTI@event_sound_emitter@@SAABUrtti@@XZ 00479aa0 f i Gamelib:EventSoundEmitter.obj
 0001:000793c0       ?GetObjectRTTI@event_sound_emitter@@UBEABUrtti@@XZ 00479b00 f i Gamelib:EventSoundEmitter.obj
 0001:000793d0       ?GetParentGuid@event_sound_emitter@@UAE?AUguid@@XZ 00479b10 f i Gamelib:EventSoundEmitter.obj
 0001:000793f0       ?GetRTTI@voice_event@@SAABUrtti@@XZ 00479b30 f i Gamelib:EventSoundEmitter.obj
 0001:00079450       ?GetObjectRTTI@voice_event@@UBEABUrtti@@XZ 00479b90 f i Gamelib:EventSoundEmitter.obj
 0001:00079460       ?GetRTTI@dialog_event@@SAABUrtti@@XZ 00479ba0 f i Gamelib:EventSoundEmitter.obj
 0001:000794c0       ?GetObjectRTTI@dialog_event@@UBEABUrtti@@XZ 00479c00 f i Gamelib:EventSoundEmitter.obj
 0001:000794d0       ?GetRTTI@net_ghost@@SAABUrtti@@XZ 00479c10 f i Gamelib:EventSoundEmitter.obj
 0001:00079530       ?Create@event_sound_emitter_desc@@UAEPAVobject@@XZ 00479c70 f i Gamelib:EventSoundEmitter.obj
 0001:00079550       ?GetTypeDesc@event_sound_emitter@@UBEABVobject_desc@@XZ 00479c90 f   Gamelib:EventSoundEmitter.obj
 0001:00079560       ??0event_sound_emitter@@QAE@XZ 00479ca0 f   Gamelib:EventSoundEmitter.obj
 0001:000795e0       ?OnAdvanceLogic@event_sound_emitter@@UAEXM@Z 00479d20 f   Gamelib:EventSoundEmitter.obj
 0001:000796e0       ?PlayEmitter@event_sound_emitter@@QAEXPBDAATvector3@@GW4sound_type@1@Uguid@@IMHMH@Z 00479e20 f   Gamelib:EventSoundEmitter.obj
 0001:00079c80       ?StartEmitter@event_sound_emitter@@IAEXXZ 0047a3c0 f   Gamelib:EventSoundEmitter.obj
 0001:0007a380       ?StartEmitter2D@event_sound_emitter@@IAEXXZ 0047aac0 f   Gamelib:EventSoundEmitter.obj
 0001:0007a5d0       ?OnMove@event_sound_emitter@@UAEXABTvector3@@@Z 0047ad10 f   Gamelib:EventSoundEmitter.obj
 0001:0007a640       ?GetLocalBBox@particle_event_emitter@@UBE?AUbbox@@XZ 0047ad80 f   Gamelib:ParticleEventEmitter.obj
 0001:0007a640       ?GetLocalBBox@event_sound_emitter@@UBE?AUbbox@@XZ 0047ad80 f   Gamelib:EventSoundEmitter.obj
 0001:0007a690       ?GetMaterialType@event_sound_emitter@@QAEPBDXZ 0047add0 f   Gamelib:EventSoundEmitter.obj
 0001:0007a860       ?GetMaterialName@event_sound_emitter@@QAEPBDH@Z 0047afa0 f   Gamelib:EventSoundEmitter.obj
 0001:0007a9a0       ?GetObjectRTTI@pickup@@UBEABUrtti@@XZ 0047b0e0 f i Gamelib:Pickup.obj
 0001:0007a9d0       ?IsActive@pickup@@UAEHXZ   0047b110 f i Gamelib:Pickup.obj
 0001:0007a9e0       ?GetRenderInstPtr@pickup@@UAEPAVrender_inst@@XZ 0047b120 f i Gamelib:Pickup.obj
 0001:0007a9f0       ?Create@pickup_desc@@UAEPAVobject@@XZ 0047b130 f i Gamelib:Pickup.obj
 0001:0007aa10       ?GetTypeDesc@pickup@@UBEABVobject_desc@@XZ 0047b150 f   Gamelib:Pickup.obj
 0001:0007aa20       ?CreatePickup@pickup@@SAPAV1@Uguid@@HW4inven_item@@MMABTvector3@@ABUradian3@@2HH@Z 0047b160 f   Gamelib:Pickup.obj
 0001:0007ac10       ??0pickup@@QAE@XZ          0047b350 f   Gamelib:Pickup.obj
 0001:0007adf0       ??_Gpickup@@UAEPAXI@Z      0047b530 f i Gamelib:Pickup.obj
 0001:0007adf0       ??_Epickup@@UAEPAXI@Z      0047b530 f i Gamelib:Pickup.obj
 0001:0007ae50       ?OnEnumProp@pickup@@UAEXAAVprop_enum@@@Z 0047b590 f   Gamelib:Pickup.obj
 0001:0007afa0       ?OnProperty@pickup@@UAEHAAVprop_query@@@Z 0047b6e0 f   Gamelib:Pickup.obj
 0001:0007b350       ?OnRender@pickup@@UAEXXZ   0047ba90 f   Gamelib:Pickup.obj
 0001:0007b450       ?OnActivate@pickup@@UAEXH@Z 0047bb90 f   Gamelib:Pickup.obj
 0001:0007b460       ?GetLocalBBox@pickup@@UBE?AUbbox@@XZ 0047bba0 f   Gamelib:Pickup.obj
 0001:0007b5a0       ?OnColCheck@pickup@@UAEXXZ 0047bce0 f   Gamelib:Pickup.obj
 0001:0007b5f0       ?OnAdvanceLogic@pickup@@MAEXM@Z 0047bd30 f   Gamelib:Pickup.obj
 0001:0007bc40       ?OnColNotify@pickup@@MAEXAAVobject@@@Z 0047c380 f   Gamelib:Pickup.obj
 0001:0007bcd0       ?ProcessTake@pickup@@IAEXAAVactor@@@Z 0047c410 f   Gamelib:Pickup.obj
 0001:0007c0a0       ?SetupRigidGeom@pickup@@IAEXPBD@Z 0047c7e0 f   Gamelib:Pickup.obj
 0001:0007c0e0       ?net_AcceptUpdate@pickup@@UAEXABVbitstream@@@Z 0047c820 f   Gamelib:Pickup.obj
 0001:0007c760       ?net_ProvideUpdate@pickup@@UAEXAAVbitstream@@AAI@Z 0047cea0 f   Gamelib:Pickup.obj
 0001:0007c890       ?net_GetUpdateMask@pickup@@UBEIH@Z 0047cfd0 f   Gamelib:Pickup.obj
 0001:0007c8b0       ?GetRTTI@ground_zero_core_obj@@CAABUrtti@@XZ 0047cff0 f i Gamelib:GZCoreObj.obj
 0001:0007c910       ?GetObjectRTTI@ground_zero_core_obj@@EBEABUrtti@@XZ 0047d050 f i Gamelib:GZCoreObj.obj
 0001:0007c920       ?GetLogicalName@ground_zero_core_obj@@UAEPBDXZ 0047d060 f i Gamelib:GZCoreObj.obj
 0001:0007c920       ?GetLogicalName@feedback_emitter@@UAEPBDXZ 0047d060 f i Gamelib:feedbackemitter.obj
 0001:0007c930       ?Create@ground_zero_core_obj_desc@@UAEPAVobject@@XZ 0047d070 f i Gamelib:GZCoreObj.obj
 0001:0007c950       ?GetTypeDesc@ground_zero_core_obj@@UBEABVobject_desc@@XZ 0047d090 f   Gamelib:GZCoreObj.obj
 0001:0007c960       ??0ground_zero_core_obj@@QAE@XZ 0047d0a0 f   Gamelib:GZCoreObj.obj
 0001:0007ca40       ?GetLocalBBox@ground_zero_core_obj@@UBE?AUbbox@@XZ 0047d180 f   Gamelib:GZCoreObj.obj
 0001:0007cab0       ?OnAdvanceLogic@ground_zero_core_obj@@UAEXM@Z 0047d1f0 f   Gamelib:GZCoreObj.obj
 0001:0007ce10       ?OnEnumProp@ground_zero_core_obj@@UAEXAAVprop_enum@@@Z 0047d550 f   Gamelib:GZCoreObj.obj
 0001:0007ceb0       ?OnProperty@ground_zero_core_obj@@UAEHAAVprop_query@@@Z 0047d5f0 f   Gamelib:GZCoreObj.obj
 0001:0007cf90       ?GetObjectRTTI@mesonseeker_projectile@@UBEABUrtti@@XZ 0047d6d0 f i Gamelib:ProjectileMesonSeeker.obj
 0001:0007cfc0       ?SetTarget@mesonseeker_projectile@@UAEXUguid@@@Z 0047d700 f i Gamelib:ProjectileMesonSeeker.obj
 0001:0007cfe0       ?Create@mesonseeker_projectile_desc@@UAEPAVobject@@XZ 0047d720 f i Gamelib:ProjectileMesonSeeker.obj
 0001:0007d000       ?GetTypeDesc@mesonseeker_projectile@@UBEABVobject_desc@@XZ 0047d740 f   Gamelib:ProjectileMesonSeeker.obj
 0001:0007d010       ??0mesonseeker_projectile@@QAE@XZ 0047d750 f   Gamelib:ProjectileMesonSeeker.obj
 0001:0007d1c0       ??_Gmesonseeker_projectile@@UAEPAXI@Z 0047d900 f i Gamelib:ProjectileMesonSeeker.obj
 0001:0007d1c0       ??_Emesonseeker_projectile@@UAEPAXI@Z 0047d900 f i Gamelib:ProjectileMesonSeeker.obj
 0001:0007d1f0       ??1mesonseeker_projectile@@UAE@XZ 0047d930 f   Gamelib:ProjectileMesonSeeker.obj
 0001:0007d240       ?Setup@mesonseeker_projectile@@QAEXUguid@@HABTvector3@@ABUradian3@@1HHVpain_handle@@W4firing_stage@@@Z 0047d980 f   Gamelib:ProjectileMesonSeeker.obj
 0001:0007d2f0       ?SetStart@mesonseeker_projectile@@UAEXABTvector3@@ABUradian3@@0HHM@Z 0047da30 f   Gamelib:ProjectileMesonSeeker.obj
 0001:0007d350       ?GetLocalBBox@mesonseeker_projectile@@UBE?AUbbox@@XZ 0047da90 f   Gamelib:ProjectileMesonSeeker.obj
 0001:0007d400       ?OnAdvanceLogic@mesonseeker_projectile@@UAEXM@Z 0047db40 f   Gamelib:ProjectileMesonSeeker.obj
 0001:0007d650       ?OnImpact@mesonseeker_projectile@@UAEXAAUcollision@collision_mgr@@PAVobject@@@Z 0047dd90 f   Gamelib:ProjectileMesonSeeker.obj
 0001:0007d6a0       ?OnExplode@mesonseeker_projectile@@UAEXXZ 0047dde0 f   Gamelib:ProjectileMesonSeeker.obj
 0001:0007dbb0       ?OnMove@mesonseeker_projectile@@UAEXABTvector3@@@Z 0047e2f0 f   Gamelib:ProjectileMesonSeeker.obj
 0001:0007dbd0       ?OnRender@mesonseeker_projectile@@UAEXXZ 0047e310 f   Gamelib:ProjectileMesonSeeker.obj
 0001:0007dc40       ?LoadEffect@mesonseeker_projectile@@QAEHPBDABTvector3@@ABUradian3@@@Z 0047e380 f   Gamelib:ProjectileMesonSeeker.obj
 0001:0007dcc0       ?DestroyParticles@mesonseeker_projectile@@QAEXXZ 0047e400 f   Gamelib:ProjectileMesonSeeker.obj
 0001:0007dd10       ?UpdateParticles@mesonseeker_projectile@@QAEXABTvector3@@@Z 0047e450 f   Gamelib:ProjectileMesonSeeker.obj
 0001:0007de80       ?GetAnimInfo@loco_anim_controller@@QBEABVanim_info@@XZ 0047e5c0 f i Gamelib:Mutant_Tank.obj
 0001:0007dea0       ?IsAtEnd@loco_char_anim_player@@QBEHXZ 0047e5e0 f i Gamelib:Mutant_Tank.obj
 0001:0007def0       ?GetObjectRTTI@mutant_tank@@UBEABUrtti@@XZ 0047e630 f i Gamelib:Mutant_Tank.obj
 0001:0007def0       ?GetRTTI@mutant_tank@@SAABUrtti@@XZ 0047e630 f i Gamelib:Mutant_Tank.obj
 0001:0007df20       ?GetLogicalName@mutant_tank@@UAEPBDXZ 0047e660 f i Gamelib:Mutant_Tank.obj
 0001:0007df30       ?SetColor@particle_emitter@@QAEXUxcolor@@@Z 0047e670 f i Gamelib:Mutant_Tank.obj
 0001:0007df60       ?GetRTTI@particle_event_emitter@@SAABUrtti@@XZ 0047e6a0 f i Gamelib:Mutant_Tank.obj
 0001:0007dfc0       ?Create@mutant_tank_desc@@UAEPAVobject@@XZ 0047e700 f i Gamelib:Mutant_Tank.obj
 0001:0007dfe0       ?GetTypeDesc@mutant_tank@@UBEABVobject_desc@@XZ 0047e720 f   Gamelib:Mutant_Tank.obj
 0001:0007dff0       ??0mutant_tank@@QAE@XZ     0047e730 f   Gamelib:Mutant_Tank.obj
 0001:0007e3f0       ??_Gmutant_tank@@UAEPAXI@Z 0047eb30 f i Gamelib:Mutant_Tank.obj
 0001:0007e3f0       ??_Emutant_tank@@UAEPAXI@Z 0047eb30 f i Gamelib:Mutant_Tank.obj
 0001:0007e420       ??1mutant_tank@@UAE@XZ     0047eb60 f   Gamelib:Mutant_Tank.obj
 0001:0007e580       ?OnAdvanceLogic@mutant_tank@@UAEXM@Z 0047ecc0 f   Gamelib:Mutant_Tank.obj
 0001:0007e590       ?KillMe@mutant_tank@@UAEXXZ 0047ecd0 f   Gamelib:Mutant_Tank.obj
 0001:0007e710       ?InitFx@mutant_tank@@AAEXAAU?$rhandle@D@@AAVfx_handle@@@Z 0047ee50 f   Gamelib:Mutant_Tank.obj
 0001:0007e790       ?KillFx@mutant_tank@@AAEXAAVfx_handle@@@Z 0047eed0 f   Gamelib:Mutant_Tank.obj
 0001:0007e820       ?RestartFx@mutant_tank@@AAEXAAVfx_handle@@@Z 0047ef60 f   Gamelib:Mutant_Tank.obj
 0001:0007e890       ?MoveFx@mutant_tank@@AAEXAAVfx_handle@@ABTmatrix4@@@Z 0047efd0 f   Gamelib:Mutant_Tank.obj
 0001:0007e900       ?MoveFx@mutant_tank@@AAEXAAVfx_handle@@H@Z 0047f040 f   Gamelib:Mutant_Tank.obj
 0001:0007ea50       ?InitFx@mutant_tank@@AAEXXZ 0047f190 f   Gamelib:Mutant_Tank.obj
 0001:0007eb30       ?KillFx@mutant_tank@@AAEXXZ 0047f270 f   Gamelib:Mutant_Tank.obj
 0001:0007eb80       ?MoveObject@mutant_tank@@AAEXUguid@@H@Z 0047f2c0 f   Gamelib:Mutant_Tank.obj
 0001:0007ed30       ?UpdateSporesAndFx@mutant_tank@@AAEXM@Z 0047f470 f   Gamelib:Mutant_Tank.obj
 0001:0007f000       ?RenderFx@mutant_tank@@AAEXXZ 0047f740 f   Gamelib:Mutant_Tank.obj
 0001:0007f0d0       ?LaunchParasite@mutant_tank@@QAEXABTvector3@@@Z 0047f810 f   Gamelib:Mutant_Tank.obj
 0001:0007f290       ?LaunchProjectile@mutant_tank@@QAEXABTvector3@@@Z 0047f9d0 f   Gamelib:Mutant_Tank.obj
 0001:0007f4b0       ?OnEvent@mutant_tank@@UAEXABUevent@@@Z 0047fbf0 f   Gamelib:Mutant_Tank.obj
 0001:0007f6e0       ?OnPain@mutant_tank@@UAEXABVpain@@@Z 0047fe20 f   Gamelib:Mutant_Tank.obj
 0001:0007f980       ?OnChildPain@mutant_tank@@UAEHUguid@@ABVpain@@@Z 004800c0 f   Gamelib:Mutant_Tank.obj
 0001:0007fab0       ?PlayImpactAnim@mutant_tank@@UAEXABVpain@@W4eHitType@actor@@@Z 004801f0 f   Gamelib:Mutant_Tank.obj
 0001:0007fbb0       ?TakeDamage@mutant_tank@@UAEHABVpain@@@Z 004802f0 f   Gamelib:Mutant_Tank.obj
 0001:0007fcf0       ?OnRender@mutant_tank@@UAEXXZ 00480430 f   Gamelib:Mutant_Tank.obj
 0001:0007fdb0       ?OnRenderTransparent@mutant_tank@@UAEXXZ 004804f0 f   Gamelib:Mutant_Tank.obj
 0001:0007fdc0       ?OnEnumProp@mutant_tank@@UAEXAAVprop_enum@@@Z 00480500 f   Gamelib:Mutant_Tank.obj
 0001:000800d0       ?OnProperty@mutant_tank@@UAEHAAVprop_query@@@Z 00480810 f   Gamelib:Mutant_Tank.obj
 0001:00080420       ?GetWithinGrateHoppointRadius@mutant_tank@@QAEHXZ 00480b60 f   Gamelib:Mutant_Tank.obj
 0001:000804c0       ?GetWithinPerchHoppointRadius@mutant_tank@@QAEHXZ 00480c00 f   Gamelib:Mutant_Tank.obj
 0001:00080560       ?AdvanceLoco@mutant_tank@@UAEXM@Z 00480ca0 f   Gamelib:Mutant_Tank.obj
 0001:00080660       ?GetSporeObject@mutant_tank@@QAEPAVsuper_destructible_obj@@H@Z 00480da0 f   Gamelib:Mutant_Tank.obj
 0001:000806c0       ?GetRandomSporeObject@mutant_tank@@QAEPAVsuper_destructible_obj@@XZ 00480e00 f   Gamelib:Mutant_Tank.obj
 0001:00080790       ?GetRandomSporePosition@mutant_tank@@QAE?ATvector3@@XZ 00480ed0 f   Gamelib:Mutant_Tank.obj
 0001:00080820       ?GetSporeHealth@mutant_tank@@QBEMH@Z 00480f60 f   Gamelib:Mutant_Tank.obj
 0001:00080860       ?GetAllSporesHealth@mutant_tank@@QBEMXZ 00480fa0 f   Gamelib:Mutant_Tank.obj
 0001:00080900       ?GetSporeIndex@mutant_tank@@QBEHUguid@@@Z 00481040 f   Gamelib:Mutant_Tank.obj
 0001:00080930       ?GetClosestSpore@mutant_tank@@QAEHABTvector3@@MM@Z 00481070 f   Gamelib:Mutant_Tank.obj
 0001:00080a70       ?GetSporeWithHealth@mutant_tank@@QAEHH@Z 004811b0 f   Gamelib:Mutant_Tank.obj
 0001:00080b80       ?ApplyPainToSpore@mutant_tank@@QAEHHABVpain@@@Z 004812c0 f   Gamelib:Mutant_Tank.obj
 0001:00080c40       ?GetCanisterCount@mutant_tank@@QBEHXZ 00481380 f   Gamelib:Mutant_Tank.obj
 0001:00080cd0       ?GetClosestCanister@mutant_tank@@QBEHABTvector3@@MM@Z 00481410 f   Gamelib:Mutant_Tank.obj
 0001:00080d90       ?BeginJump@mutant_tank@@QAEXW4anim_type@loco@@ABTvector3@@MHH@Z 004814d0 f   Gamelib:Mutant_Tank.obj
 0001:00080e50       ?UpdateJump@mutant_tank@@QAEHXZ 00481590 f   Gamelib:Mutant_Tank.obj
 0001:000810f0       ?InitParasiteShield@mutant_tank@@QAEXXZ 00481830 f   Gamelib:Mutant_Tank.obj
 0001:00081330       ?UpdateParasiteShield@mutant_tank@@QAEXM@Z 00481a70 f   Gamelib:Mutant_Tank.obj
 0001:00081710       ?CompareAxisInfo@@YAHPBX0@Z 00481e50 f   Gamelib:CokeCan.obj
 0001:00081740       ?RegenParasiteShield@mutant_tank@@QAEXM@Z 00481e80 f   Gamelib:Mutant_Tank.obj
 0001:00081d20       ?CreateParasiteShieldContagion@mutant_tank@@QAEXXZ 00482460 f   Gamelib:Mutant_Tank.obj
 0001:00081e40       ?CreateContagion@mutant_tank@@QAEXABTvector3@@ABUradian3@@0PBDMUguid@@@Z 00482580 f   Gamelib:Mutant_Tank.obj
 0001:00081f30       ??0?$object_ptr@Vsuper_destructible_obj@@@@QAE@ABUguid@@@Z 00482670 f i Gamelib:Mutant_Tank.obj
 0001:00081f80       ??0?$object_ptr@Vparticle_emitter@@@@QAE@ABUguid@@@Z 004826c0 f i Gamelib:Mutant_Tank.obj
 0001:00081fe0       ?GetObjectRTTI@team_prop@@UBEABUrtti@@XZ 00482720 f i Gamelib:TeamProp.obj
 0001:00082010       ?Create@team_prop_desc@@UAEPAVobject@@XZ 00482750 f i Gamelib:TeamProp.obj
 0001:00082030       ?GetTypeDesc@team_prop@@UBEABVobject_desc@@XZ 00482770 f   Gamelib:TeamProp.obj
 0001:00082040       ??0team_prop@@QAE@XZ       00482780 f   Gamelib:TeamProp.obj
 0001:00082090       ?OnRender@team_prop@@MAEXXZ 004827d0 f   Gamelib:TeamProp.obj
 0001:00082240       ?OnAdvanceLogic@team_prop@@MAEXM@Z 00482980 f   Gamelib:TeamProp.obj
 0001:000822c0       ?OnEnumProp@team_prop@@UAEXAAVprop_enum@@@Z 00482a00 f   Gamelib:TeamProp.obj
 0001:00082320       ?OnProperty@team_prop@@UAEHAAVprop_query@@@Z 00482a60 f   Gamelib:TeamProp.obj
 0001:00082370       ?GetRTTI@debris@@SAABUrtti@@XZ 00482ab0 f i Gamelib:debris.obj
 0001:000823d0       ?GetObjectRTTI@debris@@UBEABUrtti@@XZ 00482b10 f i Gamelib:debris.obj
 0001:000823e0       ?Create@debris_desc@@UAEPAVobject@@XZ 00482b20 f i Gamelib:debris.obj
 0001:00082400       ?GetTypeDesc@debris@@UBEABVobject_desc@@XZ 00482b40 f   Gamelib:debris.obj
 0001:00082410       ??0debris@@QAE@XZ          00482b50 f   Gamelib:debris.obj
 0001:00082490       ?Create@debris@@UAEXPBDABTvector3@@1MH@Z 00482bd0 f   Gamelib:debris.obj
 0001:00082490       ?Create@debris@@UAEXAAVrigid_inst@@ABTvector3@@1MH@Z 00482bd0 f   Gamelib:debris.obj
 0001:000824f0       ?GetLocalBBox@debris@@UBE?AUbbox@@XZ 00482c30 f   Gamelib:debris.obj
 0001:00082560       ?OnAdvanceLogic@debris@@UAEXM@Z 00482ca0 f   Gamelib:debris.obj
 0001:00082630       ?UpdatePhysics@debris@@UAEXM@Z 00482d70 f   Gamelib:debris.obj
 0001:00082660       ?OnRender@debris@@UAEXXZ   00482da0 f   Gamelib:debris.obj
 0001:00082710       ?OnBounce@debris@@UAEXXZ   00482e50 f   Gamelib:debris.obj
 0001:00082970       ?OnProcessCollision@debris@@QAE?ATvector3@@M@Z 004830b0 f   Gamelib:debris.obj
 0001:00082d90       ?GetRTTI@force_field@@SAABUrtti@@XZ 004834d0 f i Gamelib:ForceField.obj
 0001:00082df0       ?GetObjectRTTI@force_field@@UBEABUrtti@@XZ 00483530 f i Gamelib:ForceField.obj
 0001:00082e00       ?Create@force_field_desc@@UAEPAVobject@@XZ 00483540 f i Gamelib:ForceField.obj
 0001:00082e20       ?GetTypeDesc@force_field@@UBEABVobject_desc@@XZ 00483560 f   Gamelib:ForceField.obj
 0001:00082e30       ??0force_field@@QAE@XZ     00483570 f   Gamelib:ForceField.obj
 0001:00082f20       ??_Eforce_field@@UAEPAXI@Z 00483660 f i Gamelib:ForceField.obj
 0001:00082f20       ??_Gforce_field@@UAEPAXI@Z 00483660 f i Gamelib:ForceField.obj
 0001:00082f70       ?CreateVertices@force_field@@QAEXXZ 004836b0 f   Gamelib:ForceField.obj
 0001:000831d0       ?OnColCheck@force_field@@UAEXXZ 00483910 f   Gamelib:ForceField.obj
 0001:000834c0       ?OnPolyCacheGather@force_field@@UAEXXZ 00483c00 f   Gamelib:ForceField.obj
 0001:000847f0       ?Interpolate@@YA?AUxcolor@@U1@0M@Z 00484f30 f i Gamelib:ForceField.obj
 0001:000848d0       ?OnRenderTransparent@force_field@@MAEXXZ 00485010 f   Gamelib:ForceField.obj
 0001:000859c0       ?GetLocalBBox@force_field@@UBE?AUbbox@@XZ 00486100 f   Gamelib:ForceField.obj
 0001:00085a60       ?OnAdvanceLogic@force_field@@MAEXM@Z 004861a0 f   Gamelib:ForceField.obj
 0001:00085f60       ?OnEnumProp@force_field@@UAEXAAVprop_enum@@@Z 004866a0 f   Gamelib:ForceField.obj
 0001:00086010       ?OnProperty@force_field@@UAEHAAVprop_query@@@Z 00486750 f   Gamelib:ForceField.obj
 0001:000861f0       ?OnPain@force_field@@UAEXABVpain@@@Z 00486930 f   Gamelib:ForceField.obj
 0001:00086210       ?GetObjectRTTI@mutant_tendril_projectile@@UBEABUrtti@@XZ 00486950 f i Gamelib:ProjectileMutantTendril.obj
 0001:00086240       ?GetAnimGroup@loco_char_anim_player@@QBEPBVanim_group@@XZ 00486980 f i Gamelib:ProjectileMutantTendril.obj
 0001:00086280       ?HasAnimGroup@loco_char_anim_player@@QBEHXZ 004869c0 f i Gamelib:ProjectileMutantTendril.obj
 0001:000862e0       ?GetBoneIndex@loco_char_anim_player@@QBEHPBD@Z 00486a20 f i Gamelib:ProjectileMutantTendril.obj
 0001:00086350       ?IsKindOf@netobj@@QBE?BHABUrtti@@@Z 00486a90 f i Gamelib:NetProjectile.obj
 0001:00086350       ?IsKindOf@actions_ex_base@@QBE?BHABUrtti@@@Z 00486a90 f i Gamelib:TriggerEx_Object.obj
 0001:00086350       ?IsKindOf@action_ai_base@@QBE?BHABUrtti@@@Z 00486a90 f i Gamelib:Character.obj
 0001:00086350       ?IsKindOf@actor@@QBE?BHABUrtti@@@Z 00486a90 f i Gamelib:ProjectileMutantTendril.obj
 0001:00086350       ?IsKindOf@character@@QBE?BHABUrtti@@@Z 00486a90 f i Gamelib:Character.obj
 0001:00086350       ?IsKindOf@object@@QBE?BHABUrtti@@@Z 00486a90 f i main.obj
 0001:00086350       ?IsKindOf@new_weapon@@QBE?BHABUrtti@@@Z 00486a90 f i Gamelib:PlayerObject.obj
 0001:00086380       ?GetRTTI@genericNPC@@SAABUrtti@@XZ 00486ac0 f i Gamelib:ProjectileMutantTendril.obj
 0001:00086380       ?GetObjectRTTI@genericNPC@@UBEABUrtti@@XZ 00486ac0 f i Gamelib:GenericNPC.obj
 0001:000863b0       ?Create@mutant_tendril_projectile_desc@@UAEPAVobject@@XZ 00486af0 f i Gamelib:ProjectileMutantTendril.obj
 0001:000863d0       ?GetTypeDesc@mutant_tendril_projectile@@UBEABVobject_desc@@XZ 00486b10 f   Gamelib:ProjectileMutantTendril.obj
 0001:000863e0       ??0mutant_tendril_projectile@@QAE@XZ 00486b20 f   Gamelib:ProjectileMutantTendril.obj
 0001:00086670       ??_Emutant_tendril_projectile@@UAEPAXI@Z 00486db0 f i Gamelib:ProjectileMutantTendril.obj
 0001:00086670       ??_Gmutant_tendril_projectile@@UAEPAXI@Z 00486db0 f i Gamelib:ProjectileMutantTendril.obj
 0001:000866a0       ??1mutant_tendril_projectile@@UAE@XZ 00486de0 f   Gamelib:ProjectileMutantTendril.obj
 0001:00086720       ?DestroyParticles@mutant_tendril_projectile@@QAEXXZ 00486e60 f   Gamelib:ProjectileMutantTendril.obj
 0001:000867b0       ?Setup@mutant_tendril_projectile@@QAEXUguid@@HABTvector3@@ABUradian3@@1HHVpain_handle@@H@Z 00486ef0 f   Gamelib:ProjectileMutantTendril.obj
 0001:00086a50       ?SetStart@mutant_tendril_projectile@@UAEXABTvector3@@ABUradian3@@0HHM@Z 00487190 f   Gamelib:ProjectileMutantTendril.obj
 0001:00086a90       ?net_Deactivate@mutant_tendril_projectile@@UAEXXZ 004871d0 f   Gamelib:ProjectileMutantTendril.obj
 0001:00086ac0       ?OnRender@mutant_tendril_projectile@@UAEXXZ 00487200 f   Gamelib:ProjectileMutantTendril.obj
 0001:00086ee0       ?OnImpact@mutant_tendril_projectile@@UAEXAAUcollision@collision_mgr@@PAVobject@@@Z 00487620 f   Gamelib:ProjectileMutantTendril.obj
 0001:00087050       ?OnMove@mutant_tendril_projectile@@UAEXABTvector3@@@Z 00487790 f   Gamelib:ProjectileMutantTendril.obj
 0001:00087070       ?UpdateParticles@mutant_tendril_projectile@@QAEXABTvector3@@@Z 004877b0 f   Gamelib:ProjectileMutantTendril.obj
 0001:000871c0       ?OnExplode@mutant_tendril_projectile@@UAEXXZ 00487900 f   Gamelib:ProjectileMutantTendril.obj
 0001:00087210       ?FakePain@mutant_tendril_projectile@@IAEXPAVobject@@@Z 00487950 f   Gamelib:ProjectileMutantTendril.obj
 0001:00087320       ?GetTendrilAttachLocation@mutant_tendril_projectile@@QAEHPAVactor@@AATmatrix4@@AATvector3@@AAHH@Z 00487a60 f   Gamelib:ProjectileMutantTendril.obj
 0001:00087470       ?UpdateSegments@mutant_tendril_projectile@@IAEXPAVobject@@M@Z 00487bb0 f   Gamelib:ProjectileMutantTendril.obj
 0001:000887d0       ?OnAdvanceLogic@mutant_tendril_projectile@@UAEXM@Z 00488f10 f   Gamelib:ProjectileMutantTendril.obj
 0001:000889e0       ?GetLocalBBox@mutant_tendril_projectile@@UBE?AUbbox@@XZ 00489120 f   Gamelib:ProjectileMutantTendril.obj
 0001:00089310       ?CausePain@mutant_tendril_projectile@@MAEXAAUcollision@collision_mgr@@PAVobject@@@Z 00489a50 f   Gamelib:ProjectileMutantTendril.obj
 0001:00089470       ?OnEnumProp@mutant_tendril_projectile@@UAEXAAVprop_enum@@@Z 00489bb0 f   Gamelib:ProjectileMutantTendril.obj
 0001:000894d0       ?OnProperty@mutant_tendril_projectile@@UAEHAAVprop_query@@@Z 00489c10 f   Gamelib:ProjectileMutantTendril.obj
 0001:00089530       ?GetAimAtPosition@mutant_tendril_projectile@@MAE?ATvector3@@XZ 00489c70 f   Gamelib:ProjectileMutantTendril.obj
 0001:00089610       ?GetTargetPoint@mutant_tendril_projectile@@MAE?ATvector3@@PAVobject@@@Z 00489d50 f   Gamelib:ProjectileMutantTendril.obj
 0001:000897a0       ?GetLogicalName@weapon_mutation@@UAEPBDXZ 00489ee0 f i Gamelib:WeaponMutation.obj
 0001:000897b0       ??0constraint@@QAE@XZ      00489ef0 f i Gamelib:WeaponMutation.obj
 0001:000897e0       ?SetBodyWorldConstraintWorldPos@physics_inst@@QAEXHABTvector3@@@Z 00489f20 f i Gamelib:WeaponMutation.obj
 0001:00089810       ?Create@weapon_mutation_desc@@UAEPAVobject@@XZ 00489f50 f i Gamelib:WeaponMutation.obj
 0001:00089830       ?GetTypeDesc@weapon_mutation@@UBEABVobject_desc@@XZ 00489f70 f   Gamelib:WeaponMutation.obj
 0001:00089840       ??0weapon_mutation@@QAE@XZ 00489f80 f   Gamelib:WeaponMutation.obj
 0001:00089a30       ??_Eweapon_mutation@@UAEPAXI@Z 0048a170 f i Gamelib:WeaponMutation.obj
 0001:00089a30       ??_Gweapon_mutation@@UAEPAXI@Z 0048a170 f i Gamelib:WeaponMutation.obj
 0001:00089a60       ?InitWeapon@weapon_mutation@@UAEXABTvector3@@W4render_state@new_weapon@@Uguid@@@Z 0048a1a0 f   Gamelib:WeaponMutation.obj
 0001:00089a80       ?GetFiringStartPosition@weapon_mutation@@UAEHAATvector3@@@Z 0048a1c0 f   Gamelib:WeaponMutation.obj
 0001:00089b40       ?GetAltFiringStartPosition@weapon_mutation@@QAEHAATvector3@@@Z 0048a280 f   Gamelib:WeaponMutation.obj
 0001:00089c00       ?FireTendril@weapon_mutation@@QAEHABTvector3@@0ABUradian3@@ABUguid@@H@Z 0048a340 f   Gamelib:WeaponMutation.obj
 0001:00089ea0       ?RetractTendril@weapon_mutation@@QAEHH@Z 0048a5e0 f   Gamelib:WeaponMutation.obj
 0001:00089f20       ?FireWeaponProtected@weapon_mutation@@MAEHABTvector3@@0ABMABUradian3@@ABUguid@@H@Z 0048a660 f   Gamelib:WeaponMutation.obj
 0001:0008a300       ?CanFire@weapon_mutation@@UAEHH@Z 0048aa40 f   Gamelib:WeaponMutation.obj
 0001:0008a3a0       ?FireSecondaryProtected@weapon_mutation@@MAEHABTvector3@@0ABMABUradian3@@ABUguid@@H@Z 0048aae0 f   Gamelib:WeaponMutation.obj
 0001:0008a710       ?FireGhostPrimary@weapon_mutation@@UAEHHHAATvector3@@@Z 0048ae50 f   Gamelib:WeaponMutation.obj
 0001:0008a8a0       ?FireGhostSecondary@weapon_mutation@@UAEHH@Z 0048afe0 f   Gamelib:WeaponMutation.obj
 0001:0008aac0       ?OnEnumProp@weapon_mutation@@UAEXAAVprop_enum@@@Z 0048b200 f   Gamelib:WeaponMutation.obj
 0001:0008aba0       ?OnProperty@weapon_mutation@@UAEHAAVprop_query@@@Z 0048b2e0 f   Gamelib:WeaponMutation.obj
 0001:0008ae30       ?OnAdvanceLogic@weapon_mutation@@UAEXM@Z 0048b570 f   Gamelib:WeaponMutation.obj
 0001:0008ae80       ?TendrilLogic@weapon_mutation@@UAEXPAVplayer@@M@Z 0048b5c0 f   Gamelib:WeaponMutation.obj
 0001:0008afa0       ?ClearCorpseConstraints@weapon_mutation@@QAEXXZ 0048b6e0 f   Gamelib:WeaponMutation.obj
 0001:0008b1a0       ?GetCorpseDirection@weapon_mutation@@QAEXAATvector3@@0@Z 0048b8e0 f   Gamelib:WeaponMutation.obj
 0001:0008b3b0       ?UpdateCorpsePin@weapon_mutation@@QAEXXZ 0048baf0 f   Gamelib:WeaponMutation.obj
 0001:0008b7f0       ?GiveMutagenFromTendrils@weapon_mutation@@QAEXXZ 0048bf30 f   Gamelib:WeaponMutation.obj
 0001:0008b8a0       ?CreateCorpse@weapon_mutation@@QAEXPAVactor@@@Z 0048bfe0 f   Gamelib:WeaponMutation.obj
 0001:0008be30       ?CausePain@weapon_mutation@@IBEXPAVplayer@@PAVobject@@@Z 0048c570 f   Gamelib:WeaponMutation.obj
 0001:0008c3d0       ?DoExtremeMelee@weapon_mutation@@QAEXXZ 0048cb10 f   Gamelib:WeaponMutation.obj
 0001:0008c860       ?FindDumbTarget@weapon_mutation@@IAE?AUguid@@ABTvector3@@ABUradian3@@U2@@Z 0048cfa0 f   Gamelib:WeaponMutation.obj
 0001:0008cc50       ?BeginSwitchFrom@weapon_mutation@@UAEXXZ 0048d390 f   Gamelib:WeaponMutation.obj
 0001:0008ccc0       ??0?$object_ptr@Vmutant_parasite_projectile@@@@QAE@ABUguid@@@Z 0048d400 f i Gamelib:WeaponMutation.obj
 0001:0008cd20       ?SetCapacity@?$xarray@Vconstraint@@@@QAEXH@Z 0048d460 f i Gamelib:WeaponMutation.obj
 0001:0008cdb0       ?GetObjectRTTI@flag_base@@UBEABUrtti@@XZ 0048d4f0 f i Gamelib:FlagBase.obj
 0001:0008cde0       ?Create@flag_base_desc@@UAEPAVobject@@XZ 0048d520 f i Gamelib:FlagBase.obj
 0001:0008ce00       ?GetTypeDesc@flag_base@@UBEABVobject_desc@@XZ 0048d540 f   Gamelib:FlagBase.obj
 0001:0008ce10       ??0flag_base@@QAE@XZ       0048d550 f   Gamelib:FlagBase.obj
 0001:0008ce60       ??_Gflag_base@@UAEPAXI@Z   0048d5a0 f i Gamelib:FlagBase.obj
 0001:0008ce60       ??_Eflag_base@@UAEPAXI@Z   0048d5a0 f i Gamelib:FlagBase.obj
 0001:0008cea0       ?Init@flag_base@@QAEXHABTmatrix4@@@Z 0048d5e0 f   Gamelib:FlagBase.obj
 0001:0008cf70       ?GetLocalBBox@flag_base@@UBE?AUbbox@@XZ 0048d6b0 f   Gamelib:FlagBase.obj
 0001:0008cff0       ?net_AcceptUpdate@flag_base@@UAEXABVbitstream@@@Z 0048d730 f   Gamelib:FlagBase.obj
 0001:0008d1e0       ?net_ProvideUpdate@flag_base@@UAEXAAVbitstream@@AAI@Z 0048d920 f   Gamelib:FlagBase.obj
 0001:0008d330       ?GetObjectRTTI@weapon_shotgun@@UBEABUrtti@@XZ 0048da70 f i Gamelib:WeaponShotgun.obj
 0001:0008d330       ?GetRTTI@weapon_shotgun@@SAABUrtti@@XZ 0048da70 f i Gamelib:WeaponShotgun.obj
 0001:0008d360       ?GetLogicalName@weapon_shotgun@@UAEPBDXZ 0048daa0 f i Gamelib:WeaponShotgun.obj
 0001:0008d360       ?GetLogicalName@weapon_dual_shotgun@@UAEPBDXZ 0048daa0 f i Gamelib:WeaponDualShotgun.obj
 0001:0008d370       ?Create@weapon_shotgun_desc@@UAEPAVobject@@XZ 0048dab0 f i Gamelib:WeaponShotgun.obj
 0001:0008d390       ?GetTypeDesc@weapon_shotgun@@UBEABVobject_desc@@XZ 0048dad0 f   Gamelib:WeaponShotgun.obj
 0001:0008d3a0       ??0weapon_shotgun@@QAE@XZ  0048dae0 f   Gamelib:WeaponShotgun.obj
 0001:0008d440       ??_Eweapon_shotgun@@UAEPAXI@Z 0048db80 f i Gamelib:WeaponShotgun.obj
 0001:0008d440       ??_Gweapon_shotgun@@UAEPAXI@Z 0048db80 f i Gamelib:WeaponShotgun.obj
 0001:0008d470       ?FireWeaponProtected@weapon_shotgun@@MAEHABTvector3@@0ABMABUradian3@@ABUguid@@H@Z 0048dbb0 f   Gamelib:WeaponShotgun.obj
 0001:0008d7b0       ?FireSecondaryProtected@weapon_shotgun@@MAEHABTvector3@@0ABMABUradian3@@ABUguid@@H@Z 0048def0 f   Gamelib:WeaponShotgun.obj
 0001:0008db20       ?FireNPCWeaponProtected@weapon_shotgun@@MAEHABTvector3@@0ABUguid@@MH@Z 0048e260 f   Gamelib:WeaponShotgun.obj
 0001:0008db20       ?FireNPCWeaponProtected@weapon_dual_shotgun@@MAEHABTvector3@@0ABUguid@@MH@Z 0048e260 f   Gamelib:WeaponDualShotgun.obj
 0001:0008de60       ?GetPainHandle@weapon_dual_shotgun@@IAEXAAVpain_handle@@Uguid@@H@Z 0048e5a0 f   Gamelib:WeaponDualShotgun.obj
 0001:0008de60       ?GetPainHandle@weapon_shotgun@@IAEXAAVpain_handle@@Uguid@@H@Z 0048e5a0 f   Gamelib:WeaponShotgun.obj
 0001:0008df50       ?FireNPCSecondaryProtected@weapon_bbg@@MAEHABTvector3@@0ABUguid@@MH@Z 0048e690 f   Gamelib:WeaponBBG.obj
 0001:0008df50       ?FireNPCSecondaryProtected@weapon_tra@@MAEHABTvector3@@0ABUguid@@MH@Z 0048e690 f   Gamelib:WeaponTRA.obj
 0001:0008df50       ?PhysicalRead@io_device@@MAEHPAUio_device_file@@PAXHHH@Z 0048e690 f   Entropy:io_device.obj
 0001:0008df50       ?FireNPCSecondaryProtected@weapon_dual_shotgun@@MAEHABTvector3@@0ABUguid@@MH@Z 0048e690 f   Gamelib:WeaponDualShotgun.obj
 0001:0008df50       ?FireNPCSecondaryProtected@weapon_shotgun@@MAEHABTvector3@@0ABUguid@@MH@Z 0048e690 f   Gamelib:WeaponShotgun.obj
 0001:0008df50       ?PhysicalWrite@io_device@@MAEHPAUio_device_file@@PAXHHH@Z 0048e690 f   Entropy:io_device.obj
 0001:0008df50       ?FireNPCSecondaryProtected@weapon_sniper_rifle@@MAEHABTvector3@@0ABUguid@@MH@Z 0048e690 f   Gamelib:WeaponSniper.obj
 0001:0008df50       ?FireNPCSecondaryProtected@weapon_msn@@MAEHABTvector3@@0ABUguid@@MH@Z 0048e690 f   Gamelib:WeaponMSN.obj
 0001:0008df50       ?FireNPCWeaponProtected@new_weapon@@MAEHABTvector3@@0ABUguid@@MH@Z 0048e690 f   Gamelib:NewWeapon.obj
 0001:0008df50       ?FireNPCSecondaryProtected@new_weapon@@MAEHABTvector3@@0ABUguid@@MH@Z 0048e690 f   Gamelib:NewWeapon.obj
 0001:0008df60       ?CanFire@weapon_shotgun@@UAEHH@Z 0048e6a0 f   Gamelib:WeaponShotgun.obj
 0001:0008dfb0       ?GetFlashlightTransformInfo@weapon_shotgun@@UAEHAATmatrix4@@AATvector3@@@Z 0048e6f0 f   Gamelib:WeaponShotgun.obj
 0001:0008e010       ?OnProperty@weapon_shotgun@@UAEHAAVprop_query@@@Z 0048e750 f   Gamelib:WeaponShotgun.obj
 0001:0008e060       ?GetRTTI@nav_point@@SAABUrtti@@XZ 0048e7a0 f i Gamelib:NavPoint.obj
 0001:0008e0c0       ?GetObjectRTTI@nav_point@@UBEABUrtti@@XZ 0048e800 f i Gamelib:NavPoint.obj
 0001:0008e0d0       ?Create@nav_point_desc@@UAEPAVobject@@XZ 0048e810 f i Gamelib:NavPoint.obj
 0001:0008e120       ?GetTypeDesc@nav_point@@UBEABVobject_desc@@XZ 0048e860 f   Gamelib:NavPoint.obj
 0001:0008e130       ??0nav_point@@QAE@XZ       0048e870 f   Gamelib:NavPoint.obj
 0001:0008e170       ?OnRender@nav_point@@UAEXXZ 0048e8b0 f   Gamelib:NavPoint.obj
 0001:0008e300       ?OnActivate@nav_point@@UAEXH@Z 0048ea40 f   Gamelib:NavPoint.obj
 0001:0008e310       ?OnEnumProp@nav_point@@UAEXAAVprop_enum@@@Z 0048ea50 f   Gamelib:NavPoint.obj
 0001:0008e370       ?OnProperty@nav_point@@UAEHAAVprop_query@@@Z 0048eab0 f   Gamelib:NavPoint.obj
 0001:0008e440       ?GetRTTI@spawner_object@@SAABUrtti@@XZ 0048eb80 f i Gamelib:SpawnerObject.obj
 0001:0008e4a0       ?GetObjectRTTI@spawner_object@@UBEABUrtti@@XZ 0048ebe0 f i Gamelib:SpawnerObject.obj
 0001:0008e4b0       ?GetLocalBBox@spawner_object@@UBE?AUbbox@@XZ 0048ebf0 f i Gamelib:SpawnerObject.obj
 0001:0008e4f0       ?Create@spawner_object_desc@@UAEPAVobject@@XZ 0048ec30 f i Gamelib:SpawnerObject.obj
 0001:0008e510       ??0spawner_object@@QAE@XZ  0048ec50 f   Gamelib:SpawnerObject.obj
 0001:0008e590       ?GetTypeDesc@spawner_object@@UBEABVobject_desc@@XZ 0048ecd0 f   Gamelib:SpawnerObject.obj
 0001:0008e5a0       ?OnEnumProp@spawner_object@@UAEXAAVprop_enum@@@Z 0048ece0 f   Gamelib:SpawnerObject.obj
 0001:0008e630       ?OnProperty@spawner_object@@UAEHAAVprop_query@@@Z 0048ed70 f   Gamelib:SpawnerObject.obj
 0001:0008e840       ?OnActivate@spawner_object@@UAEXH@Z 0048ef80 f   Gamelib:SpawnerObject.obj
 0001:0008e8e0       ?OnAdvanceLogic@spawner_object@@UAEXM@Z 0048f020 f   Gamelib:SpawnerObject.obj
 0001:0008e9d0       ?SpawnObject@spawner_object@@QAEXXZ 0048f110 f   Gamelib:SpawnerObject.obj
 0001:0008eb10       ?OnSpawnedObjectKill@spawner_object@@QAEXPAVobject@@@Z 0048f250 f   Gamelib:SpawnerObject.obj
 0001:0008eb40       ?GetObjectRTTI@play_surface@@UBEABUrtti@@XZ 0048f280 f i Gamelib:PlaySurface.obj
 0001:0008eb50       ?Create@play_surface_desc@@UAEPAVobject@@XZ 0048f290 f i Gamelib:PlaySurface.obj
 0001:0008eb70       ?GetTypeDesc@play_surface@@UBEABVobject_desc@@XZ 0048f2b0 f   Gamelib:PlaySurface.obj
 0001:0008eb80       ??0play_surface@@QAE@XZ    0048f2c0 f   Gamelib:PlaySurface.obj
 0001:0008ebf0       ??_Eplay_surface@@UAEPAXI@Z 0048f330 f i Gamelib:PlaySurface.obj
 0001:0008ebf0       ??_Gplay_surface@@UAEPAXI@Z 0048f330 f i Gamelib:PlaySurface.obj
 0001:0008ebf0       ??_Eteam_prop@@UAEPAXI@Z   0048f330 f i Gamelib:TeamProp.obj
 0001:0008ebf0       ??_Gteam_prop@@UAEPAXI@Z   0048f330 f i Gamelib:TeamProp.obj
 0001:0008ec40       ?GetLocalBBox@play_surface@@UBE?AUbbox@@XZ 0048f380 f   Gamelib:PlaySurface.obj
 0001:0008ed00       ?OnRender@play_surface@@MAEXXZ 0048f440 f   Gamelib:PlaySurface.obj
 0001:0008ed80       ?DoColCheck@play_surface@@IAEXPBTmatrix4@@@Z 0048f4c0 f   Gamelib:PlaySurface.obj
 0001:0008ee30       ?OnPolyCacheGather@play_surface@@UAEXXZ 0048f570 f   Gamelib:PlaySurface.obj
 0001:0008eef0       ?GetColDetails@play_surface@@UAEHHAAUdetail_tri@object@@@Z 0048f630 f   Gamelib:PlaySurface.obj
 0001:0008ef90       ?GetBoneL2Ws@play_surface@@UAEPBTmatrix4@@XZ 0048f6d0 f   Gamelib:PlaySurface.obj
 0001:0008ef90       ?GetBoneL2Ws@lore_object@@UAEPBTmatrix4@@XZ 0048f6d0 f   Gamelib:LoreObject.obj
 0001:0008efa0       ?OnEnumProp@play_surface@@UAEXAAVprop_enum@@@Z 0048f6e0 f   Gamelib:PlaySurface.obj
 0001:0008efd0       ?OnProperty@play_surface@@UAEHAAVprop_query@@@Z 0048f710 f   Gamelib:PlaySurface.obj
 0001:0008f010       ?OnKill@play_surface@@MAEXXZ 0048f750 f   Gamelib:PlaySurface.obj
 0001:0008f050       ?GetRTTI@mutagen_reservoir@@SAABUrtti@@XZ 0048f790 f i Gamelib:MutagenReservoir.obj
 0001:0008f0b0       ?GetObjectRTTI@mutagen_reservoir@@UBEABUrtti@@XZ 0048f7f0 f i Gamelib:MutagenReservoir.obj
 0001:0008f0c0       ?Create@mutagen_reservoir_desc@@UAEPAVobject@@XZ 0048f800 f i Gamelib:MutagenReservoir.obj
 0001:0008f0e0       ?GetTypeDesc@mutagen_reservoir@@UBEABVobject_desc@@XZ 0048f820 f   Gamelib:MutagenReservoir.obj
 0001:0008f0f0       ??0mutagen_reservoir@@QAE@XZ 0048f830 f   Gamelib:MutagenReservoir.obj
 0001:0008f160       ??_Gmutagen_reservoir@@UAEPAXI@Z 0048f8a0 f i Gamelib:MutagenReservoir.obj
 0001:0008f160       ??_Emutagen_reservoir@@UAEPAXI@Z 0048f8a0 f i Gamelib:MutagenReservoir.obj
 0001:0008f1b0       ?GetLocalBBox@mutagen_reservoir@@UBE?AUbbox@@XZ 0048f8f0 f   Gamelib:MutagenReservoir.obj
 0001:0008f1f0       ?GetRTTI@soldier@@SAABUrtti@@XZ 0048f930 f i Gamelib:Soldier.obj
 0001:0008f1f0       ?GetObjectRTTI@soldier@@UBEABUrtti@@XZ 0048f930 f i Gamelib:Soldier.obj
 0001:0008f220       ?GetType@condition_player_has_item@@UAE?AW4conditional_ex_types@conditional_ex_base@@XZ 0048f960 f i Gamelib:condition_player_has_item.obj
 0001:0008f220       ?GetAIActionType@action_ai_dialog_line@@UAE?AW4ai_action_types@action_ai_base@@XZ 0048f960 f i Gamelib:action_ai_dialog_line.obj
 0001:0008f220       ?GetNumberVoiceActors@soldier@@UAEHXZ 0048f960 f i Gamelib:Soldier.obj
 0001:0008f220       ?GetMaterial@coke_can@@UBEHXZ 0048f960 f i Gamelib:CokeCan.obj
 0001:0008f220       ?GetType@action_create_template@@UAE?AW4action_ex_types@actions_ex_base@@XZ 0048f960 f i Gamelib:action_create_template.obj
 0001:0008f230       ?GetObjectRTTI@hazmat@@UBEABUrtti@@XZ 0048f970 f i Gamelib:Soldier.obj
 0001:0008f260       ?Create@soldier_desc@@UAEPAVobject@@XZ 0048f9a0 f i Gamelib:Soldier.obj
 0001:0008f280       ?OnEnumProp@generic_desc@@UAEXAAVprop_enum@@@Z 0048f9c0 f i Gamelib:GenericNPC.obj
 0001:0008f280       ?OnEnumProp@hazmat_desc@@UAEXAAVprop_enum@@@Z 0048f9c0 f i Gamelib:Soldier.obj
 0001:0008f280       ?OnEnumProp@soldier_desc@@UAEXAAVprop_enum@@@Z 0048f9c0 f i Gamelib:Soldier.obj
 0001:0008f290       ?GetTypeDesc@soldier@@UBEABVobject_desc@@XZ 0048f9d0 f   Gamelib:Soldier.obj
 0001:0008f2a0       ?Create@hazmat_desc@@UAEPAVobject@@XZ 0048f9e0 f i Gamelib:Soldier.obj
 0001:0008f2d0       ?GetTypeDesc@hazmat@@UBEABVobject_desc@@XZ 0048fa10 f   Gamelib:Soldier.obj
 0001:0008f2e0       ??_Ghazmat@@UAEPAXI@Z      0048fa20 f i Gamelib:Soldier.obj
 0001:0008f2e0       ??_Ehazmat@@UAEPAXI@Z      0048fa20 f i Gamelib:Soldier.obj
 0001:0008f310       ??0soldier@@QAE@XZ         0048fa50 f   Gamelib:Soldier.obj
 0001:0008f570       ??_Gsoldier@@UAEPAXI@Z     0048fcb0 f i Gamelib:Soldier.obj
 0001:0008f570       ??_Esoldier@@UAEPAXI@Z     0048fcb0 f i Gamelib:Soldier.obj
 0001:0008f5a0       ??1soldier@@UAE@XZ         0048fce0 f   Gamelib:Soldier.obj
 0001:0008f650       ?OnEnumProp@soldier@@MAEXAAVprop_enum@@@Z 0048fd90 f   Gamelib:Soldier.obj
 0001:0008f660       ?OnProperty@soldier@@MAEHAAVprop_query@@@Z 0048fda0 f   Gamelib:Soldier.obj
 0001:0008f8e0       ?SetupShoulderLight@soldier@@MAEHXZ 00490020 f   Gamelib:Soldier.obj
 0001:0008fa30       ?OnDeath@soldier@@UAEXXZ   00490170 f   Gamelib:Soldier.obj
 0001:0008faa0       ?CoverRetreatWhenDamaged@soldier@@UAEHXZ 004901e0 f   Gamelib:Soldier.obj
 0001:0008fac0       ?SetOrbGuid@soldier@@UAEXUguid@@@Z 00490200 f   Gamelib:Soldier.obj
 0001:0008fae0       ?GetHasDrainableCorpse@soldier@@UAEHXZ 00490220 f   Gamelib:Soldier.obj
 0001:0008fb00       ?BecomeLeader@soldier@@QAEXXZ 00490240 f   Gamelib:Soldier.obj
 0001:0008fb50       ?OnThink@soldier@@UAEXXZ   00490290 f   Gamelib:Soldier.obj
 0001:0008fc90       ?GetObjectRTTI@gray@@UBEABUrtti@@XZ 004903d0 f i Gamelib:Gray.obj
 0001:0008fc90       ?GetRTTI@gray@@SAABUrtti@@XZ 004903d0 f i Gamelib:Gray.obj
 0001:0008fcc0       ?Create@gray_desc@@UAEPAVobject@@XZ 00490400 f i Gamelib:Gray.obj
 0001:0008fce0       ?GetTypeDesc@gray@@UBEABVobject_desc@@XZ 00490420 f   Gamelib:Gray.obj
 0001:0008fcf0       ??0gray@@QAE@XZ            00490430 f   Gamelib:Gray.obj
 0001:0008fd90       ??_Egray@@UAEPAXI@Z        004904d0 f i Gamelib:Gray.obj
 0001:0008fd90       ??_Ggray@@UAEPAXI@Z        004904d0 f i Gamelib:Gray.obj
 0001:0008fdc0       ??1gray@@UAE@XZ            00490500 f   Gamelib:Gray.obj
 0001:0008fe10       ?OnEnumProp@gray@@UAEXAAVprop_enum@@@Z 00490550 f   Gamelib:Gray.obj
 0001:0008fe30       ?OnPain@gray@@UAEXABVpain@@@Z 00490570 f   Gamelib:Gray.obj
 0001:0008fe40       ?OnRender@gray@@UAEXXZ     00490580 f   Gamelib:Gray.obj
 0001:0008fe50       ?OnAnimEvent@gray@@UAEHABUanim_event@@ABTvector3@@@Z 00490590 f   Gamelib:Gray.obj
 0001:00090930       ?GetRTTI@cloth_object@@SAABUrtti@@XZ 00491070 f i Gamelib:ClothObject.obj
 0001:00090990       ?GetObjectRTTI@cloth_object@@UBEABUrtti@@XZ 004910d0 f i Gamelib:ClothObject.obj
 0001:000909a0       ?GetRenderInstPtr@cloth_object@@UAEPAVrender_inst@@XZ 004910e0 f i Gamelib:ClothObject.obj
 0001:000909b0       ?Create@cloth_object_desc@@UAEPAVobject@@XZ 004910f0 f i Gamelib:ClothObject.obj
 0001:000909f0       ?GetTypeDesc@cloth_object@@UBEABVobject_desc@@XZ 00491130 f   Gamelib:ClothObject.obj
 0001:00090a00       ??_Ecloth_object@@UAEPAXI@Z 00491140 f i Gamelib:ClothObject.obj
 0001:00090a00       ??_Gcloth_object@@UAEPAXI@Z 00491140 f i Gamelib:ClothObject.obj
 0001:00090a30       ?OnInit@cloth_object@@UAEXXZ 00491170 f   Gamelib:ClothObject.obj
 0001:00090a60       ?OnKill@cloth_object@@UAEXXZ 004911a0 f   Gamelib:ClothObject.obj
 0001:00090aa0       ?GetLocalBBox@cloth_object@@UBE?AUbbox@@XZ 004911e0 f   Gamelib:ClothObject.obj
 0001:00090ac0       ?OnAdvanceLogic@cloth_object@@MAEXM@Z 00491200 f   Gamelib:ClothObject.obj
 0001:00090c70       ?OnRender@cloth_object@@MAEXXZ 004913b0 f   Gamelib:ClothObject.obj
 0001:00090cb0       ?OnRenderCloth@cloth_object@@MAEXXZ 004913f0 f   Gamelib:ClothObject.obj
 0001:00090cc0       ?OnPain@cloth_object@@UAEXABVpain@@@Z 00491400 f   Gamelib:ClothObject.obj
 0001:00090d60       ?OnColCheck@cloth_object@@MAEXXZ 004914a0 f   Gamelib:ClothObject.obj
 0001:00090e60       ?OnPolyCacheGather@cloth_object@@MAEXXZ 004915a0 f   Gamelib:ClothObject.obj
 0001:00090ef0       ?GetColDetails@cloth_object@@MAEHHAAUdetail_tri@object@@@Z 00491630 f   Gamelib:ClothObject.obj
 0001:00090f90       ?OnProjectileImpact@cloth_object@@UAEXABVobject@@ABTvector3@@I1HM@Z 004916d0 f   Gamelib:ClothObject.obj
 0001:00090fc0       ?OnMove@cloth_object@@MAEXABTvector3@@@Z 00491700 f   Gamelib:ClothObject.obj
 0001:00091050       ?OnTransform@cloth_object@@MAEXABTmatrix4@@@Z 00491790 f   Gamelib:ClothObject.obj
 0001:000910d0       ?OnEnumProp@cloth_object@@UAEXAAVprop_enum@@@Z 00491810 f   Gamelib:ClothObject.obj
 0001:00091100       ?OnProperty@cloth_object@@UAEHAAVprop_query@@@Z 00491840 f   Gamelib:ClothObject.obj
 0001:00091190       ?GetRTTI@team_light@@SAABUrtti@@XZ 004918d0 f i Gamelib:TeamLight.obj
 0001:000911f0       ?GetObjectRTTI@team_light@@UBEABUrtti@@XZ 00491930 f i Gamelib:TeamLight.obj
 0001:00091200       ?Create@team_light_desc@@UAEPAVobject@@XZ 00491940 f i Gamelib:TeamLight.obj
 0001:00091220       ?GetTypeDesc@team_light@@UBEABVobject_desc@@XZ 00491960 f   Gamelib:TeamLight.obj
 0001:00091230       ??0team_light@@QAE@XZ      00491970 f   Gamelib:TeamLight.obj
 0001:00091350       ?GetLocalBBox@team_light@@UBE?AUbbox@@XZ 00491a90 f   Gamelib:TeamLight.obj
 0001:00091370       ?OnRender@team_light@@MAEXXZ 00491ab0 f   Gamelib:TeamLight.obj
 0001:00091530       ?OnAdvanceLogic@team_light@@MAEXM@Z 00491c70 f   Gamelib:TeamLight.obj
 0001:000915b0       ?OnEnumProp@team_light@@UAEXAAVprop_enum@@@Z 00491cf0 f   Gamelib:TeamLight.obj
 0001:000916d0       ?OnProperty@team_light@@UAEHAAVprop_query@@@Z 00491e10 f   Gamelib:TeamLight.obj
 0001:00091860       ?GetRTTI@glass_surface_desc@@SAABUrtti@@XZ 00491fa0 f i Gamelib:GlassSurface.obj
 0001:000918c0       ?GetObjectRTTI@glass_surface_desc@@UBEABUrtti@@XZ 00492000 f i Gamelib:GlassSurface.obj
 0001:000918d0       ?GetObjectRTTI@glass_surface@@UBEABUrtti@@XZ 00492010 f i Gamelib:GlassSurface.obj
 0001:00091900       ?GetHealth@glass_surface@@UAEMXZ 00492040 f i Gamelib:GlassSurface.obj
 0001:00091910       ?SetHealth@glass_surface@@UAEXM@Z 00492050 f i Gamelib:GlassSurface.obj
 0001:00091930       ?Create@glass_surface_desc@@UAEPAVobject@@XZ 00492070 f   Gamelib:GlassSurface.obj
 0001:00091950       ?GetTypeDesc@glass_surface@@UBEABVobject_desc@@XZ 00492090 f   Gamelib:GlassSurface.obj
 0001:00091960       ??0glass_surface@@QAE@XZ   004920a0 f   Gamelib:GlassSurface.obj
 0001:00091a10       ??_Eglass_surface@@UAEPAXI@Z 00492150 f i Gamelib:GlassSurface.obj
 0001:00091a10       ??_Gglass_surface@@UAEPAXI@Z 00492150 f i Gamelib:GlassSurface.obj
 0001:00091a40       ??1glass_surface@@UAE@XZ   00492180 f   Gamelib:GlassSurface.obj
 0001:00091ab0       ?GetLocalBBox@glass_surface@@UBE?AUbbox@@XZ 004921f0 f   Gamelib:GlassSurface.obj
 0001:00091ab0       ?GetLocalBBox@prop_surface@@UBE?AUbbox@@XZ 004921f0 f   Gamelib:PropSurface.obj
 0001:00091ab0       ?GetLocalBBox@destructible_obj@@UBE?AUbbox@@XZ 004921f0 f   Gamelib:DestructibleObj.obj
 0001:00091ad0       ?OnColCheck@play_surface@@MAEXXZ 00492210 f   Gamelib:PlaySurface.obj
 0001:00091ad0       ?OnColCheck@destructible_obj@@MAEXXZ 00492210 f   Gamelib:DestructibleObj.obj
 0001:00091ad0       ?OnColCheck@glass_surface@@UAEXXZ 00492210 f   Gamelib:GlassSurface.obj
 0001:00091ae0       ?OnPain@glass_surface@@UAEXABVpain@@@Z 00492220 f   Gamelib:GlassSurface.obj
 0001:00091bb0       ?OnEnumProp@glass_surface@@UAEXAAVprop_enum@@@Z 004922f0 f   Gamelib:GlassSurface.obj
 0001:00091c70       ?OnProperty@glass_surface@@UAEHAAVprop_query@@@Z 004923b0 f   Gamelib:GlassSurface.obj
 0001:00091f20       ?GetRotationTowards@vector3@@QBEXABT1@AAT1@AAM@Z 00492660 f i Gamelib:Coupler.obj
 0001:00092110       ?Setup@quaternion@@QAEXABTvector3@@0@Z 00492850 f i Gamelib:Coupler.obj
 0001:000921a0       ?SetColumns@matrix4@@QAEXABTvector3@@00@Z 004928e0 f i Gamelib:Coupler.obj
 0001:000921f0       ?Rotate@matrix4@@QAEXABUquaternion@@@Z 00492930 f i Gamelib:Coupler.obj
 0001:00092370       ?GetRTTI@coupler@@SAABUrtti@@XZ 00492ab0 f i Gamelib:Coupler.obj
 0001:000923d0       ?GetObjectRTTI@coupler@@UBEABUrtti@@XZ 00492b10 f i Gamelib:Coupler.obj
 0001:000923e0       ?GetMaterial@net_ghost@@MBEHXZ 00492b20 f i NetworkMgr:NetGhost.obj
 0001:000923e0       ?GetMaterial@volumetric_light_obj@@UBEHXZ 00492b20 f i Gamelib:VolumetricLight.obj
 0001:000923e0       ?GetMaterial@tracker@@UBEHXZ 00492b20 f i Gamelib:Tracker.obj
 0001:000923e0       ?GetMaterial@coupler@@UBEHXZ 00492b20 f i Gamelib:Coupler.obj
 0001:000923e0       ?GetMaterial@camera@@UBEHXZ 00492b20 f i Gamelib:Camera.obj
 0001:000923e0       ?GetMaterial@projector_obj@@UBEHXZ 00492b20 f i Gamelib:Projector.obj
 0001:000923e0       ?GetMaterial@path@@UBEHXZ  00492b20 f i Gamelib:Path.obj
 0001:000923e0       ?GetType@action_screen_fade@@UAE?AW4action_ex_types@actions_ex_base@@XZ 00492b20 f i Gamelib:action_screen_fade.obj
 0001:000923e0       ?GetMaterial@controller@@UBEHXZ 00492b20 f i Gamelib:Controller.obj
 0001:000923e0       ?GetMaterial@pip@@UBEHXZ   00492b20 f i Gamelib:Pip.obj
 0001:000923e0       ?GetMaterial@character@@UBEHXZ 00492b20 f i Gamelib:Character.obj
 0001:000923e0       ?GetMaterial@manipulator@@UBEHXZ 00492b20 f i Gamelib:Manipulator.obj
 0001:000923e0       ?GetMaterial@light_obj@@UBEHXZ 00492b20 f i Gamelib:LightObject.obj
 0001:000923e0       ?GetMaterial@animation_obj@@UBEHXZ 00492b20 f i Gamelib:Animation_obj.obj
 0001:000923e0       ?GetMaterial@player@@MBEHXZ 00492b20 f i Gamelib:PlayerObject.obj
 0001:000923e0       ?GetMaterial@god@@UBEHXZ   00492b20 f i Gamelib:God.obj
 0001:000923f0       ??0child_phys@coupler@@QAE@XZ 00492b30 f i Gamelib:Coupler.obj
 0001:000924c0       ?Create@coupler_desc@@UAEPAVobject@@XZ 00492c00 f i Gamelib:Coupler.obj
 0001:000924e0       ?OnEnumProp@coupler_desc@@UAEXAAVprop_enum@@@Z 00492c20 f   Gamelib:Coupler.obj
 0001:00092510       ?OnProperty@coupler_desc@@UAEHAAVprop_query@@@Z 00492c50 f   Gamelib:Coupler.obj
 0001:000925e0       ?GetTypeDesc@coupler@@UBEABVobject_desc@@XZ 00492d20 f   Gamelib:Coupler.obj
 0001:000925f0       ?Reset@child@coupler@@QAEXXZ 00492d30 f   Gamelib:Coupler.obj
 0001:00092640       ??0coupler@@QAE@XZ         00492d80 f   Gamelib:Coupler.obj
 0001:00092880       ??_Gcoupler@@UAEPAXI@Z     00492fc0 f i Gamelib:Coupler.obj
 0001:00092880       ??_Ecoupler@@UAEPAXI@Z     00492fc0 f i Gamelib:Coupler.obj
 0001:000928d0       ?OnEnumProp@coupler@@UAEXAAVprop_enum@@@Z 00493010 f   Gamelib:Coupler.obj
 0001:00092e30       ?OnProperty@coupler@@UAEHAAVprop_query@@@Z 00493570 f   Gamelib:Coupler.obj
 0001:00093d60       ??4child@coupler@@QAEAAU01@ABU01@@Z 004944a0 f i Gamelib:Coupler.obj
 0001:00093de0       ?OnMove@bullet_projectile@@UAEXABTvector3@@@Z 00494520 f   Gamelib:ProjectileBullett.obj
 0001:00093de0       ?OnMove@coupler@@UAEXABTvector3@@@Z 00494520 f   Gamelib:Coupler.obj
 0001:00093de0       ?OnMove@notepad_object@@UAEXABTvector3@@@Z 00494520 f   Gamelib:notepad_object.obj
 0001:00093de0       ?OnMove@object@@UAEXABTvector3@@@Z 00494520 f   Gamelib:object.obj
 0001:00093de0       ?OnMove@animation_obj@@UAEXABTvector3@@@Z 00494520 f   Gamelib:Animation_obj.obj
 0001:00093de0       ?OnMove@debris_meson_explosion@@UAEXABTvector3@@@Z 00494520 f   Gamelib:debris_meson_lash.obj
 0001:00093de0       ?OnMove@coke_can@@UAEXABTvector3@@@Z 00494520 f   Gamelib:CokeCan.obj
 0001:00093de0       ?OnMove@explosive_bullet_projectile@@UAEXABTvector3@@@Z 00494520 f   Gamelib:ProjectileExplosiveBullett.obj
 0001:00093de0       ?OnMove@debris_glass_cluster@@UAEXABTvector3@@@Z 00494520 f   Gamelib:debris_glass_cluster.obj
 0001:00093de0       ?OnMove@debris@@UAEXABTvector3@@@Z 00494520 f   Gamelib:debris.obj
 0001:00093de0       ?OnMove@alien_shield@@UAEXABTvector3@@@Z 00494520 f   Gamelib:AlienShield.obj
 0001:00093de0       ?OnMove@debris_cannon@@UAEXABTvector3@@@Z 00494520 f   Gamelib:debris_cannon.obj
 0001:00093e20       ?OnAdvanceLogic@coupler@@MAEXM@Z 00494560 f   Gamelib:Coupler.obj
 0001:00094580       ?OnActivate@coupler@@MAEXH@Z 00494cc0 f   Gamelib:Coupler.obj
 0001:000945b0       ?UpdateAttachPoints@coupler@@IAEXXZ 00494cf0 f   Gamelib:Coupler.obj
 0001:000946e0       ?UpdateRelativeData@coupler@@IAEXH@Z 00494e20 f   Gamelib:Coupler.obj
 0001:00094bc0       ?SnapAttachPoints@coupler@@IAEXH@Z 00495300 f   Gamelib:Coupler.obj
 0001:00094de0       ?AddChild@coupler@@QAEHUguid@@PBD@Z 00495520 f   Gamelib:Coupler.obj
 0001:00094ed0       ?RemoveChild@coupler@@QAEHUguid@@@Z 00495610 f   Gamelib:Coupler.obj
 0001:000950f0       ?SnapAttachPoints@coupler@@QAEXUguid@@@Z 00495830 f   Gamelib:Coupler.obj
 0001:00095110       ?UpdateAllRelative@coupler@@QAEXXZ 00495850 f   Gamelib:Coupler.obj
 0001:00095140       ?GetChildIDByGuid@coupler@@IAEHUguid@@@Z 00495880 f   Gamelib:Coupler.obj
 0001:00095180       ?AdvancePhysics@coupler@@IAEXM@Z 004958c0 f   Gamelib:Coupler.obj
 0001:00095680       ??0?$simple_string@$0PP@@@QAE@PBD@Z 00495dc0 f i Gamelib:Coupler.obj
 0001:000956b0       ?Set@?$simple_string@$0PP@@@QAEXPBD@Z 00495df0 f i Gamelib:Coupler.obj
 0001:000956e0       ?GetRTTI@mp_settings@@SAABUrtti@@XZ 00495e20 f i Gamelib:MP_Settings.obj
 0001:00095740       ?GetObjectRTTI@mp_settings@@UBEABUrtti@@XZ 00495e80 f i Gamelib:MP_Settings.obj
 0001:00095750       ?Create@mp_settings_desc@@UAEPAVobject@@XZ 00495e90 f i Gamelib:MP_Settings.obj
 0001:00095770       ?GetTypeDesc@mp_settings@@UBEABVobject_desc@@XZ 00495eb0 f   Gamelib:MP_Settings.obj
 0001:00095780       ??0mp_settings@@QAE@XZ     00495ec0 f   Gamelib:MP_Settings.obj
 0001:000957f0       ?OnEnumProp@mp_settings@@UAEXAAVprop_enum@@@Z 00495f30 f   Gamelib:MP_Settings.obj
 0001:000959b0       ?OnProperty@mp_settings@@UAEHAAVprop_query@@@Z 004960f0 f   Gamelib:MP_Settings.obj
 0001:00095c20       ?GetRTTI@damage_field@@SAABUrtti@@XZ 00496360 f i Gamelib:DamageField.obj
 0001:00095c80       ?GetObjectRTTI@damage_field@@UBEABUrtti@@XZ 004963c0 f i Gamelib:DamageField.obj
 0001:00095c90       ?IsActive@damage_field@@UAEHXZ 004963d0 f i Gamelib:DamageField.obj
 0001:00095ca0       ?Create@damage_field_desc@@UAEPAVobject@@XZ 004963e0 f i Gamelib:DamageField.obj
 0001:00095cc0       ?OnProperty@damage_field_desc@@UAEHAAVprop_query@@@Z 00496400 f i Gamelib:DamageField.obj
 0001:00095cc0       ?OnProperty@feedback_emitter_desc@@UAEHAAVprop_query@@@Z 00496400 f i Gamelib:feedbackemitter.obj
 0001:00095d00       ?GetTypeDesc@damage_field@@UBEABVobject_desc@@XZ 00496440 f   Gamelib:DamageField.obj
 0001:00095d10       ??0damage_field@@QAE@XZ    00496450 f   Gamelib:DamageField.obj
 0001:00095dd0       ?OnEnumProp@damage_field@@UAEXAAVprop_enum@@@Z 00496510 f   Gamelib:DamageField.obj
 0001:00095f30       ?OnProperty@damage_field@@UAEHAAVprop_query@@@Z 00496670 f   Gamelib:DamageField.obj
 0001:00096350       ?GetLocalBBox@damage_field@@UBE?AUbbox@@XZ 00496a90 f   Gamelib:DamageField.obj
 0001:00096440       ?OnColCheck@damage_field@@UAEXXZ 00496b80 f   Gamelib:DamageField.obj
 0001:00096510       ?OnColNotify@damage_field@@UAEXAAVobject@@@Z 00496c50 f   Gamelib:DamageField.obj
 0001:000965c0       ?OnActivate@damage_field@@UAEXH@Z 00496d00 f   Gamelib:DamageField.obj
 0001:00096600       ?LogicCheckOnActivate@damage_field@@IAEXXZ 00496d40 f   Gamelib:DamageField.obj
 0001:00096690       ?QueryPlayerInVolume@damage_field@@IAEHH@Z 00496dd0 f   Gamelib:DamageField.obj
 0001:000966f0       ?QueryNpcInVolume@damage_field@@IAEHH@Z 00496e30 f   Gamelib:DamageField.obj
 0001:00096780       ?QueryPropsInVolume@damage_field@@IAEHH@Z 00496ec0 f   Gamelib:DamageField.obj
 0001:00096810       ?QueryObjectInVolume@damage_field@@IAEHPAVobject@@H@Z 00496f50 f   Gamelib:DamageField.obj
 0001:00096a60       ?OnAdvanceLogic@damage_field@@UAEXM@Z 004971a0 f   Gamelib:DamageField.obj
 0001:00096bf0       ?BuildString@?$enum_table@W4eCoverDesire@character_attack_state@@@@QBEPBDXZ 00497330 f i Gamelib:Character_Attack_State.obj
 0001:00096bf0       ?BuildString@?$enum_table@W4trigger_ex_spatial_activation_response@trigger_ex_object@@@@QBEPBDXZ 00497330 f i Gamelib:TriggerEx_Object.obj
 0001:00096bf0       ?BuildString@?$enum_table@W4action_ex_types@actions_ex_base@@@@QBEPBDXZ 00497330 f i Gamelib:character_task.obj
 0001:00096bf0       ?BuildString@?$enum_table@W4char_states_to_transition_to@character_task_set@@@@QBEPBDXZ 00497330 f i Gamelib:character_task_set.obj
 0001:00096bf0       ?BuildString@?$enum_table@W4particle_endroutine_type@particle_emitter@@@@QBEPBDXZ 00497330 f i Gamelib:ParticleEmiter.obj
 0001:00096bf0       ?BuildString@?$enum_table@W4trigger_ex_spatial_types@trigger_ex_object@@@@QBEPBDXZ 00497330 f i Gamelib:TriggerEx_Object.obj
 0001:00096bf0       ?BuildString@?$enum_table@W4handle_commands@character_task@@@@QBEPBDXZ 00497330 f i Gamelib:character_task_set.obj
 0001:00096bf0       ?BuildString@?$enum_table@W4property_compare_modes@condition_check_property@@@@QBEPBDXZ 00497330 f i Gamelib:condition_check_property.obj
 0001:00096bf0       ?BuildString@?$enum_table@W4particle_logic_type@particle_emitter@@@@QBEPBDXZ 00497330 f i Gamelib:ParticleEmiter.obj
 0001:00096bf0       ?BuildString@?$enum_table@W4trigger_ex_spatial_activation_bullet_types@trigger_ex_object@@@@QBEPBDXZ 00497330 f i Gamelib:TriggerEx_Object.obj
 0001:00096bf0       ?BuildString@?$enum_table@W4hit_location_type@action_object_damage@@@@QBEPBDXZ 00497330 f i Gamelib:action_object_damage.obj
 0001:00096bf0       ?BuildString@?$enum_table@W4eDialogActors@character@@@@QBEPBDXZ 00497330 f i Gamelib:Character.obj
 0001:00096bf0       ?BuildString@?$enum_table@W4codes@condition_check_global@@@@QBEPBDXZ 00497330 f i Gamelib:condition_check_global.obj
 0001:00096bf0       ?BuildString@?$enum_table@W4generic_pain_type@@@@QBEPBDXZ 00497330 f i Gamelib:DamageField.obj
 0001:00096bf0       ?BuildString@?$enum_table@W4factions@@@@QBEPBDXZ 00497330 f i Gamelib:factions.obj
 0001:00096bf0       ?BuildString@?$enum_table@W4trigger_ex_spatial_activation_types@trigger_ex_object@@@@QBEPBDXZ 00497330 f i Gamelib:TriggerEx_Object.obj
 0001:00096bf0       ?BuildString@?$enum_table@W4type@mutanttank_attack_state@@@@QBEPBDXZ 00497330 f i Gamelib:MutantTank_Attack_State.obj
 0001:00096bf0       ?BuildString@?$enum_table@H@@QBEPBDXZ 00497330 f i Gamelib:Corpse.obj
 0001:00096bf0       ?BuildString@?$enum_table@W4damage_field_spatial_types@damage_field@@@@QBEPBDXZ 00497330 f i Gamelib:DamageField.obj
 0001:00096bf0       ?BuildString@?$enum_table@W4particle_visibility_type@particle_emitter@@@@QBEPBDXZ 00497330 f i Gamelib:ParticleEmiter.obj
 0001:00096c70       ?GetValue@?$enum_table@W4handle_commands@character_task@@@@QBEHPBDAAW4handle_commands@character_task@@@Z 004973b0 f i Gamelib:character_task_set.obj
 0001:00096c70       ?GetValue@?$enum_table@W4eDialogActors@character@@@@QBEHPBDAAW4eDialogActors@character@@@Z 004973b0 f i Gamelib:Character.obj
 0001:00096c70       ?GetValue@?$enum_table@W4eCoverDesire@character_attack_state@@@@QBEHPBDAAW4eCoverDesire@character_attack_state@@@Z 004973b0 f i Gamelib:Character_Attack_State.obj
 0001:00096c70       ?GetValue@?$enum_table@W4char_states_to_transition_to@character_task_set@@@@QBEHPBDAAW4char_states_to_transition_to@character_task_set@@@Z 004973b0 f i Gamelib:character_task_set.obj
 0001:00096c70       ?GetValue@?$enum_table@W4hit_location_type@action_object_damage@@@@QBEHPBDAAW4hit_location_type@action_object_damage@@@Z 004973b0 f i Gamelib:action_object_damage.obj
 0001:00096c70       ?GetValue@?$enum_table@H@@QBEHPBDAAH@Z 004973b0 f i Gamelib:Corpse.obj
 0001:00096c70       ?GetValue@?$enum_table@W4generic_pain_type@@@@QBEHPBDAAW4generic_pain_type@@@Z 004973b0 f i Gamelib:DamageField.obj
 0001:00096c70       ?GetValue@?$enum_table@W4action_ex_types@actions_ex_base@@@@QBEHPBDAAW4action_ex_types@actions_ex_base@@@Z 004973b0 f i Gamelib:character_task.obj
 0001:00096ca0       ?DoesValueExist@?$enum_table@W4action_ex_types@actions_ex_base@@@@QBEHW4action_ex_types@actions_ex_base@@@Z 004973e0 f i Gamelib:character_task.obj
 0001:00096ca0       ?DoesValueExist@?$enum_table@W4damage_field_spatial_types@damage_field@@@@QBEHW4damage_field_spatial_types@damage_field@@@Z 004973e0 f i Gamelib:DamageField.obj
 0001:00096ca0       ?DoesValueExist@?$enum_table@W4hit_location_type@action_object_damage@@@@QBEHW4hit_location_type@action_object_damage@@@Z 004973e0 f i Gamelib:action_object_damage.obj
 0001:00096ca0       ?DoesValueExist@?$enum_table@W4eDialogActors@character@@@@QBEHW4eDialogActors@character@@@Z 004973e0 f i Gamelib:Character.obj
 0001:00096ca0       ?DoesValueExist@?$enum_table@W4type@mutanttank_attack_state@@@@QBEHW4type@mutanttank_attack_state@@@Z 004973e0 f i Gamelib:MutantTank_Attack_State.obj
 0001:00096ca0       ?DoesValueExist@?$enum_table@H@@QBEHH@Z 004973e0 f i Gamelib:Corpse.obj
 0001:00096ca0       ?DoesValueExist@?$enum_table@W4trigger_ex_spatial_activation_response@trigger_ex_object@@@@QBEHW4trigger_ex_spatial_activation_response@trigger_ex_object@@@Z 004973e0 f i Gamelib:TriggerEx_Object.obj
 0001:00096ca0       ?DoesValueExist@?$enum_table@W4char_states_to_transition_to@character_task_set@@@@QBEHW4char_states_to_transition_to@character_task_set@@@Z 004973e0 f i Gamelib:character_task_set.obj
 0001:00096ca0       ?DoesValueExist@?$enum_table@W4property_compare_modes@condition_check_property@@@@QBEHW4property_compare_modes@condition_check_property@@@Z 004973e0 f i Gamelib:condition_check_property.obj
 0001:00096ca0       ?DoesValueExist@?$enum_table@W4codes@condition_check_global@@@@QBEHW4codes@condition_check_global@@@Z 004973e0 f i Gamelib:condition_check_global.obj
 0001:00096ca0       ?DoesValueExist@?$enum_table@W4particle_endroutine_type@particle_emitter@@@@QBEHW4particle_endroutine_type@particle_emitter@@@Z 004973e0 f i Gamelib:ParticleEmiter.obj
 0001:00096ca0       ?DoesValueExist@?$enum_table@W4trigger_ex_spatial_activation_bullet_types@trigger_ex_object@@@@QBEHW4trigger_ex_spatial_activation_bullet_types@trigger_ex_object@@@Z 004973e0 f i Gamelib:TriggerEx_Object.obj
 0001:00096ca0       ?DoesValueExist@?$enum_table@W4generic_pain_type@@@@QBEHW4generic_pain_type@@@Z 004973e0 f i Gamelib:DamageField.obj
 0001:00096ca0       ?DoesValueExist@?$enum_table@W4trigger_ex_spatial_types@trigger_ex_object@@@@QBEHW4trigger_ex_spatial_types@trigger_ex_object@@@Z 004973e0 f i Gamelib:TriggerEx_Object.obj
 0001:00096ca0       ?DoesValueExist@?$enum_table@W4trigger_ex_spatial_activation_types@trigger_ex_object@@@@QBEHW4trigger_ex_spatial_activation_types@trigger_ex_object@@@Z 004973e0 f i Gamelib:TriggerEx_Object.obj
 0001:00096ca0       ?DoesValueExist@?$enum_table@W4handle_commands@character_task@@@@QBEHW4handle_commands@character_task@@@Z 004973e0 f i Gamelib:character_task_set.obj
 0001:00096ca0       ?DoesValueExist@?$enum_table@W4particle_logic_type@particle_emitter@@@@QBEHW4particle_logic_type@particle_emitter@@@Z 004973e0 f i Gamelib:ParticleEmiter.obj
 0001:00096ca0       ?DoesValueExist@?$enum_table@W4eCoverDesire@character_attack_state@@@@QBEHW4eCoverDesire@character_attack_state@@@Z 004973e0 f i Gamelib:Character_Attack_State.obj
 0001:00096ca0       ?DoesValueExist@?$enum_table@W4particle_visibility_type@particle_emitter@@@@QBEHW4particle_visibility_type@particle_emitter@@@Z 004973e0 f i Gamelib:ParticleEmiter.obj
 0001:00096cd0       ?GetObjectRTTI@bullet_projectile@@UBEABUrtti@@XZ 00497410 f i Gamelib:ProjectileBullett.obj
 0001:00096d00       ?Create@bullet_projectile_desc@@UAEPAVobject@@XZ 00497440 f i Gamelib:ProjectileBullett.obj
 0001:00096d50       ?GetTypeDesc@bullet_projectile@@UBEABVobject_desc@@XZ 00497490 f   Gamelib:ProjectileBullett.obj
 0001:00096d60       ?StartFlyby@bullet_projectile@@UAEXXZ 004974a0 f   Gamelib:ProjectileBullett.obj
 0001:00096dc0       ?GetObjectRTTI@alien_spawn_tube@@UBEABUrtti@@XZ 00497500 f i Gamelib:AlienSpawnTube.obj
 0001:00096dd0       ??0TriggerData@character_trigger_state@@QAE@XZ 00497510 f i Gamelib:AlienSpawnTube.obj
 0001:00096e50       ??0TriggerData@character_trigger_state@@QAE@ABU01@@Z 00497590 f i Gamelib:AlienSpawnTube.obj
 0001:00096ef0       ?Create@alien_spawn_tube_desc@@UAEPAVobject@@XZ 00497630 f i Gamelib:AlienSpawnTube.obj
 0001:00096f10       ??0alien_spawn_tube@@QAE@XZ 00497650 f   Gamelib:AlienSpawnTube.obj
 0001:00097050       ??_Galien_spawn_tube@@UAEPAXI@Z 00497790 f i Gamelib:AlienSpawnTube.obj
 0001:00097050       ??_Ganim_surface@@UAEPAXI@Z 00497790 f i Gamelib:AnimSurface.obj
 0001:00097050       ??_Edoor@@UAEPAXI@Z        00497790 f i Gamelib:Door.obj
 0001:00097050       ??_Gdoor@@UAEPAXI@Z        00497790 f i Gamelib:Door.obj
 0001:00097050       ??_Ereactive_surface@@UAEPAXI@Z 00497790 f i Gamelib:ReactiveSurface.obj
 0001:00097050       ??_Eanim_surface@@UAEPAXI@Z 00497790 f i Gamelib:AnimSurface.obj
 0001:00097050       ??_Ealien_spawn_tube@@UAEPAXI@Z 00497790 f i Gamelib:AlienSpawnTube.obj
 0001:00097050       ??_Greactive_surface@@UAEPAXI@Z 00497790 f i Gamelib:ReactiveSurface.obj
 0001:000970b0       ?GetTypeDesc@alien_spawn_tube@@UBEABVobject_desc@@XZ 004977f0 f   Gamelib:AlienSpawnTube.obj
 0001:000970c0       ?OnEnumProp@alien_spawn_tube@@UAEXAAVprop_enum@@@Z 00497800 f   Gamelib:AlienSpawnTube.obj
 0001:000973f0       ?OnProperty@alien_spawn_tube@@UAEHAAVprop_query@@@Z 00497b30 f   Gamelib:AlienSpawnTube.obj
 0001:00097880       ?OnAdvanceLogic@alien_spawn_tube@@UAEXM@Z 00497fc0 f   Gamelib:AlienSpawnTube.obj
 0001:00097930       ?OrbEnter@alien_spawn_tube@@QAEHUguid@@@Z 00498070 f   Gamelib:AlienSpawnTube.obj
 0001:000979f0       ?CanBeReservedByMe@alien_spawn_tube@@QAEHUguid@@@Z 00498130 f   Gamelib:AlienSpawnTube.obj
 0001:00097a80       ?Reserve@alien_spawn_tube@@QAEHUguid@@@Z 004981c0 f   Gamelib:AlienSpawnTube.obj
 0001:00097b30       ?OnEvent@alien_spawn_tube@@UAEXABUevent@@@Z 00498270 f   Gamelib:AlienSpawnTube.obj
 0001:00097e60       ??0?$object_ptr@Vcharacter@@@@QAE@ABUguid@@@Z 004985a0 f i Gamelib:AlienSpawnTube.obj
 0001:00097ec0       ?PreRotateZ@matrix4@@QAEXM@Z 00498600 f i Gamelib:Camera.obj
 0001:00097fd0       ?GetRTTI@camera@@SAABUrtti@@XZ 00498710 f i Gamelib:Camera.obj
 0001:00097fd0       ?GetObjectRTTI@camera@@UBEABUrtti@@XZ 00498710 f i Gamelib:Camera.obj
 0001:00098000       ?Create@camera_desc@@UAEPAVobject@@XZ 00498740 f i Gamelib:Camera.obj
 0001:00098020       ?GetTypeDesc@camera@@UBEABVobject_desc@@XZ 00498760 f   Gamelib:Camera.obj
 0001:00098030       ??0camera@@QAE@XZ          00498770 f   Gamelib:Camera.obj
 0001:000980c0       ?OnEnumProp@camera@@UAEXAAVprop_enum@@@Z 00498800 f   Gamelib:Camera.obj
 0001:00098170       ?OnProperty@camera@@UAEHAAVprop_query@@@Z 004988b0 f   Gamelib:Camera.obj
 0001:00098300       ?OnMove@camera@@UAEXABTvector3@@@Z 00498a40 f   Gamelib:Camera.obj
 0001:00098360       ?OnTransform@camera@@UAEXABTmatrix4@@@Z 00498aa0 f   Gamelib:Camera.obj
 0001:00098750       ?Update@camera@@MAEXH@Z    00498e90 f   Gamelib:Camera.obj
 0001:000987b0       ?RenderView@camera@@QAEXABUirect@@HHH@Z 00498ef0 f   Gamelib:Camera.obj
 0001:00098850       ??0?$object_ptr@Vtracker@@@@QAE@ABUguid@@@Z 00498f90 f i Gamelib:Camera.obj
 0001:000988b0       ?GetRTTI@pip@@SAABUrtti@@XZ 00498ff0 f i Gamelib:Pip.obj
 0001:00098910       ?GetObjectRTTI@pip@@UBEABUrtti@@XZ 00499050 f i Gamelib:Pip.obj
 0001:00098920       ?Create@pip_desc@@UAEPAVobject@@XZ 00499060 f i Gamelib:Pip.obj
 0001:00098940       ?GetTypeDesc@pip@@UBEABVobject_desc@@XZ 00499080 f   Gamelib:Pip.obj
 0001:00098950       ??0pip@@QAE@XZ             00499090 f   Gamelib:Pip.obj
 0001:00098ab0       ??_Gpip@@UAEPAXI@Z         004991f0 f i Gamelib:Pip.obj
 0001:00098ab0       ??_Epip@@UAEPAXI@Z         004991f0 f i Gamelib:Pip.obj
 0001:00098b10       ?OnEnumProp@pip@@UAEXAAVprop_enum@@@Z 00499250 f   Gamelib:Pip.obj
 0001:00098bf0       ?OnProperty@pip@@UAEHAAVprop_query@@@Z 00499330 f   Gamelib:Pip.obj
 0001:00098dc0       ?OnInit@pip@@MAEXXZ        00499500 f   Gamelib:Pip.obj
 0001:00098e20       ?OnKill@pip@@MAEXXZ        00499560 f   Gamelib:Pip.obj
 0001:00098e60       ?OnRender@pip@@MAEXXZ      004995a0 f   Gamelib:Pip.obj
 0001:000990f0       ?OnAdvanceLogic@pip@@MAEXM@Z 00499830 f   Gamelib:Pip.obj
 0001:00099150       ?OnActivate@pip@@MAEXH@Z   00499890 f   Gamelib:Pip.obj
 0001:000991e0       ?RenderView@pip@@AAEXXZ    00499920 f   Gamelib:Pip.obj
 0001:00099250       ?AddTextureRefs@pip@@AAEXPAVobject@@@Z 00499990 f   Gamelib:Pip.obj
 0001:00099390       ?InitTextureRefs@pip@@AAEXXZ 00499ad0 f   Gamelib:Pip.obj
 0001:000993f0       ?ActivatePipTexture@pip@@AAEXH@Z 00499b30 f   Gamelib:Pip.obj
 0001:000994c0       ?SetupState@pip@@AAEXW4state@1@@Z 00499c00 f   Gamelib:Pip.obj
 0001:00099650       ?AdvanceState@pip@@AAEXM@Z 00499d90 f   Gamelib:Pip.obj
 0001:00099730       ?UpdateEar@pip@@AAEXXZ     00499e70 f   Gamelib:Pip.obj
 0001:00099830       ?GetRenderInstPtr@pip@@UAEPAVrender_inst@@XZ 00499f70 f   Gamelib:Pip.obj
 0001:00099850       ?GetAnimGroupHandlePtr@pip@@UAEPAU?$rhandle@Vanim_group@@@@XZ 00499f90 f   Gamelib:Pip.obj
 0001:00099870       ??0?$object_ptr@Vcamera@@@@QAE@ABUguid@@@Z 00499fb0 f i Gamelib:Pip.obj
 0001:000998d0       ?GetAnimGroup@anim_track_controller@@QAEABVanim_group@@XZ 0049a010 f i Gamelib:AnimTrack.obj
 0001:000998d0       ?GetAnimGroup@simple_anim_player@@QAEPBVanim_group@@XZ 0049a010 f i Gamelib:Door.obj
 0001:00099910       ?GetFrameParametric@simple_anim_player@@QAEMXZ 0049a050 f i Gamelib:Door.obj
 0001:00099940       ?GetRTTI@door@@SAABUrtti@@XZ 0049a080 f i Gamelib:Door.obj
 0001:000999a0       ?GetObjectRTTI@door@@UBEABUrtti@@XZ 0049a0e0 f i Gamelib:Door.obj
 0001:000999b0       ?Create@door_desc@@UAEPAVobject@@XZ 0049a0f0 f i Gamelib:Door.obj
 0001:000999d0       ?GetTypeDesc@door@@UBEABVobject_desc@@XZ 0049a110 f   Gamelib:Door.obj
 0001:000999e0       ??0door@@QAE@XZ            0049a120 f   Gamelib:Door.obj
 0001:00099b80       ?OnInit@door@@MAEXXZ       0049a2c0 f   Gamelib:Door.obj
 0001:00099b90       ?SetAnimIndex@door@@IAEXXZ 0049a2d0 f   Gamelib:Door.obj
 0001:00099de0       ?GetLocalBBox@door@@UBE?AUbbox@@XZ 0049a520 f   Gamelib:Door.obj
 0001:00099e00       ?GetDoorBBox@door@@QBE?AUbbox@@XZ 0049a540 f   Gamelib:Door.obj
 0001:00099f60       ?OnRender@door@@MAEXXZ     0049a6a0 f   Gamelib:Door.obj
 0001:00099f70       ?WakeUp@door@@QAEXXZ       0049a6b0 f   Gamelib:Door.obj
 0001:0009a2d0       ?OnColCheck@door@@MAEXXZ   0049aa10 f   Gamelib:Door.obj
 0001:0009a2e0       ?SetTargetState@door@@QAEXW4state@1@@Z 0049aa20 f   Gamelib:Door.obj
 0001:0009a490       ?OnAdvanceLogic@door@@MAEXM@Z 0049abd0 f   Gamelib:Door.obj
 0001:0009a570       ?CheckProximity@door@@IAEHXZ 0049acb0 f   Gamelib:Door.obj
 0001:0009a5c0       ?UpdateState@door@@IAEXM@Z 0049ad00 f   Gamelib:Door.obj
 0001:0009a910       ?SwitchState@door@@IAEXW4state@1@@Z 0049b050 f   Gamelib:Door.obj
 0001:0009a940       ?OnEnumProp@door@@UAEXAAVprop_enum@@@Z 0049b080 f   Gamelib:Door.obj
 0001:0009aa70       ?OnProperty@door@@UAEHAAVprop_query@@@Z 0049b1b0 f   Gamelib:Door.obj
 0001:0009b210       ?GetObjectRTTI@weapon_smp@@UBEABUrtti@@XZ 0049b950 f i Gamelib:WeaponSMP.obj
 0001:0009b240       ?Create@weapon_smp_desc@@UAEPAVobject@@XZ 0049b980 f i Gamelib:WeaponSMP.obj
 0001:0009b260       ?GetTypeDesc@weapon_smp@@UBEABVobject_desc@@XZ 0049b9a0 f   Gamelib:WeaponSMP.obj
 0001:0009b270       ??0weapon_smp@@QAE@XZ      0049b9b0 f   Gamelib:WeaponSMP.obj
 0001:0009b360       ??_Eweapon_smp@@UAEPAXI@Z  0049baa0 f i Gamelib:WeaponSMP.obj
 0001:0009b360       ??_Gweapon_smp@@UAEPAXI@Z  0049baa0 f i Gamelib:WeaponSMP.obj
 0001:0009b390       ??1weapon_smp@@UAE@XZ      0049bad0 f   Gamelib:WeaponSMP.obj
 0001:0009b3e0       ?FireWeaponProtected@weapon_smp@@MAEHABTvector3@@0ABMABUradian3@@ABUguid@@H@Z 0049bb20 f   Gamelib:WeaponSMP.obj
 0001:0009b500       ?FireNPCWeaponProtected@weapon_smp@@MAEHABTvector3@@0ABUguid@@MH@Z 0049bc40 f   Gamelib:WeaponSMP.obj
 0001:0009b7b0       ?OnMove@weapon_dual_smp@@UAEXABTvector3@@@Z 0049bef0 f   Gamelib:WeaponDualSMP.obj
 0001:0009b7b0       ?OnMove@weapon_smp@@UAEXABTvector3@@@Z 0049bef0 f   Gamelib:WeaponSMP.obj
 0001:0009b7f0       ?OnTransform@weapon_smp@@UAEXABTmatrix4@@@Z 0049bf30 f   Gamelib:WeaponSMP.obj
 0001:0009b7f0       ?OnTransform@weapon_dual_smp@@UAEXABTmatrix4@@@Z 0049bf30 f   Gamelib:WeaponDualSMP.obj
 0001:0009b860       ?EndAltFire@weapon_smp@@UAEXXZ 0049bfa0 f   Gamelib:WeaponSMP.obj
 0001:0009b860       ?EndPrimaryFire@weapon_smp@@UAEXXZ 0049bfa0 f   Gamelib:WeaponSMP.obj
 0001:0009b920       ?ReleaseAudio@weapon_smp@@UAEXXZ 0049c060 f   Gamelib:WeaponSMP.obj
 0001:0009b960       ?OnProperty@weapon_smp@@UAEHAAVprop_query@@@Z 0049c0a0 f   Gamelib:WeaponSMP.obj
 0001:0009ba70       ?GetFlashlightTransformInfo@weapon_dual_smp@@UAEHAATmatrix4@@AATvector3@@@Z 0049c1b0 f   Gamelib:WeaponDualSMP.obj
 0001:0009ba70       ?GetFlashlightTransformInfo@weapon_smp@@UAEHAATmatrix4@@AATvector3@@@Z 0049c1b0 f   Gamelib:WeaponSMP.obj
 0001:0009bac0       ?ShouldUpdateReticle@weapon_sniper_rifle@@UAEHXZ 0049c200 f   Gamelib:WeaponSniper.obj
 0001:0009bac0       ?ShouldUpdateReticle@weapon_desert_eagle@@UAEHXZ 0049c200 f   Gamelib:WeaponDesertEagle.obj
 0001:0009bac0       ?ShouldUpdateReticle@weapon_smp@@UAEHXZ 0049c200 f   Gamelib:WeaponSMP.obj
 0001:0009bad0       ?GetRTTI@cover_node@@SAABUrtti@@XZ 0049c210 f i Gamelib:CoverNode.obj
 0001:0009bb30       ?GetObjectRTTI@cover_node@@UBEABUrtti@@XZ 0049c270 f i Gamelib:CoverNode.obj
 0001:0009bb40       ?IsActive@cover_node@@UAEHXZ 0049c280 f i Gamelib:CoverNode.obj
 0001:0009bb50       ?GetObjectRTTI@destructible_obj@@UBEABUrtti@@XZ 0049c290 f i Gamelib:DestructibleObj.obj
 0001:0009bb50       ?GetRTTI@destructible_obj@@SAABUrtti@@XZ 0049c290 f i Gamelib:CoverNode.obj
 0001:0009bb80       ?Create@cover_node_desc@@UAEPAVobject@@XZ 0049c2c0 f i Gamelib:CoverNode.obj
 0001:0009bba0       ??0cover_node@@QAE@XZ      0049c2e0 f   Gamelib:CoverNode.obj
 0001:0009bca0       ?GetTypeDesc@cover_node@@UBEABVobject_desc@@XZ 0049c3e0 f   Gamelib:CoverNode.obj
 0001:0009bcb0       ?ComputePlanes@cover_node@@IAEXXZ 0049c3f0 f   Gamelib:CoverNode.obj
 0001:0009bf90       ?IsCoverFromLocation@cover_node@@QAEHABTvector3@@@Z 0049c6d0 f   Gamelib:CoverNode.obj
 0001:0009bff0       ?GetLocalBBox@cover_node@@UBE?AUbbox@@XZ 0049c730 f   Gamelib:CoverNode.obj
 0001:0009c050       ?OnAdvanceLogic@cover_node@@UAEXM@Z 0049c790 f   Gamelib:CoverNode.obj
 0001:0009c0f0       ?OnMove@cover_node@@UAEXABTvector3@@@Z 0049c830 f   Gamelib:CoverNode.obj
 0001:0009c130       ?OnTransform@cover_node@@UAEXABTmatrix4@@@Z 0049c870 f   Gamelib:CoverNode.obj
 0001:0009c180       ?OnActivate@cover_node@@UAEXH@Z 0049c8c0 f   Gamelib:CoverNode.obj
 0001:0009c190       ?GetNPCFacing@cover_node@@QAEMXZ 0049c8d0 f   Gamelib:CoverNode.obj
 0001:0009c1b0       ?HasValidAnims2@cover_node@@QAEHW4type@object@@PBDW4inven_item@@@Z 0049c8f0 f   Gamelib:CoverNode.obj
 0001:0009c210       ?ValidateWeaponNPC@cover_node@@IAEXXZ 0049c950 f   Gamelib:CoverNode.obj
 0001:0009c300       ?GetIdleAnimNameForWeapon@cover_node@@IAEPBDW4eCoverWeaponType@1@@Z 0049ca40 f   Gamelib:CoverNode.obj
 0001:0009c360       ?GetWeaponType2@cover_node@@IAE?AW4eCoverWeaponType@1@W4inven_item@@@Z 0049caa0 f   Gamelib:CoverNode.obj
 0001:0009c3d0       ?InvalidateNode@cover_node@@QAEXXZ 0049cb10 f   Gamelib:CoverNode.obj
 0001:0009c410       ?ReserveNode@cover_node@@QAEXUguid@@@Z 0049cb50 f   Gamelib:CoverNode.obj
 0001:0009c450       ?IsReserved@cover_node@@QAEHUguid@@@Z 0049cb90 f   Gamelib:CoverNode.obj
 0001:0009c500       ?GetAnimGroupName@cover_node@@QAEPBDW4type@object@@PBD@Z 0049cc40 f   Gamelib:CoverNode.obj
 0001:0009c5d0       ?GetAnimPackageType@cover_node@@IAE?AW4eCoverAnimPackageType@1@W4type@object@@PBD@Z 0049cd10 f   Gamelib:CoverNode.obj
 0001:0009c660       ?GetAnimGroupNameByType@cover_node@@QAEPBDH@Z 0049cda0 f   Gamelib:CoverNode.obj
 0001:0009c6c0       ?OnEnumProp@cover_node@@UAEXAAVprop_enum@@@Z 0049ce00 f   Gamelib:CoverNode.obj
 0001:0009c840       ?OnProperty@cover_node@@UAEHAAVprop_query@@@Z 0049cf80 f   Gamelib:CoverNode.obj
 0001:0009cfe0       ?GetXFOV@cover_node@@IAEMXZ 0049d720 f   Gamelib:CoverNode.obj
 0001:0009d010       ?SetXFOV@cover_node@@IAEXM@Z 0049d750 f   Gamelib:CoverNode.obj
 0001:0009d050       ?GetYFOV@cover_node@@IAEMXZ 0049d790 f   Gamelib:CoverNode.obj
 0001:0009d080       ?SetYFOV@cover_node@@IAEXM@Z 0049d7c0 f   Gamelib:CoverNode.obj
 0001:0009d0c0       ?GetObjectRTTI@weapon_desert_eagle@@UBEABUrtti@@XZ 0049d800 f i Gamelib:WeaponDesertEagle.obj
 0001:0009d0f0       ?GetLogicalName@weapon_desert_eagle@@UAEPBDXZ 0049d830 f i Gamelib:WeaponDesertEagle.obj
 0001:0009d100       ?Create@weapon_desert_eagle_desc@@UAEPAVobject@@XZ 0049d840 f i Gamelib:WeaponDesertEagle.obj
 0001:0009d120       ?GetTypeDesc@weapon_desert_eagle@@UBEABVobject_desc@@XZ 0049d860 f   Gamelib:WeaponDesertEagle.obj
 0001:0009d130       ??0weapon_desert_eagle@@QAE@XZ 0049d870 f   Gamelib:WeaponDesertEagle.obj
 0001:0009d220       ??_Gweapon_desert_eagle@@UAEPAXI@Z 0049d960 f i Gamelib:WeaponDesertEagle.obj
 0001:0009d220       ??_Eweapon_desert_eagle@@UAEPAXI@Z 0049d960 f i Gamelib:WeaponDesertEagle.obj
 0001:0009d250       ?FireNPCWeaponProtected@weapon_desert_eagle@@MAEHABTvector3@@0ABUguid@@MH@Z 0049d990 f   Gamelib:WeaponDesertEagle.obj
 0001:0009d500       ?FireWeaponProtected@weapon_desert_eagle@@MAEHABTvector3@@0ABMABUradian3@@ABUguid@@H@Z 0049dc40 f   Gamelib:WeaponDesertEagle.obj
 0001:0009d500       ?FireSecondaryProtected@weapon_desert_eagle@@MAEHABTvector3@@0ABMABUradian3@@ABUguid@@H@Z 0049dc40 f   Gamelib:WeaponDesertEagle.obj
 0001:0009d5c0       ?FireBullet@weapon_desert_eagle@@QAEXABTvector3@@ABUradian3@@0Uguid@@H@Z 0049dd00 f   Gamelib:WeaponDesertEagle.obj
 0001:0009d660       ?OnAdvanceLogic@weapon_desert_eagle@@UAEXM@Z 0049dda0 f   Gamelib:WeaponDesertEagle.obj
 0001:0009d730       ?OnEnumProp@weapon_desert_eagle@@UAEXAAVprop_enum@@@Z 0049de70 f   Gamelib:WeaponDesertEagle.obj
 0001:0009d790       ?OnProperty@weapon_desert_eagle@@UAEHAAVprop_query@@@Z 0049ded0 f   Gamelib:WeaponDesertEagle.obj
 0001:0009d8e0       ?GetFlashlightTransformInfo@weapon_desert_eagle@@UAEHAATmatrix4@@AATvector3@@@Z 0049e020 f   Gamelib:WeaponDesertEagle.obj
 0001:0009d930       ?GetRTTI@feedback_emitter@@SAABUrtti@@XZ 0049e070 f i Gamelib:feedbackemitter.obj
 0001:0009d990       ?GetObjectRTTI@feedback_emitter@@UBEABUrtti@@XZ 0049e0d0 f i Gamelib:feedbackemitter.obj
 0001:0009d9a0       ?Create@feedback_emitter_desc@@UAEPAVobject@@XZ 0049e0e0 f i Gamelib:feedbackemitter.obj
 0001:0009d9c0       ?OnEnumProp@feedback_emitter_desc@@UAEXAAVprop_enum@@@Z 0049e100 f i Gamelib:feedbackemitter.obj
 0001:0009d9c0       ?OnEnumProp@damage_field_desc@@UAEXAAVprop_enum@@@Z 0049e100 f i Gamelib:DamageField.obj
 0001:0009d9e0       ?GetTypeDesc@feedback_emitter@@UBEABVobject_desc@@XZ 0049e120 f   Gamelib:feedbackemitter.obj
 0001:0009d9f0       ??0feedback_emitter@@QAE@XZ 0049e130 f   Gamelib:feedbackemitter.obj
 0001:0009daa0       ?OnAdvanceLogic@feedback_emitter@@UAEXM@Z 0049e1e0 f   Gamelib:feedbackemitter.obj
 0001:0009dbe0       ?OnEnumProp@feedback_emitter@@UAEXAAVprop_enum@@@Z 0049e320 f   Gamelib:feedbackemitter.obj
 0001:0009dcb0       ?OnProperty@feedback_emitter@@UAEHAAVprop_query@@@Z 0049e3f0 f   Gamelib:feedbackemitter.obj
 0001:0009de40       ?GetLocalBBox@feedback_emitter@@UBE?AUbbox@@XZ 0049e580 f   Gamelib:feedbackemitter.obj
 0001:0009df30       ?OnColCheck@feedback_emitter@@UAEXXZ 0049e670 f   Gamelib:feedbackemitter.obj
 0001:0009e000       ?OnColNotify@feedback_emitter@@UAEXAAVobject@@@Z 0049e740 f   Gamelib:feedbackemitter.obj
 0001:0009e030       ?OnActivate@feedback_emitter@@UAEXH@Z 0049e770 f   Gamelib:feedbackemitter.obj
 0001:0009e0a0       ?QueryPlayerInVolume@feedback_emitter@@QAEHXZ 0049e7e0 f   Gamelib:feedbackemitter.obj
 0001:0009e0f0       ?QueryObjectInVolume@feedback_emitter@@QAEHPAVobject@@@Z 0049e830 f   Gamelib:feedbackemitter.obj
 0001:0009e460       ?GetRTTI@character_task_set@@SAABUrtti@@XZ 0049eba0 f i Gamelib:character_task_set.obj
 0001:0009e4c0       ?GetObjectRTTI@character_task_set@@UBEABUrtti@@XZ 0049ec00 f i Gamelib:character_task_set.obj
 0001:0009e4d0       ?Create@character_task_set_desc@@UAEPAVobject@@XZ 0049ec10 f i Gamelib:character_task_set.obj
 0001:0009e4f0       ?GetTypeDesc@character_task_set@@UBEABVobject_desc@@XZ 0049ec30 f   Gamelib:character_task_set.obj
 0001:0009e500       ??0character_task_set@@QAE@XZ 0049ec40 f   Gamelib:character_task_set.obj
 0001:0009e600       ??_Echaracter_task_set@@UAEPAXI@Z 0049ed40 f i Gamelib:character_task_set.obj
 0001:0009e600       ??_Gcharacter_task_set@@UAEPAXI@Z 0049ed40 f i Gamelib:character_task_set.obj
 0001:0009e630       ??1character_task_set@@UAE@XZ 0049ed70 f   Gamelib:character_task_set.obj
 0001:0009e670       ?OnEnumProp@character_task_set@@UAEXAAVprop_enum@@@Z 0049edb0 f   Gamelib:character_task_set.obj
 0001:0009e7e0       ?OnProperty@character_task_set@@UAEHAAVprop_query@@@Z 0049ef20 f   Gamelib:character_task_set.obj
 0001:0009eaa0       ?AddTasks@character_task_set@@QAEXH@Z 0049f1e0 f   Gamelib:character_task_set.obj
 0001:0009eb10       ?RemoveTask@character_task_set@@QAEXPAVcharacter_task@@@Z 0049f250 f   Gamelib:character_task_set.obj
 0001:0009eb90       ?MoveTaskUp@character_task_set@@QAEXPAVcharacter_task@@@Z 0049f2d0 f   Gamelib:character_task_set.obj
 0001:0009ebf0       ?MoveTaskDown@character_task_set@@QAEXPAVcharacter_task@@@Z 0049f330 f   Gamelib:character_task_set.obj
 0001:0009ec50       ?ActivateTask@character_task_set@@QAEXXZ 0049f390 f   Gamelib:character_task_set.obj
 0001:0009ece0       ?OnActivate@character_task_set@@UAEXH@Z 0049f420 f   Gamelib:character_task_set.obj
 0001:0009ed90       ?AssignNextTask@character_task_set@@QAEHM@Z 0049f4d0 f   Gamelib:character_task_set.obj
 0001:0009ee00       ?OnTaskItemComplete@character_task_set@@QAEXXZ 0049f540 f   Gamelib:character_task_set.obj
 0001:0009ee30       ?OnTaskInterrupt@character_task_set@@QAEHXZ 0049f570 f   Gamelib:character_task_set.obj
 0001:0009ee60       ?OnTaskListFinished@character_task_set@@QAEXXZ 0049f5a0 f   Gamelib:character_task_set.obj
 0001:0009ef00       ?ResetIndexPtrs@character_task_set@@QAEXH@Z 0049f640 f   Gamelib:character_task_set.obj
 0001:0009ef60       ?ResetTaskListToNext@character_task_set@@QAEXXZ 0049f6a0 f   Gamelib:character_task_set.obj
 0001:0009ef90       ?OnAdvanceLogic@character_task_set@@UAEXM@Z 0049f6d0 f   Gamelib:character_task_set.obj
 0001:0009f020       ?GetRTTI@debris_glass_cluster@@SAABUrtti@@XZ 0049f760 f i Gamelib:debris_glass_cluster.obj
 0001:0009f080       ?GetObjectRTTI@debris_glass_cluster@@UBEABUrtti@@XZ 0049f7c0 f i Gamelib:debris_glass_cluster.obj
 0001:0009f090       ?Create@debris_glass_cluster_desc@@UAEPAVobject@@XZ 0049f7d0 f i Gamelib:debris_glass_cluster.obj
 0001:0009f0b0       ?GetTypeDesc@debris_glass_cluster@@MBEABVobject_desc@@XZ 0049f7f0 f   Gamelib:debris_glass_cluster.obj
 0001:0009f0c0       ??0debris_glass_cluster@@QAE@XZ 0049f800 f   Gamelib:debris_glass_cluster.obj
 0001:0009f130       ??_Edebris_glass_cluster@@UAEPAXI@Z 0049f870 f i Gamelib:debris_glass_cluster.obj
 0001:0009f130       ??_Gdebris_glass_cluster@@UAEPAXI@Z 0049f870 f i Gamelib:debris_glass_cluster.obj
 0001:0009f180       ?GetLocalBBox@debris_glass_cluster@@UBE?AUbbox@@XZ 0049f8c0 f   Gamelib:debris_glass_cluster.obj
 0001:0009f1a0       ?TesselateIntoShards@debris_glass_cluster@@IAEXPBVplay_surface@@PAUdetail_tri@object@@HHHPAM@Z 0049f8e0 f   Gamelib:debris_glass_cluster.obj
 0001:000a0340       ?CreateFromRigidGeom@debris_glass_cluster@@UAEXPAVplay_surface@@PBVpain@@@Z 004a0a80 f   Gamelib:debris_glass_cluster.obj
 0001:000a07a0       ?OnAdvanceLogic@debris_glass_cluster@@UAEXM@Z 004a0ee0 f   Gamelib:debris_glass_cluster.obj
 0001:000a0a00       ?OnRenderTransparent@debris_glass_cluster@@UAEXXZ 004a1140 f   Gamelib:debris_glass_cluster.obj
 0001:000a0ce0       ?GetRTTI@input_setting@@SAABUrtti@@XZ 004a1420 f i Gamelib:InputSetting.obj
 0001:000a0d40       ?GetObjectRTTI@input_setting@@UBEABUrtti@@XZ 004a1480 f i Gamelib:InputSetting.obj
 0001:000a0d50       ?Create@input_setting_desc@@UAEPAVobject@@XZ 004a1490 f i Gamelib:InputSetting.obj
 0001:000a0d80       ?GetTypeDesc@input_setting@@UBEABVobject_desc@@XZ 004a14c0 f   Gamelib:InputSetting.obj
 0001:000a0d90       ?OnEnumProp@input_setting@@UAEXAAVprop_enum@@@Z 004a14d0 f   Gamelib:InputSetting.obj
 0001:000a0e10       ?OnProperty@input_setting@@UAEHAAVprop_query@@@Z 004a1550 f   Gamelib:InputSetting.obj
 0001:000a0ee0       ?TurnAttrBitsOff@object@@QAEXI@Z 004a1620 f i Gamelib:SoundEmitter.obj
 0001:000a0f20       ?GetRTTI@sound_emitter@@SAABUrtti@@XZ 004a1660 f i Gamelib:SoundEmitter.obj
 0001:000a0f80       ?GetObjectRTTI@sound_emitter@@UBEABUrtti@@XZ 004a16c0 f i Gamelib:SoundEmitter.obj
 0001:000a0f90       ?Create@sound_emitter_desc@@UAEPAVobject@@XZ 004a16d0 f i Gamelib:SoundEmitter.obj
 0001:000a0fb0       ?GetTypeDesc@sound_emitter@@MBEABVobject_desc@@XZ 004a16f0 f   Gamelib:SoundEmitter.obj
 0001:000a0fc0       ??0sound_emitter@@QAE@XZ   004a1700 f   Gamelib:SoundEmitter.obj
 0001:000a17c0       ??_Gcharacter_idle_state@@UAEPAXI@Z 004a1f00 f i Gamelib:Character_Idle_State.obj
 0001:000a17c0       ??_Eaction_affect_global@@UAEPAXI@Z 004a1f00 f i Gamelib:action_affect_global.obj
 0001:000a17c0       ??_Eaction_ai_base@@UAEPAXI@Z 004a1f00 f i Gamelib:action_ai_base.obj
 0001:000a17c0       ??_Eblueprint_bag@@UAEPAXI@Z 004a1f00 f i Gamelib:BluePrintBag.obj
 0001:000a17c0       ??_Elevel_settings@@UAEPAXI@Z 004a1f00 f i Gamelib:LevelSettings.obj
 0001:000a17c0       ??_Glens_filter_desc@@UAEPAXI@Z 004a1f00 f i Gamelib:LensFilter.obj
 0001:000a17c0       ??_Econdition_check_property@@UAEPAXI@Z 004a1f00 f i Gamelib:condition_check_property.obj
 0001:000a17c0       ??_Gplayer_desc@@UAEPAXI@Z 004a1f00 f i Gamelib:PlayerObject.obj
 0001:000a17c0       ??_Gaction_exit_turret@@UAEPAXI@Z 004a1f00 f i Gamelib:action_exit_turret.obj
 0001:000a17c0       ??_Eanim_surface_desc@@UAEPAXI@Z 004a1f00 f i Gamelib:AnimSurface.obj
 0001:000a17c0       ??_Gturret_desc@@UAEPAXI@Z 004a1f00 f i Gamelib:Turret.obj
 0001:000a17c0       ??_Eprojector_obj_desc@@UAEPAXI@Z 004a1f00 f i Gamelib:Projector.obj
 0001:000a17c0       ??_Econdition_player_button_state@@UAEPAXI@Z 004a1f00 f i Gamelib:condition_player_button_state.obj
 0001:000a17c0       ??_Ecloth_object_desc@@UAEPAXI@Z 004a1f00 f i Gamelib:ClothObject.obj
 0001:000a17c0       ??_Gdebris_desc@@UAEPAXI@Z 004a1f00 f i Gamelib:debris.obj
 0001:000a17c0       ??_Gparticle_event_emitter@@UAEPAXI@Z 004a1f00 f i Gamelib:ParticleEventEmitter.obj
 0001:000a17c0       ??_Glevel_settings_desc@@UAEPAXI@Z 004a1f00 f i Gamelib:LevelSettings.obj
 0001:000a17c0       ??_Eground_zero_core_obj_desc@@UAEPAXI@Z 004a1f00 f i Gamelib:GZCoreObj.obj
 0001:000a17c0       ??_Espawner_object@@UAEPAXI@Z 004a1f00 f i Gamelib:SpawnerObject.obj
 0001:000a17c0       ??_Eproxy_playsurface@@UAEPAXI@Z 004a1f00 f i Gamelib:ProxyPlaySurface.obj
 0001:000a17c0       ??_Emanipulator_desc@@UAEPAXI@Z 004a1f00 f i Gamelib:Manipulator.obj
 0001:000a17c0       ??_Ealarm_node@@UAEPAXI@Z  004a1f00 f i Gamelib:AlarmNode.obj
 0001:000a17c0       ??_Eaction_music_intensity@@UAEPAXI@Z 004a1f00 f i Gamelib:action_music_intensity.obj
 0001:000a17c0       ??_Eweapon_smp_desc@@UAEPAXI@Z 004a1f00 f i Gamelib:WeaponSMP.obj
 0001:000a17c0       ??_Ganimation_obj_desc@@UAEPAXI@Z 004a1f00 f i Gamelib:Animation_obj.obj
 0001:000a17c0       ??_Gmp_settings@@UAEPAXI@Z 004a1f00 f i Gamelib:MP_Settings.obj
 0001:000a17c0       ??_Gcover_node@@UAEPAXI@Z  004a1f00 f i Gamelib:CoverNode.obj
 0001:000a17c0       ??_Edamage_field@@UAEPAXI@Z 004a1f00 f i Gamelib:DamageField.obj
 0001:000a17c0       ??_Echaracter_search_state@@UAEPAXI@Z 004a1f00 f i Gamelib:Character_Search_State.obj
 0001:000a17c0       ??_Ggroup_desc@@UAEPAXI@Z  004a1f00 f i Gamelib:Group.obj
 0001:000a17c0       ??_EblackOp_attack_state@@UAEPAXI@Z 004a1f00 f i Gamelib:BlackOp_Attack_State.obj
 0001:000a17c0       ??_Gweapon_sniper_rifle_desc@@UAEPAXI@Z 004a1f00 f i Gamelib:WeaponSniper.obj
 0001:000a17c0       ??_Gcharacter_cover_state@@UAEPAXI@Z 004a1f00 f i Gamelib:Character_Cover_State.obj
 0001:000a17c0       ??_Etrigger_meta_delay@@UAEPAXI@Z 004a1f00 f i Gamelib:trigger_meta_delay.obj
 0001:000a17c0       ??_Ggrunt_cover_state@@UAEPAXI@Z 004a1f00 f i Gamelib:Grunt_Cover_State.obj
 0001:000a17c0       ??_Gcontroller@@UAEPAXI@Z  004a1f00 f i Gamelib:Controller.obj
 0001:000a17c0       ??_Eaction_object_move_relative@@UAEPAXI@Z 004a1f00 f i Gamelib:action_object_move_relative.obj
 0001:000a17c0       ??_Gbullet_projectile_desc@@UAEPAXI@Z 004a1f00 f i Gamelib:ProjectileBullett.obj
 0001:000a17c0       ??_Gaction_ai_nav_activation@@UAEPAXI@Z 004a1f00 f i Gamelib:action_ai_nav_activation.obj
 0001:000a17c0       ??_Gtrigger_meta_cinema_block@@UAEPAXI@Z 004a1f00 f i Gamelib:trigger_meta_cinema_block.obj
 0001:000a17c0       ??_Gcorpse_desc@@UAEPAXI@Z 004a1f00 f i Gamelib:Corpse.obj
 0001:000a17c0       ??_Gtrigger_meta_label@@UAEPAXI@Z 004a1f00 f i Gamelib:trigger_meta_label.obj
 0001:000a17c0       ??_Ggrunt_desc@@UAEPAXI@Z  004a1f00 f i Gamelib:Grunt.obj
 0001:000a17c0       ??_Ealien_spawn_tube_desc@@UAEPAXI@Z 004a1f00 f i Gamelib:AlienSpawnTube.obj
 0001:000a17c0       ??_Ezone_portal@@UAEPAXI@Z 004a1f00 f i Gamelib:Portal.obj
 0001:000a17c0       ??_Gweapon_dual_shotgun_desc@@UAEPAXI@Z 004a1f00 f i Gamelib:WeaponDualShotgun.obj
 0001:000a17c0       ??_Galien_orb_desc@@UAEPAXI@Z 004a1f00 f i Gamelib:AlienOrb.obj
 0001:000a17c0       ??_Gweapon_msn_desc@@UAEPAXI@Z 004a1f00 f i Gamelib:WeaponMSN.obj
 0001:000a17c0       ??_Eaction_ai_dialog_line@@UAEPAXI@Z 004a1f00 f i Gamelib:action_ai_dialog_line.obj
 0001:000a17c0       ??_Ginput_setting_desc@@UAEPAXI@Z 004a1f00 f i Gamelib:InputSetting.obj
 0001:000a17c0       ??_Gaction_player_inventory@@UAEPAXI@Z 004a1f00 f i Gamelib:action_player_inventory.obj
 0001:000a17c0       ??_Gcontroller_desc@@UAEPAXI@Z 004a1f00 f i Gamelib:Controller.obj
 0001:000a17c0       ??_Eaction_ai_play_anim@@UAEPAXI@Z 004a1f00 f i Gamelib:action_ai_play_anim.obj
 0001:000a17c0       ??_Ebullet_projectile_desc@@UAEPAXI@Z 004a1f00 f i Gamelib:ProjectileBullett.obj
 0001:000a17c0       ??_Gaction_ai_searchto_guid@@UAEPAXI@Z 004a1f00 f i Gamelib:action_ai_searchto_guid.obj
 0001:000a17c0       ??_Eaction_ai_searchto_guid@@UAEPAXI@Z 004a1f00 f i Gamelib:action_ai_searchto_guid.obj
 0001:000a17c0       ??_Eparticle_emitter_desc@@UAEPAXI@Z 004a1f00 f i Gamelib:ParticleEmiter.obj
 0001:000a17c0       ??_Gnotepad_object_desc@@UAEPAXI@Z 004a1f00 f i Gamelib:notepad_object.obj
 0001:000a17c0       ??_Eaction_object_damage@@UAEPAXI@Z 004a1f00 f i Gamelib:action_object_damage.obj
 0001:000a17c0       ??_Gaction_object_activation@@UAEPAXI@Z 004a1f00 f i Gamelib:action_object_activation.obj
 0001:000a17c0       ??_Echaracter_task_set_desc@@UAEPAXI@Z 004a1f00 f i Gamelib:character_task_set.obj
 0001:000a17c0       ??_Ehud_object_desc@@UAEPAXI@Z 004a1f00 f i Gamelib:HudObject.obj
 0001:000a17c0       ??_Gfocus_object@@UAEPAXI@Z 004a1f00 f i Gamelib:FocusObject.obj
 0001:000a17c0       ??_Gdynamic_light_obj@@UAEPAXI@Z 004a1f00 f i Gamelib:LightObject.obj
 0001:000a17c0       ??_Gcondition_player_has_item@@UAEPAXI@Z 004a1f00 f i Gamelib:condition_player_has_item.obj
 0001:000a17c0       ??_Gspawn_point_desc@@UAEPAXI@Z 004a1f00 f i Gamelib:SpawnPoint.obj
 0001:000a17c0       ??_Efocus_object_desc@@UAEPAXI@Z 004a1f00 f i Gamelib:FocusObject.obj
 0001:000a17c0       ??_Glevel_settings@@UAEPAXI@Z 004a1f00 f i Gamelib:LevelSettings.obj
 0001:000a17c0       ??_Enet_ghost_desc@@UAEPAXI@Z 004a1f00 f i NetworkMgr:NetGhost.obj
 0001:000a17c0       ??_Gjumping_bean_projectile_desc@@UAEPAXI@Z 004a1f00 f i Gamelib:JumpingBeanProjectile.obj
 0001:000a17c0       ??_Echaracter_alarm_state@@UAEPAXI@Z 004a1f00 f i Gamelib:Character_Alarm_State.obj
 0001:000a17c0       ??_Gaction_checkpoint@@UAEPAXI@Z 004a1f00 f i Gamelib:action_checkpoint.obj
 0001:000a17c0       ??_Eaction_player_hud@@UAEPAXI@Z 004a1f00 f i Gamelib:action_player_hud.obj
 0001:000a17c0       ??_Egrunt_desc@@UAEPAXI@Z  004a1f00 f i Gamelib:Grunt.obj
 0001:000a17c0       ??_Efeedback_emitter_desc@@UAEPAXI@Z 004a1f00 f i Gamelib:feedbackemitter.obj
 0001:000a17c0       ??_Gprojector_obj_desc@@UAEPAXI@Z 004a1f00 f i Gamelib:Projector.obj
 0001:000a17c0       ??_Glore_object_desc@@UAEPAXI@Z 004a1f00 f i Gamelib:LoreObject.obj
 0001:000a17c0       ??_Gladder_field_desc@@UAEPAXI@Z 004a1f00 f i Gamelib:Ladder_Field.obj
 0001:000a17c0       ??_Econdition_line_of_sight@@UAEPAXI@Z 004a1f00 f i Gamelib:condition_line_of_sight.obj
 0001:000a17c0       ??_Gaction_save_game@@UAEPAXI@Z 004a1f00 f i Gamelib:action_save_game.obj
 0001:000a17c0       ??_Gtracker@@UAEPAXI@Z     004a1f00 f i Gamelib:Tracker.obj
 0001:000a17c0       ??_Gweapon_desert_eagle_desc@@UAEPAXI@Z 004a1f00 f i Gamelib:WeaponDesertEagle.obj
 0001:000a17c0       ??_Gaction_ai_attack_guid@@UAEPAXI@Z 004a1f00 f i Gamelib:action_ai_attack_guid.obj
 0001:000a17c0       ??_Egame_prop_desc@@UAEPAXI@Z 004a1f00 f i Gamelib:GameProp.obj
 0001:000a17c0       ??_Galien_spawn_tube_desc@@UAEPAXI@Z 004a1f00 f i Gamelib:AlienSpawnTube.obj
 0001:000a17c0       ??_Eenergy_projectile_desc@@UAEPAXI@Z 004a1f00 f i Gamelib:ProjectileEnergy.obj
 0001:000a17c0       ??_Gdebris_meson_explosion_desc@@UAEPAXI@Z 004a1f00 f i Gamelib:debris_meson_lash.obj
 0001:000a17c0       ??_Gcharacter_state@@UAEPAXI@Z 004a1f00 f i Gamelib:CharacterState.obj
 0001:000a17c0       ??_Eaction_play_2d_sound@@UAEPAXI@Z 004a1f00 f i Gamelib:action_play_2d_sound.obj
 0001:000a17c0       ??_Egrav_charge_projectile_desc@@UAEPAXI@Z 004a1f00 f i Gamelib:GravChargeProjectile.obj
 0001:000a17c0       ??_Gaction_set_property@@UAEPAXI@Z 004a1f00 f i Gamelib:action_set_property.obj
 0001:000a17c0       ??_Esound_emitter_desc@@UAEPAXI@Z 004a1f00 f i Gamelib:SoundEmitter.obj
 0001:000a17c0       ??_Gmutant_contagion_projectile_desc@@UAEPAXI@Z 004a1f00 f i Gamelib:ProjectileMutantContagion.obj
 0001:000a17c0       ??_Gaction_door_logic@@UAEPAXI@Z 004a1f00 f i Gamelib:action_door_logic.obj
 0001:000a17c0       ??_Efeedback_emitter@@UAEPAXI@Z 004a1f00 f i Gamelib:feedbackemitter.obj
 0001:000a17c0       ??_Gaction_portal_activate@@UAEPAXI@Z 004a1f00 f i Gamelib:action_portal_activate.obj
 0001:000a17c0       ??_Eplay_surface_desc@@UAEPAXI@Z 004a1f00 f i Gamelib:PlaySurface.obj
 0001:000a17c0       ??_Eaction_player_inventory@@UAEPAXI@Z 004a1f00 f i Gamelib:action_player_inventory.obj
 0001:000a17c0       ??_Eaction_exit_turret@@UAEPAXI@Z 004a1f00 f i Gamelib:action_exit_turret.obj
 0001:000a17c0       ??_Emp_settings@@UAEPAXI@Z 004a1f00 f i Gamelib:MP_Settings.obj
 0001:000a17c0       ??_Gaction_fade_geometry@@UAEPAXI@Z 004a1f00 f i Gamelib:action_fade_geometry.obj
 0001:000a17c0       ??_Gfriendly_scientist_desc@@UAEPAXI@Z 004a1f00 f i Gamelib:FriendlyScientist.obj
 0001:000a17c0       ??_Etracker_desc@@UAEPAXI@Z 004a1f00 f i Gamelib:Tracker.obj
 0001:000a17c0       ??_Gtrigger_meta_delay@@UAEPAXI@Z 004a1f00 f i Gamelib:trigger_meta_delay.obj
 0001:000a17c0       ??_Eaction_door_logic@@UAEPAXI@Z 004a1f00 f i Gamelib:action_door_logic.obj
 0001:000a17c0       ??_Gsound_emitter@@UAEPAXI@Z 004a1f00 f i Gamelib:SoundEmitter.obj
 0001:000a17c0       ??_Echaracter_alert_state@@UAEPAXI@Z 004a1f00 f i Gamelib:Character_Alert_State.obj
 0001:000a17c0       ??_Eblueprint_bag_desc@@UAEPAXI@Z 004a1f00 f i Gamelib:BluePrintBag.obj
 0001:000a17c0       ??_Gweapon_tra_desc@@UAEPAXI@Z 004a1f00 f i Gamelib:WeaponTRA.obj
 0001:000a17c0       ??_Eweapon_mutation_desc@@UAEPAXI@Z 004a1f00 f i Gamelib:WeaponMutation.obj
 0001:000a17c0       ??_Eaction_fade_geometry@@UAEPAXI@Z 004a1f00 f i Gamelib:action_fade_geometry.obj
 0001:000a17c0       ??_Gteam_prop_desc@@UAEPAXI@Z 004a1f00 f i Gamelib:TeamProp.obj
 0001:000a17c0       ??_Gaction_play_2d_sound@@UAEPAXI@Z 004a1f00 f i Gamelib:action_play_2d_sound.obj
 0001:000a17c0       ??_Ecoupler_desc@@UAEPAXI@Z 004a1f00 f i Gamelib:Coupler.obj
 0001:000a17c0       ??_Espawn_point@@UAEPAXI@Z 004a1f00 f i Gamelib:SpawnPoint.obj
 0001:000a17c0       ??_Eprop_surface_desc@@UAEPAXI@Z 004a1f00 f i Gamelib:PropSurface.obj
 0001:000a17c0       ??_Gcamera_desc@@UAEPAXI@Z 004a1f00 f i Gamelib:Camera.obj
 0001:000a17c0       ??_Gmutagen_reservoir_desc@@UAEPAXI@Z 004a1f00 f i Gamelib:MutagenReservoir.obj
 0001:000a17c0       ??_Emarker_object@@UAEPAXI@Z 004a1f00 f i Gamelib:marker_object.obj
 0001:000a17c0       ??_Gcharacter_attack_state@@UAEPAXI@Z 004a1f00 f i Gamelib:Character_Attack_State.obj
 0001:000a17c0       ??_Espawn_point_desc@@UAEPAXI@Z 004a1f00 f i Gamelib:SpawnPoint.obj
 0001:000a17c0       ??_Eteam_light_desc@@UAEPAXI@Z 004a1f00 f i Gamelib:TeamLight.obj
 0001:000a17c0       ??_Gtrigger_ex_object_desc@@UAEPAXI@Z 004a1f00 f i Gamelib:TriggerEx_Object.obj
 0001:000a17c0       ??_Gcoupler_desc@@UAEPAXI@Z 004a1f00 f i Gamelib:Coupler.obj
 0001:000a17c0       ??_Gaction_screen_fade@@UAEPAXI@Z 004a1f00 f i Gamelib:action_screen_fade.obj
 0001:000a17c0       ??_Gskin_prop_surface_desc@@UAEPAXI@Z 004a1f00 f i Gamelib:SkinPropSurface.obj
 0001:000a17c0       ??_Gevent_sound_emitter_desc@@UAEPAXI@Z 004a1f00 f i Gamelib:EventSoundEmitter.obj
 0001:000a17c0       ??_Ggame_prop_desc@@UAEPAXI@Z 004a1f00 f i Gamelib:GameProp.obj
 0001:000a17c0       ??_Ganim_surface_desc@@UAEPAXI@Z 004a1f00 f i Gamelib:AnimSurface.obj
 0001:000a17c0       ??_Eaction_checkpoint@@UAEPAXI@Z 004a1f00 f i Gamelib:action_checkpoint.obj
 0001:000a17c0       ??_Gpickup_desc@@UAEPAXI@Z 004a1f00 f i Gamelib:Pickup.obj
 0001:000a17c0       ??_Gcover_node_desc@@UAEPAXI@Z 004a1f00 f i Gamelib:CoverNode.obj
 0001:000a17c0       ??_Gparticle_event_emitter_desc@@UAEPAXI@Z 004a1f00 f i Gamelib:ParticleEventEmitter.obj
 0001:000a17c0       ??_Ethird_person_camera@@UAEPAXI@Z 004a1f00 f i Gamelib:ThirdPersonCamera.obj
 0001:000a17c0       ??_Gsimple_sound_emitter_desc@@UAEPAXI@Z 004a1f00 f i Gamelib:SimpleSoundEmitter.obj
 0001:000a17c0       ??_Galien_glob_desc@@UAEPAXI@Z 004a1f00 f i Gamelib:AlienGlob.obj
 0001:000a17c0       ??_Gcondition_check_global@@UAEPAXI@Z 004a1f00 f i Gamelib:condition_check_global.obj
 0001:000a17c0       ??_Gmarker_object_desc@@UAEPAXI@Z 004a1f00 f i Gamelib:marker_object.obj
 0001:000a17c0       ??_Genergy_projectile_desc@@UAEPAXI@Z 004a1f00 f i Gamelib:ProjectileEnergy.obj
 0001:000a17c0       ??_Gcharacter_alarm_state@@UAEPAXI@Z 004a1f00 f i Gamelib:Character_Alarm_State.obj
 0001:000a17c0       ??_Epip_desc@@UAEPAXI@Z    004a1f00 f i Gamelib:Pip.obj
 0001:000a17c0       ??_Etracker@@UAEPAXI@Z     004a1f00 f i Gamelib:Tracker.obj
 0001:000a17c0       ??_Eflag_desc@@UAEPAXI@Z   004a1f00 f i Gamelib:Flag.obj
 0001:000a17c0       ??_Evolumetric_light_obj_desc@@UAEPAXI@Z 004a1f00 f i Gamelib:VolumetricLight.obj
 0001:000a17c0       ??_Econdition_object_exists@@UAEPAXI@Z 004a1f00 f i Gamelib:condition_object_exists.obj
 0001:000a17c0       ??_Elight_obj_desc@@UAEPAXI@Z 004a1f00 f i Gamelib:LightObject.obj
 0001:000a17c0       ??_Eevent_sound_emitter_desc@@UAEPAXI@Z 004a1f00 f i Gamelib:EventSoundEmitter.obj
 0001:000a17c0       ??_Esoldier_attack_state@@UAEPAXI@Z 004a1f00 f i Gamelib:Soldier_Attack_State.obj
 0001:000a17c0       ??_Gweapon_shotgun_desc@@UAEPAXI@Z 004a1f00 f i Gamelib:WeaponShotgun.obj
 0001:000a17c0       ??_Gladder_field@@UAEPAXI@Z 004a1f00 f i Gamelib:Ladder_Field.obj
 0001:000a17c0       ??_Eweapon_desert_eagle_desc@@UAEPAXI@Z 004a1f00 f i Gamelib:WeaponDesertEagle.obj
 0001:000a17c0       ??_Echaracter_follow_state@@UAEPAXI@Z 004a1f00 f i Gamelib:Character_Follow_State.obj
 0001:000a17c0       ??_Ealien_glob_desc@@UAEPAXI@Z 004a1f00 f i Gamelib:AlienGlob.obj
 0001:000a17c0       ??_Gnet_ghost_desc@@UAEPAXI@Z 004a1f00 f i NetworkMgr:NetGhost.obj
 0001:000a17c0       ??_Eturret_desc@@UAEPAXI@Z 004a1f00 f i Gamelib:Turret.obj
 0001:000a17c0       ??_Egroup_desc@@UAEPAXI@Z  004a1f00 f i Gamelib:Group.obj
 0001:000a17c0       ??_Emutant_contagion_projectile_desc@@UAEPAXI@Z 004a1f00 f i Gamelib:ProjectileMutantContagion.obj
 0001:000a17c0       ??_Edestructible_obj_desc@@UAEPAXI@Z 004a1f00 f i Gamelib:DestructibleObj.obj
 0001:000a17c0       ??_Gcharacter_light_obj@@UAEPAXI@Z 004a1f00 f i Gamelib:LightObject.obj
 0001:000a17c0       ??_Ehoming_projectile_desc@@UAEPAXI@Z 004a1f00 f i Gamelib:ProjectileHoming.obj
 0001:000a17c0       ??_Edebris_alien_grenade_explosion_desc@@UAEPAXI@Z 004a1f00 f i Gamelib:debris_alien_grenade_explosion.obj
 0001:000a17c0       ??_Ggray_desc@@UAEPAXI@Z   004a1f00 f i Gamelib:Gray.obj
 0001:000a17c0       ??_Gaction_player_camera_shake@@UAEPAXI@Z 004a1f00 f i Gamelib:action_player_camera_shake.obj
 0001:000a17c0       ??_Gcinema_object_desc@@UAEPAXI@Z 004a1f00 f i Gamelib:Cinema.obj
 0001:000a17c0       ??_Ecover_node@@UAEPAXI@Z  004a1f00 f i Gamelib:CoverNode.obj
 0001:000a17c0       ??_Egeneric_desc@@UAEPAXI@Z 004a1f00 f i Gamelib:GenericNPC.obj
 0001:000a17c0       ??_Gaction_man_turret@@UAEPAXI@Z 004a1f00 f i Gamelib:action_man_turret.obj
 0001:000a17c0       ??_Gteam_light_desc@@UAEPAXI@Z 004a1f00 f i Gamelib:TeamLight.obj
 0001:000a17c0       ??_Eweapon_bbg_desc@@UAEPAXI@Z 004a1f00 f i Gamelib:WeaponBBG.obj
 0001:000a17c0       ??_Esound_emitter@@UAEPAXI@Z 004a1f00 f i Gamelib:SoundEmitter.obj
 0001:000a17c0       ??_Gcharacter_follow_state@@UAEPAXI@Z 004a1f00 f i Gamelib:Character_Follow_State.obj
 0001:000a17c0       ??_Epickup_desc@@UAEPAXI@Z 004a1f00 f i Gamelib:Pickup.obj
 0001:000a17c0       ??_Eaction_save_game@@UAEPAXI@Z 004a1f00 f i Gamelib:action_save_game.obj
 0001:000a17c0       ??_Gingame_pad@@UAEPAXI@Z  004a1f00 f i Gamelib:GamePad.obj
 0001:000a17c0       ??_Edebris_meson_explosion_desc@@UAEPAXI@Z 004a1f00 f i Gamelib:debris_meson_lash.obj
 0001:000a17c0       ??_Gdestructible_obj_desc@@UAEPAXI@Z 004a1f00 f i Gamelib:DestructibleObj.obj
 0001:000a17c0       ??_Eaction_change_perception@@UAEPAXI@Z 004a1f00 f i Gamelib:action_change_perception.obj
 0001:000a17c0       ??_Einput_setting_desc@@UAEPAXI@Z 004a1f00 f i Gamelib:InputSetting.obj
 0001:000a17c0       ??_Enotepad_object_desc@@UAEPAXI@Z 004a1f00 f i Gamelib:notepad_object.obj
 0001:000a17c0       ??_Eaction_object_move@@UAEPAXI@Z 004a1f00 f i Gamelib:action_object_move.obj
 0001:000a17c0       ??_Eground_zero_core_obj@@UAEPAXI@Z 004a1f00 f i Gamelib:GZCoreObj.obj
 0001:000a17c0       ??_Eweapon_shotgun_desc@@UAEPAXI@Z 004a1f00 f i Gamelib:WeaponShotgun.obj
 0001:000a17c0       ??_Gleaper_attack_state@@UAEPAXI@Z 004a1f00 f i Gamelib:Leaper_Attack_State.obj
 0001:000a17c0       ??_Gaction_ai_lookat_guid@@UAEPAXI@Z 004a1f00 f i Gamelib:action_ai_lookat_guid.obj
 0001:000a17c0       ??_Gevent_sound_emitter@@UAEPAXI@Z 004a1f00 f i Gamelib:EventSoundEmitter.obj
 0001:000a17c0       ??_Egod_desc@@UAEPAXI@Z    004a1f00 f i Gamelib:God.obj
 0001:000a17c0       ??_Eprop_interface@@UAEPAXI@Z 004a1f00 f i Gamelib:HudObject.obj
 0001:000a17c0       ??_Gcondition_player_button_state@@UAEPAXI@Z 004a1f00 f i Gamelib:condition_player_button_state.obj
 0001:000a17c0       ??_Gaction_ai_pathto_guid@@UAEPAXI@Z 004a1f00 f i Gamelib:action_ai_pathto_guid.obj
 0001:000a17c0       ??_Eteleporter_desc@@UAEPAXI@Z 004a1f00 f i Gamelib:Teleporter.obj
 0001:000a17c0       ??_Ggrunt_attack_state@@UAEPAXI@Z 004a1f00 f i Gamelib:Grunt_Attack_State.obj
 0001:000a17c0       ??_Eskin_prop_surface_desc@@UAEPAXI@Z 004a1f00 f i Gamelib:SkinPropSurface.obj
 0001:000a17c0       ??_Gdoor_desc@@UAEPAXI@Z   004a1f00 f i Gamelib:Door.obj
 0001:000a17c0       ??_Emarker_object_desc@@UAEPAXI@Z 004a1f00 f i Gamelib:marker_object.obj
 0001:000a17c0       ??_Gforce_field_desc@@UAEPAXI@Z 004a1f00 f i Gamelib:ForceField.obj
 0001:000a17c0       ??_Eglass_surface_desc@@UAEPAXI@Z 004a1f00 f i Gamelib:GlassSurface.obj
 0001:000a17c0       ??_Gdynamic_light_obj_desc@@UAEPAXI@Z 004a1f00 f i Gamelib:LightObject.obj
 0001:000a17c0       ??_Egray_desc@@UAEPAXI@Z   004a1f00 f i Gamelib:Gray.obj
 0001:000a17c0       ??_Gweapon_dual_smp_desc@@UAEPAXI@Z 004a1f00 f i Gamelib:WeaponDualSMP.obj
 0001:000a17c0       ??_Eteam_light@@UAEPAXI@Z  004a1f00 f i Gamelib:TeamLight.obj
 0001:000a17c0       ??_Gcondition_check_health@@UAEPAXI@Z 004a1f00 f i Gamelib:condition_check_health.obj
 0001:000a17c0       ??_Esuper_destructible_obj_desc@@UAEPAXI@Z 004a1f00 f i Gamelib:SuperDestructible.obj
 0001:000a17c0       ??_Ggrav_charge_projectile_desc@@UAEPAXI@Z 004a1f00 f i Gamelib:GravChargeProjectile.obj
 0001:000a17c0       ??_Ecamera@@UAEPAXI@Z      004a1f00 f i Gamelib:Camera.obj
 0001:000a17c0       ??_Gexplosive_bullet_projectile_desc@@UAEPAXI@Z 004a1f00 f i Gamelib:ProjectileExplosiveBullett.obj
 0001:000a17c0       ??_Gcondition_random_chance@@UAEPAXI@Z 004a1f00 f i Gamelib:condition_random_chance.obj
 0001:000a17c0       ??_Gblueprint_bag_desc@@UAEPAXI@Z 004a1f00 f i Gamelib:BluePrintBag.obj
 0001:000a17c0       ??_Gdebris_frag_explosion_desc@@UAEPAXI@Z 004a1f00 f i Gamelib:debris_frag_explosion.obj
 0001:000a17c0       ??_Econdition_check_global@@UAEPAXI@Z 004a1f00 f i Gamelib:condition_check_global.obj
 0001:000a17c0       ??_Gaction_ai_inventory@@UAEPAXI@Z 004a1f00 f i Gamelib:action_ai_inventory.obj
 0001:000a17c0       ??_Eingame_pad@@UAEPAXI@Z  004a1f00 f i Gamelib:GamePad.obj
 0001:000a17c0       ??_Eaction_ai_inventory@@UAEPAXI@Z 004a1f00 f i Gamelib:action_ai_inventory.obj
 0001:000a17c0       ??_Gsoldier_attack_state@@UAEPAXI@Z 004a1f00 f i Gamelib:Soldier_Attack_State.obj
 0001:000a17c0       ??_Eobject@@UAEPAXI@Z      004a1f00 f i Gamelib:object.obj
 0001:000a17c0       ??_Ecorpse_desc@@UAEPAXI@Z 004a1f00 f i Gamelib:Corpse.obj
 0001:000a17c0       ??_Gcharacter_search_state@@UAEPAXI@Z 004a1f00 f i Gamelib:Character_Search_State.obj
 0001:000a17c0       ??_Egame_prop@@UAEPAXI@Z   004a1f00 f i Gamelib:GameProp.obj
 0001:000a17c0       ??_Etrigger_meta_cinema_block@@UAEPAXI@Z 004a1f00 f i Gamelib:trigger_meta_cinema_block.obj
 0001:000a17c0       ??_Eaction_object_activation@@UAEPAXI@Z 004a1f00 f i Gamelib:action_object_activation.obj
 0001:000a17c0       ??_Echaracter_attack_state@@UAEPAXI@Z 004a1f00 f i Gamelib:Character_Attack_State.obj
 0001:000a17c0       ??_Gaction_affect_global@@UAEPAXI@Z 004a1f00 f i Gamelib:action_affect_global.obj
 0001:000a17c0       ??_Gfeedback_emitter@@UAEPAXI@Z 004a1f00 f i Gamelib:feedbackemitter.obj
 0001:000a17c0       ??_Ereactive_surface_desc@@UAEPAXI@Z 004a1f00 f i Gamelib:ReactiveSurface.obj
 0001:000a17c0       ??_GblackOp_attack_state@@UAEPAXI@Z 004a1f00 f i Gamelib:BlackOp_Attack_State.obj
 0001:000a17c0       ??_Echaracter_light_obj@@UAEPAXI@Z 004a1f00 f i Gamelib:LightObject.obj
 0001:000a17c0       ??_Edebris_glass_cluster_desc@@UAEPAXI@Z 004a1f00 f i Gamelib:debris_glass_cluster.obj
 0001:000a17c0       ??_Gaction_ai_death@@UAEPAXI@Z 004a1f00 f i Gamelib:action_ai_death.obj
 0001:000a17c0       ??_Egod@@UAEPAXI@Z         004a1f00 f i Gamelib:God.obj
 0001:000a17c0       ??_Greactive_surface_desc@@UAEPAXI@Z 004a1f00 f i Gamelib:ReactiveSurface.obj
 0001:000a17c0       ??_Ggod@@UAEPAXI@Z         004a1f00 f i Gamelib:God.obj
 0001:000a17c0       ??_Eaction_object_destroy@@UAEPAXI@Z 004a1f00 f i Gamelib:action_object_destroy.obj
 0001:000a17c0       ??_Espawner_object_desc@@UAEPAXI@Z 004a1f00 f i Gamelib:SpawnerObject.obj
 0001:000a17c0       ??_Gweapon_smp_desc@@UAEPAXI@Z 004a1f00 f i Gamelib:WeaponSMP.obj
 0001:000a17c0       ??_Gcharacter_hold_state@@UAEPAXI@Z 004a1f00 f i Gamelib:Character.obj
 0001:000a17c0       ??_Gaction_change_perception@@UAEPAXI@Z 004a1f00 f i Gamelib:action_change_perception.obj
 0001:000a17c0       ??_Eaction_ai_death@@UAEPAXI@Z 004a1f00 f i Gamelib:action_ai_death.obj
 0001:000a17c0       ??_Eparticle_event_emitter_desc@@UAEPAXI@Z 004a1f00 f i Gamelib:ParticleEventEmitter.obj
 0001:000a17c0       ??_Gcamera@@UAEPAXI@Z      004a1f00 f i Gamelib:Camera.obj
 0001:000a17c0       ??_Gmutant_tendril_projectile_desc@@UAEPAXI@Z 004a1f00 f i Gamelib:ProjectileMutantTendril.obj
 0001:000a17c0       ??_Gteam_light@@UAEPAXI@Z  004a1f00 f i Gamelib:TeamLight.obj
 0001:000a17c0       ??_Epath_desc@@UAEPAXI@Z   004a1f00 f i Gamelib:Path.obj
 0001:000a17c0       ??_Econtroller@@UAEPAXI@Z  004a1f00 f i Gamelib:Controller.obj
 0001:000a17c0       ??_Gground_zero_core_obj_desc@@UAEPAXI@Z 004a1f00 f i Gamelib:GZCoreObj.obj
 0001:000a17c0       ??_Econdition_check_focus_object@@UAEPAXI@Z 004a1f00 f i Gamelib:condition_check_focus_object.obj
 0001:000a17c0       ??_Gpath_desc@@UAEPAXI@Z   004a1f00 f i Gamelib:Path.obj
 0001:000a17c0       ??_Gcharacter_trigger_state@@UAEPAXI@Z 004a1f00 f i Gamelib:Character_Trigger_State.obj
 0001:000a17c0       ??_Eaction_ai_pathto_guid@@UAEPAXI@Z 004a1f00 f i Gamelib:action_ai_pathto_guid.obj
 0001:000a17c0       ??_Gmarker_object@@UAEPAXI@Z 004a1f00 f i Gamelib:marker_object.obj
 0001:000a17c0       ??_Enew_weapon_desc@@UAEPAXI@Z 004a1f00 f i Gamelib:NewWeapon.obj
 0001:000a17c0       ??_Gprop_interface@@UAEPAXI@Z 004a1f00 f i Gamelib:HudObject.obj
 0001:000a17c0       ??_Gblueprint_bag@@UAEPAXI@Z 004a1f00 f i Gamelib:BluePrintBag.obj
 0001:000a17c0       ??_Eaction_player_camera_shake@@UAEPAXI@Z 004a1f00 f i Gamelib:action_player_camera_shake.obj
 0001:000a17c0       ??_Ecap_point_desc@@UAEPAXI@Z 004a1f00 f i Gamelib:CapPoint.obj
 0001:000a17c0       ??_Gspawn_point@@UAEPAXI@Z 004a1f00 f i Gamelib:SpawnPoint.obj
 0001:000a17c0       ??_Ethird_person_camera_desc@@UAEPAXI@Z 004a1f00 f i Gamelib:ThirdPersonCamera.obj
 0001:000a17c0       ??_Edynamic_light_obj@@UAEPAXI@Z 004a1f00 f i Gamelib:LightObject.obj
 0001:000a17c0       ??_Ejump_pad_desc@@UAEPAXI@Z 004a1f00 f i Gamelib:JumpPad.obj
 0001:000a17c0       ??_Enav_point_desc@@UAEPAXI@Z 004a1f00 f i Gamelib:NavPoint.obj
 0001:000a17c0       ??_Gdebris_alien_grenade_explosion_desc@@UAEPAXI@Z 004a1f00 f i Gamelib:debris_alien_grenade_explosion.obj
 0001:000a17c0       ??_Etrigger_ex_object_desc@@UAEPAXI@Z 004a1f00 f i Gamelib:TriggerEx_Object.obj
 0001:000a17c0       ??_Eforce_field_desc@@UAEPAXI@Z 004a1f00 f i Gamelib:ForceField.obj
 0001:000a17c0       ??_Echaracter_cover_state@@UAEPAXI@Z 004a1f00 f i Gamelib:Character_Cover_State.obj
 0001:000a17c0       ??_Eaction_display_text@@UAEPAXI@Z 004a1f00 f i Gamelib:action_display_text.obj
 0001:000a17c0       ??_Emutanttank_attack_state@@UAEPAXI@Z 004a1f00 f i Gamelib:MutantTank_Attack_State.obj
 0001:000a17c0       ??_Etrigger_meta_label@@UAEPAXI@Z 004a1f00 f i Gamelib:trigger_meta_label.obj
 0001:000a17c0       ??_Einput_setting@@UAEPAXI@Z 004a1f00 f i Gamelib:InputSetting.obj
 0001:000a17c0       ??_Ezone_portal_desc@@UAEPAXI@Z 004a1f00 f i Gamelib:Portal.obj
 0001:000a17c0       ??_Eaction_set_property@@UAEPAXI@Z 004a1f00 f i Gamelib:action_set_property.obj
 0001:000a17c0       ??_Galarm_node@@UAEPAXI@Z  004a1f00 f i Gamelib:AlarmNode.obj
 0001:000a17c0       ??_Galarm_node_desc@@UAEPAXI@Z 004a1f00 f i Gamelib:AlarmNode.obj
 0001:000a17c0       ??_Edebris_desc@@UAEPAXI@Z 004a1f00 f i Gamelib:debris.obj
 0001:000a17c0       ??_Echaracter_physics@@UAEPAXI@Z 004a1f00 f i Gamelib:CharacterPhysics.obj
 0001:000a17c0       ??_Eai_mgr@@UAEPAXI@Z      004a1f00 f i Gamelib:AIMgr.obj
 0001:000a17c0       ??_Gai_mgr@@UAEPAXI@Z      004a1f00 f i Gamelib:AIMgr.obj
 0001:000a17c0       ??_Gmutant_parasite_projectile_desc@@UAEPAXI@Z 004a1f00 f i Gamelib:ProjectileMutantParasite2.obj
 0001:000a17c0       ??_Edynamic_light_obj_desc@@UAEPAXI@Z 004a1f00 f i Gamelib:LightObject.obj
 0001:000a17c0       ??_Gweapon_scanner_desc@@UAEPAXI@Z 004a1f00 f i Gamelib:WeaponScanner.obj
 0001:000a17c0       ??_Eaction_ai_lookat_guid@@UAEPAXI@Z 004a1f00 f i Gamelib:action_ai_lookat_guid.obj
 0001:000a17c0       ??_Gsound_emitter_desc@@UAEPAXI@Z 004a1f00 f i Gamelib:SoundEmitter.obj
 0001:000a17c0       ??_Eaction_man_turret@@UAEPAXI@Z 004a1f00 f i Gamelib:action_man_turret.obj
 0001:000a17c0       ??_Ealien_orb_desc@@UAEPAXI@Z 004a1f00 f i Gamelib:AlienOrb.obj
 0001:000a17c0       ??_Eexplosive_bullet_projectile_desc@@UAEPAXI@Z 004a1f00 f i Gamelib:ProjectileExplosiveBullett.obj
 0001:000a17c0       ??_Emutant_parasite_projectile_desc@@UAEPAXI@Z 004a1f00 f i Gamelib:ProjectileMutantParasite2.obj
 0001:000a17c0       ??_Eleaper_attack_state@@UAEPAXI@Z 004a1f00 f i Gamelib:Leaper_Attack_State.obj
 0001:000a17c0       ??_Gflag_desc@@UAEPAXI@Z   004a1f00 f i Gamelib:Flag.obj
 0001:000a17c0       ??_Gfeedback_emitter_desc@@UAEPAXI@Z 004a1f00 f i Gamelib:feedbackemitter.obj
 0001:000a17c0       ??_Echaracter_flee_state@@UAEPAXI@Z 004a1f00 f i Gamelib:Character_Flee_State.obj
 0001:000a17c0       ??_Gsoldier_desc@@UAEPAXI@Z 004a1f00 f i Gamelib:Soldier.obj
 0001:000a17c0       ??_Eweapon_sniper_rifle_desc@@UAEPAXI@Z 004a1f00 f i Gamelib:WeaponSniper.obj
 0001:000a17c0       ??_Gcharacter_death_state@@UAEPAXI@Z 004a1f00 f i Gamelib:Character_Death_State.obj
 0001:000a17c0       ??_Gaction_ai_base@@UAEPAXI@Z 004a1f00 f i Gamelib:action_ai_base.obj
 0001:000a17c0       ??_Ginvisible_wall_obj@@UAEPAXI@Z 004a1f00 f i Gamelib:InvisWall.obj
 0001:000a17c0       ??_Egrunt_cover_state@@UAEPAXI@Z 004a1f00 f i Gamelib:Grunt_Cover_State.obj
 0001:000a17c0       ??_Gnew_weapon_desc@@UAEPAXI@Z 004a1f00 f i Gamelib:NewWeapon.obj
 0001:000a17c0       ??_Gcharacter_flee_state@@UAEPAXI@Z 004a1f00 f i Gamelib:Character_Flee_State.obj
 0001:000a17c0       ??_Gparticle_emitter_desc@@UAEPAXI@Z 004a1f00 f i Gamelib:ParticleEmiter.obj
 0001:000a17c0       ??_Eflag_base_desc@@UAEPAXI@Z 004a1f00 f i Gamelib:FlagBase.obj
 0001:000a17c0       ??_Emp_settings_desc@@UAEPAXI@Z 004a1f00 f i Gamelib:MP_Settings.obj
 0001:000a17c0       ??_Eladder_field@@UAEPAXI@Z 004a1f00 f i Gamelib:Ladder_Field.obj
 0001:000a17c0       ??_Gtracker_desc@@UAEPAXI@Z 004a1f00 f i Gamelib:Tracker.obj
 0001:000a17c0       ??_Gcondition_object_exists@@UAEPAXI@Z 004a1f00 f i Gamelib:condition_object_exists.obj
 0001:000a17c0       ??_Eweapon_msn_desc@@UAEPAXI@Z 004a1f00 f i Gamelib:WeaponMSN.obj
 0001:000a17c0       ??_Gcharacter_light_obj_desc@@UAEPAXI@Z 004a1f00 f i Gamelib:LightObject.obj
 0001:000a17c0       ??_Edebris_rigid_desc@@UAEPAXI@Z 004a1f00 f i Gamelib:debris_rigid.obj
 0001:000a17c0       ??_Gcondition_check_property@@UAEPAXI@Z 004a1f00 f i Gamelib:condition_check_property.obj
 0001:000a17c0       ??_Eanimation_obj_desc@@UAEPAXI@Z 004a1f00 f i Gamelib:Animation_obj.obj
 0001:000a17c0       ??_Eevent_sound_emitter@@UAEPAXI@Z 004a1f00 f i Gamelib:EventSoundEmitter.obj
 0001:000a17c0       ??_Gteleporter_desc@@UAEPAXI@Z 004a1f00 f i Gamelib:Teleporter.obj
 0001:000a17c0       ??_Echaracter_light_obj_desc@@UAEPAXI@Z 004a1f00 f i Gamelib:LightObject.obj
 0001:000a17c0       ??_Gnav_point_desc@@UAEPAXI@Z 004a1f00 f i Gamelib:NavPoint.obj
 0001:000a17c0       ??_Gcoke_can_desc@@UAEPAXI@Z 004a1f00 f i Gamelib:CokeCan.obj
 0001:000a17c0       ??_Gpip_desc@@UAEPAXI@Z    004a1f00 f i Gamelib:Pip.obj
 0001:000a17c0       ??_Ejumping_bean_projectile_desc@@UAEPAXI@Z 004a1f00 f i Gamelib:JumpingBeanProjectile.obj
 0001:000a17c0       ??_Gthird_person_camera_desc@@UAEPAXI@Z 004a1f00 f i Gamelib:ThirdPersonCamera.obj
 0001:000a17c0       ??_Gweapon_mutation_desc@@UAEPAXI@Z 004a1f00 f i Gamelib:WeaponMutation.obj
 0001:000a17c0       ??_Ehazmat_desc@@UAEPAXI@Z 004a1f00 f i Gamelib:Soldier.obj
 0001:000a17c0       ??_Gobject@@UAEPAXI@Z      004a1f00 f i Gamelib:object.obj
 0001:000a17c0       ??_Econdition_player_has_item@@UAEPAXI@Z 004a1f00 f i Gamelib:condition_player_has_item.obj
 0001:000a17c0       ??_Gspawner_object_desc@@UAEPAXI@Z 004a1f00 f i Gamelib:SpawnerObject.obj
 0001:000a17c0       ??_Gprojector_obj@@UAEPAXI@Z 004a1f00 f i Gamelib:Projector.obj
 0001:000a17c0       ??_Gdebris@@UAEPAXI@Z      004a1f00 f i Gamelib:debris.obj
 0001:000a17c0       ??_Gaction_object_damage@@UAEPAXI@Z 004a1f00 f i Gamelib:action_object_damage.obj
 0001:000a17c0       ??_Eweapon_dual_smp_desc@@UAEPAXI@Z 004a1f00 f i Gamelib:WeaponDualSMP.obj
 0001:000a17c0       ??_Glight_obj@@UAEPAXI@Z   004a1f00 f i Gamelib:LightObject.obj
 0001:000a17c0       ??_Gmutanttank_attack_state@@UAEPAXI@Z 004a1f00 f i Gamelib:MutantTank_Attack_State.obj
 0001:000a17c0       ??_Eaction_mission_failed@@UAEPAXI@Z 004a1f00 f i Gamelib:action_mission_failed.obj
 0001:000a17c0       ??_Einvisible_wall_obj@@UAEPAXI@Z 004a1f00 f i Gamelib:InvisWall.obj
 0001:000a17c0       ??_Gthird_person_camera@@UAEPAXI@Z 004a1f00 f i Gamelib:ThirdPersonCamera.obj
 0001:000a17c0       ??_Eaction_ai_attack_guid@@UAEPAXI@Z 004a1f00 f i Gamelib:action_ai_attack_guid.obj
 0001:000a17c0       ??_Ealarm_node_desc@@UAEPAXI@Z 004a1f00 f i Gamelib:AlarmNode.obj
 0001:000a17c0       ??_Gproxy_playsurface_desc@@UAEPAXI@Z 004a1f00 f i Gamelib:ProxyPlaySurface.obj
 0001:000a17c0       ??_Eprojector_obj@@UAEPAXI@Z 004a1f00 f i Gamelib:Projector.obj
 0001:000a17c0       ??_Elight_obj@@UAEPAXI@Z   004a1f00 f i Gamelib:LightObject.obj
 0001:000a17c0       ??_Galien_shield_desc@@UAEPAXI@Z 004a1f00 f i Gamelib:AlienShield.obj
 0001:000a17c0       ??_Gaction_mission_failed@@UAEPAXI@Z 004a1f00 f i Gamelib:action_mission_failed.obj
 0001:000a17c0       ??_Ggame_prop@@UAEPAXI@Z   004a1f00 f i Gamelib:GameProp.obj
 0001:000a17c0       ??_Gaction_object_move_relative@@UAEPAXI@Z 004a1f00 f i Gamelib:action_object_move_relative.obj
 0001:000a17c0       ??_Ginvisible_wall_desc@@UAEPAXI@Z 004a1f00 f i Gamelib:InvisWall.obj
 0001:000a17c0       ??_Econdition_random_chance@@UAEPAXI@Z 004a1f00 f i Gamelib:condition_random_chance.obj
 0001:000a17c0       ??_Econdition_check_health@@UAEPAXI@Z 004a1f00 f i Gamelib:condition_check_health.obj
 0001:000a17c0       ??_Gnav_point@@UAEPAXI@Z   004a1f00 f i Gamelib:NavPoint.obj
 0001:000a17c0       ??_Gproxy_playsurface@@UAEPAXI@Z 004a1f00 f i Gamelib:ProxyPlaySurface.obj
 0001:000a17c0       ??_Eproxy_playsurface_desc@@UAEPAXI@Z 004a1f00 f i Gamelib:ProxyPlaySurface.obj
 0001:000a17c0       ??_Gcloth_object_desc@@UAEPAXI@Z 004a1f00 f i Gamelib:ClothObject.obj
 0001:000a17c0       ??_Eweapon_scanner_desc@@UAEPAXI@Z 004a1f00 f i Gamelib:WeaponScanner.obj
 0001:000a17c0       ??_GblackOp_cover_state@@UAEPAXI@Z 004a1f00 f i Gamelib:BlackOp_Cover_State.obj
 0001:000a17c0       ??_Gmanipulator_desc@@UAEPAXI@Z 004a1f00 f i Gamelib:Manipulator.obj
 0001:000a17c0       ??_Elens_filter_desc@@UAEPAXI@Z 004a1f00 f i Gamelib:LensFilter.obj
 0001:000a17c0       ??_Gjump_pad_desc@@UAEPAXI@Z 004a1f00 f i Gamelib:JumpPad.obj
 0001:000a17c0       ??_Elevel_settings_desc@@UAEPAXI@Z 004a1f00 f i Gamelib:LevelSettings.obj
 0001:000a17c0       ??_EblackOp_cover_state@@UAEPAXI@Z 004a1f00 f i Gamelib:BlackOp_Cover_State.obj
 0001:000a17c0       ??_Glight_obj_desc@@UAEPAXI@Z 004a1f00 f i Gamelib:LightObject.obj
 0001:000a17c0       ??_Emutant_tank_desc@@UAEPAXI@Z 004a1f00 f i Gamelib:Mutant_Tank.obj
 0001:000a17c0       ??_Gcharacter_turret_state@@UAEPAXI@Z 004a1f00 f i Gamelib:Character_Turret_State.obj
 0001:000a17c0       ??_Gplay_surface_desc@@UAEPAXI@Z 004a1f00 f i Gamelib:PlaySurface.obj
 0001:000a17c0       ??_Gaction_object_move@@UAEPAXI@Z 004a1f00 f i Gamelib:action_object_move.obj
 0001:000a17c0       ??_Ecoke_can_desc@@UAEPAXI@Z 004a1f00 f i Gamelib:CokeCan.obj
 0001:000a17c0       ??_Econtroller_desc@@UAEPAXI@Z 004a1f00 f i Gamelib:Controller.obj
 0001:000a17c0       ??_Gflag_base_desc@@UAEPAXI@Z 004a1f00 f i Gamelib:FlagBase.obj
 0001:000a17c0       ??_Gcondition_within_range@@UAEPAXI@Z 004a1f00 f i Gamelib:condition_within_range.obj
 0001:000a17c0       ??_Gvolumetric_light_obj_desc@@UAEPAXI@Z 004a1f00 f i Gamelib:VolumetricLight.obj
 0001:000a17c0       ??_Eaction_ai_nav_activation@@UAEPAXI@Z 004a1f00 f i Gamelib:action_ai_nav_activation.obj
 0001:000a17c0       ??_Gaction_create_template@@UAEPAXI@Z 004a1f00 f i Gamelib:action_create_template.obj
 0001:000a17c0       ??_Gcondition_check_focus_object@@UAEPAXI@Z 004a1f00 f i Gamelib:condition_check_focus_object.obj
 0001:000a17c0       ??_Econdition_within_range@@UAEPAXI@Z 004a1f00 f i Gamelib:condition_within_range.obj
 0001:000a17c0       ??_Efocus_object@@UAEPAXI@Z 004a1f00 f i Gamelib:FocusObject.obj
 0001:000a17c0       ??_Echaracter_state@@UAEPAXI@Z 004a1f00 f i Gamelib:CharacterState.obj
 0001:000a17c0       ??_Gaction_ai_dialog_line@@UAEPAXI@Z 004a1f00 f i Gamelib:action_ai_dialog_line.obj
 0001:000a17c0       ??_Eladder_field_desc@@UAEPAXI@Z 004a1f00 f i Gamelib:Ladder_Field.obj
 0001:000a17c0       ??_Ghazmat_desc@@UAEPAXI@Z 004a1f00 f i Gamelib:Soldier.obj
 0001:000a17c0       ??_Ecover_node_desc@@UAEPAXI@Z 004a1f00 f i Gamelib:CoverNode.obj
 0001:000a17c0       ??_Eweapon_tra_desc@@UAEPAXI@Z 004a1f00 f i Gamelib:WeaponTRA.obj
 0001:000a17c0       ??_Echaracter_turret_state@@UAEPAXI@Z 004a1f00 f i Gamelib:Character_Turret_State.obj
 0001:000a17c0       ??_Ghoming_projectile_desc@@UAEPAXI@Z 004a1f00 f i Gamelib:ProjectileHoming.obj
 0001:000a17c0       ??_Gsuper_destructible_obj_desc@@UAEPAXI@Z 004a1f00 f i Gamelib:SuperDestructible.obj
 0001:000a17c0       ??_Gcharacter_alert_state@@UAEPAXI@Z 004a1f00 f i Gamelib:Character_Alert_State.obj
 0001:000a17c0       ??_Enotepad_object@@UAEPAXI@Z 004a1f00 f i Gamelib:notepad_object.obj
 0001:000a17c0       ??_Gdamage_field@@UAEPAXI@Z 004a1f00 f i Gamelib:DamageField.obj
 0001:000a17c0       ??_Ggeneric_desc@@UAEPAXI@Z 004a1f00 f i Gamelib:GenericNPC.obj
 0001:000a17c0       ??_Enav_point@@UAEPAXI@Z   004a1f00 f i Gamelib:NavPoint.obj
 0001:000a17c0       ??_Gprop_surface_desc@@UAEPAXI@Z 004a1f00 f i Gamelib:PropSurface.obj
 0001:000a17c0       ??_Eparticle_event_emitter@@UAEPAXI@Z 004a1f00 f i Gamelib:ParticleEventEmitter.obj
 0001:000a17c0       ??_Eplayer_desc@@UAEPAXI@Z 004a1f00 f i Gamelib:PlayerObject.obj
 0001:000a17c0       ??_Ghud_object_desc@@UAEPAXI@Z 004a1f00 f i Gamelib:HudObject.obj
 0001:000a17c0       ??_Gzone_portal_desc@@UAEPAXI@Z 004a1f00 f i Gamelib:Portal.obj
 0001:000a17c0       ??_Edoor_desc@@UAEPAXI@Z   004a1f00 f i Gamelib:Door.obj
 0001:000a17c0       ??_Egrunt_attack_state@@UAEPAXI@Z 004a1f00 f i Gamelib:Grunt_Attack_State.obj
 0001:000a17c0       ??_Gaction_music_intensity@@UAEPAXI@Z 004a1f00 f i Gamelib:action_music_intensity.obj
 0001:000a17c0       ??_Gzone_portal@@UAEPAXI@Z 004a1f00 f i Gamelib:Portal.obj
 0001:000a17c0       ??_Gmutant_tank_desc@@UAEPAXI@Z 004a1f00 f i Gamelib:Mutant_Tank.obj
 0001:000a17c0       ??_Gdamage_field_desc@@UAEPAXI@Z 004a1f00 f i Gamelib:DamageField.obj
 0001:000a17c0       ??_Gcondition_is_censored@@UAEPAXI@Z 004a1f00 f i Gamelib:condition_is_censored.obj
 0001:000a17c0       ??_Ealien_shield_desc@@UAEPAXI@Z 004a1f00 f i Gamelib:AlienShield.obj
 0001:000a17c0       ??_Gglass_surface_desc@@UAEPAXI@Z 004a1f00 f i Gamelib:GlassSurface.obj
 0001:000a17c0       ??_Ecamera_desc@@UAEPAXI@Z 004a1f00 f i Gamelib:Camera.obj
 0001:000a17c0       ??_Eaction_screen_fade@@UAEPAXI@Z 004a1f00 f i Gamelib:action_screen_fade.obj
 0001:000a17c0       ??_Gaction_player_hud@@UAEPAXI@Z 004a1f00 f i Gamelib:action_player_hud.obj
 0001:000a17c0       ??_Efriendly_scientist_desc@@UAEPAXI@Z 004a1f00 f i Gamelib:FriendlyScientist.obj
 0001:000a17c0       ??_Gaction_object_destroy@@UAEPAXI@Z 004a1f00 f i Gamelib:action_object_destroy.obj
 0001:000a17c0       ??_Gweapon_bbg_desc@@UAEPAXI@Z 004a1f00 f i Gamelib:WeaponBBG.obj
 0001:000a17c0       ??_Gaction_load_level@@UAEPAXI@Z 004a1f00 f i Gamelib:action_load_level.obj
 0001:000a17c0       ??_Gmesonseeker_projectile_desc@@UAEPAXI@Z 004a1f00 f i Gamelib:ProjectileMesonSeeker.obj
 0001:000a17c0       ??_Eweapon_dual_shotgun_desc@@UAEPAXI@Z 004a1f00 f i Gamelib:WeaponDualShotgun.obj
 0001:000a17c0       ??_Edebris@@UAEPAXI@Z      004a1f00 f i Gamelib:debris.obj
 0001:000a17c0       ??_Ginput_setting@@UAEPAXI@Z 004a1f00 f i Gamelib:InputSetting.obj
 0001:000a17c0       ??_Gfocus_object_desc@@UAEPAXI@Z 004a1f00 f i Gamelib:FocusObject.obj
 0001:000a17c0       ??_Gaction_display_text@@UAEPAXI@Z 004a1f00 f i Gamelib:action_display_text.obj
 0001:000a17c0       ??_Econdition_is_censored@@UAEPAXI@Z 004a1f00 f i Gamelib:condition_is_censored.obj
 0001:000a17c0       ??_Eaction_load_level@@UAEPAXI@Z 004a1f00 f i Gamelib:action_load_level.obj
 0001:000a17c0       ??_Emutagen_reservoir_desc@@UAEPAXI@Z 004a1f00 f i Gamelib:MutagenReservoir.obj
 0001:000a17c0       ??_Gcondition_line_of_sight@@UAEPAXI@Z 004a1f00 f i Gamelib:condition_line_of_sight.obj
 0001:000a17c0       ??_Esoldier_desc@@UAEPAXI@Z 004a1f00 f i Gamelib:Soldier.obj
 0001:000a17c0       ??_Emutant_tendril_projectile_desc@@UAEPAXI@Z 004a1f00 f i Gamelib:ProjectileMutantTendril.obj
 0001:000a17c0       ??_Ecinema_object_desc@@UAEPAXI@Z 004a1f00 f i Gamelib:Cinema.obj
 0001:000a17c0       ??_Elore_object_desc@@UAEPAXI@Z 004a1f00 f i Gamelib:LoreObject.obj
 0001:000a17c0       ??_Echaracter_trigger_state@@UAEPAXI@Z 004a1f00 f i Gamelib:Character_Trigger_State.obj
 0001:000a17c0       ??_Eteam_prop_desc@@UAEPAXI@Z 004a1f00 f i Gamelib:TeamProp.obj
 0001:000a17c0       ??_Edamage_field_desc@@UAEPAXI@Z 004a1f00 f i Gamelib:DamageField.obj
 0001:000a17c0       ??_Gground_zero_core_obj@@UAEPAXI@Z 004a1f00 f i Gamelib:GZCoreObj.obj
 0001:000a17c0       ??_Eaction_portal_activate@@UAEPAXI@Z 004a1f00 f i Gamelib:action_portal_activate.obj
 0001:000a17c0       ??_Esimple_sound_emitter_desc@@UAEPAXI@Z 004a1f00 f i Gamelib:SimpleSoundEmitter.obj
 0001:000a17c0       ??_Gnotepad_object@@UAEPAXI@Z 004a1f00 f i Gamelib:notepad_object.obj
 0001:000a17c0       ??_Edebris_frag_explosion_desc@@UAEPAXI@Z 004a1f00 f i Gamelib:debris_frag_explosion.obj
 0001:000a17c0       ??_Gcharacter_task_set_desc@@UAEPAXI@Z 004a1f00 f i Gamelib:character_task_set.obj
 0001:000a17c0       ??_Echaracter_death_state@@UAEPAXI@Z 004a1f00 f i Gamelib:Character_Death_State.obj
 0001:000a17c0       ??_Gmp_settings_desc@@UAEPAXI@Z 004a1f00 f i Gamelib:MP_Settings.obj
 0001:000a17c0       ??_Emesonseeker_projectile_desc@@UAEPAXI@Z 004a1f00 f i Gamelib:ProjectileMesonSeeker.obj
 0001:000a17c0       ??_Ggod_desc@@UAEPAXI@Z    004a1f00 f i Gamelib:God.obj
 0001:000a17c0       ??_Egrenade_projectile_desc@@UAEPAXI@Z 004a1f00 f i Gamelib:GrenadeProjectile.obj
 0001:000a17c0       ??_Gaction_ai_play_anim@@UAEPAXI@Z 004a1f00 f i Gamelib:action_ai_play_anim.obj
 0001:000a17c0       ??_Eaction_create_template@@UAEPAXI@Z 004a1f00 f i Gamelib:action_create_template.obj
 0001:000a17c0       ??_Gspawner_object@@UAEPAXI@Z 004a1f00 f i Gamelib:SpawnerObject.obj
 0001:000a17c0       ??_Gdebris_rigid_desc@@UAEPAXI@Z 004a1f00 f i Gamelib:debris_rigid.obj
 0001:000a17c0       ??_Gdebris_glass_cluster_desc@@UAEPAXI@Z 004a1f00 f i Gamelib:debris_glass_cluster.obj
 0001:000a17c0       ??_Gcap_point_desc@@UAEPAXI@Z 004a1f00 f i Gamelib:CapPoint.obj
 0001:000a17c0       ??_Echaracter_idle_state@@UAEPAXI@Z 004a1f00 f i Gamelib:Character_Idle_State.obj
 0001:000a17c0       ??_Gcharacter_physics@@UAEPAXI@Z 004a1f00 f i Gamelib:CharacterPhysics.obj
 0001:000a17c0       ??_Einvisible_wall_desc@@UAEPAXI@Z 004a1f00 f i Gamelib:InvisWall.obj
 0001:000a17c0       ??_Ggrenade_projectile_desc@@UAEPAXI@Z 004a1f00 f i Gamelib:GrenadeProjectile.obj
 0001:000a17c0       ??_Echaracter_hold_state@@UAEPAXI@Z 004a1f00 f i Gamelib:Character.obj
 0001:000a17e0       ?OnActivate@sound_emitter@@UAEXH@Z 004a1f20 f   Gamelib:SoundEmitter.obj
 0001:000a1850       ?OnKill@sound_emitter@@UAEXXZ 004a1f90 f   Gamelib:SoundEmitter.obj
 0001:000a1860       ?OnMove@sound_emitter@@UAEXABTvector3@@@Z 004a1fa0 f   Gamelib:SoundEmitter.obj
 0001:000a18d0       ?OnMoveRel@sound_emitter@@UAEXABTvector3@@@Z 004a2010 f   Gamelib:SoundEmitter.obj
 0001:000a1960       ?OnTransform@sound_emitter@@UAEXABTmatrix4@@@Z 004a20a0 f   Gamelib:SoundEmitter.obj
 0001:000a19d0       ?OnTriggerTransform@sound_emitter@@UAEXABTmatrix4@@@Z 004a2110 f   Gamelib:SoundEmitter.obj
 0001:000a1a20       ?OnTeleportActivate@sound_emitter@@QAEXABTvector3@@@Z 004a2160 f   Gamelib:SoundEmitter.obj
 0001:000a1b70       ?OnAdvanceLogic@sound_emitter@@UAEXM@Z 004a22b0 f   Gamelib:SoundEmitter.obj
 0001:000a2300       ?IsSoundActive@sound_emitter@@IAEHXZ 004a2a40 f   Gamelib:SoundEmitter.obj
 0001:000a2340       ?StopSoundEmitter@sound_emitter@@IAEXXZ 004a2a80 f   Gamelib:SoundEmitter.obj
 0001:000a23b0       ?UpdateSound@sound_emitter@@IAEXAATvector3@@MM@Z 004a2af0 f   Gamelib:SoundEmitter.obj
 0001:000a28c0       ?Update2DSound@sound_emitter@@IAEXM@Z 004a3000 f   Gamelib:SoundEmitter.obj
 0001:000a2ac0       ?OnColCheck@sound_emitter@@MAEXXZ 004a3200 f   Gamelib:SoundEmitter.obj
 0001:000a2bc0       ?OnColNotify@sound_emitter@@MAEXAAVobject@@@Z 004a3300 f   Gamelib:SoundEmitter.obj
 0001:000a2c20       ?GetLocalBBox@sound_emitter@@UBE?AUbbox@@XZ 004a3360 f   Gamelib:SoundEmitter.obj
 0001:000a2f20       ?OnEnumProp@sound_emitter@@UAEXAAVprop_enum@@@Z 004a3660 f   Gamelib:SoundEmitter.obj
 0001:000a3190       ?OnProperty@sound_emitter@@UAEHAAVprop_query@@@Z 004a38d0 f   Gamelib:SoundEmitter.obj
 0001:000a61b0       ?GetObjectRTTI@weapon_scanner@@UBEABUrtti@@XZ 004a68f0 f i Gamelib:WeaponScanner.obj
 0001:000a61e0       ?GetLogicalName@weapon_scanner@@UAEPBDXZ 004a6920 f i Gamelib:WeaponScanner.obj
 0001:000a61f0       ?GetRTTI@lore_object@@SAABUrtti@@XZ 004a6930 f i Gamelib:WeaponScanner.obj
 0001:000a6250       ?Create@weapon_scanner_desc@@UAEPAVobject@@XZ 004a6990 f i Gamelib:WeaponScanner.obj
 0001:000a6270       ?GetTypeDesc@weapon_scanner@@UBEABVobject_desc@@XZ 004a69b0 f   Gamelib:WeaponScanner.obj
 0001:000a6280       ??0weapon_scanner@@QAE@XZ  004a69c0 f   Gamelib:WeaponScanner.obj
 0001:000a6500       ??_Eweapon_scanner@@UAEPAXI@Z 004a6c40 f i Gamelib:WeaponScanner.obj
 0001:000a6500       ??_Gweapon_scanner@@UAEPAXI@Z 004a6c40 f i Gamelib:WeaponScanner.obj
 0001:000a6540       ?CanFire@weapon_scanner@@UAEHH@Z 004a6c80 f   Gamelib:WeaponScanner.obj
 0001:000a6570       ?BeginSwitchFrom@weapon_scanner@@UAEXXZ 004a6cb0 f   Gamelib:WeaponScanner.obj
 0001:000a6580       ?BeginSwitchTo@weapon_scanner@@UAEXXZ 004a6cc0 f   Gamelib:WeaponScanner.obj
 0001:000a6590       ?EndSwitchTo@weapon_scanner@@UAEXXZ 004a6cd0 f   Gamelib:WeaponScanner.obj
 0001:000a65a0       ?FireNPCWeaponProtected@weapon_scanner@@MAEHABTvector3@@0ABUguid@@MH@Z 004a6ce0 f   Gamelib:WeaponScanner.obj
 0001:000a6730       ?FireWeaponProtected@weapon_scanner@@MAEHABTvector3@@0ABMABUradian3@@ABUguid@@H@Z 004a6e70 f   Gamelib:WeaponScanner.obj
 0001:000a6b10       ?PlayLaserSound@weapon_scanner@@IAEXXZ 004a7250 f   Gamelib:WeaponScanner.obj
 0001:000a6b50       ?RenderWeapon@weapon_scanner@@UAEXHABUxcolor@@H@Z 004a7290 f   Gamelib:WeaponScanner.obj
 0001:000a6b60       ?GetObjectPositionalInfo@weapon_scanner@@QAEHUguid@@AAMAATvector3@@2@Z 004a72a0 f   Gamelib:WeaponScanner.obj
 0001:000a6e00       ?DoCollisionCheck@weapon_scanner@@UAEHAATvector3@@AAUguid@@@Z 004a7540 f   Gamelib:WeaponScanner.obj
 0001:000a7380       ?CheckHitObject@weapon_scanner@@MAE?AUguid@@XZ 004a7ac0 f   Gamelib:WeaponScanner.obj
 0001:000a7420       ?FireSecondaryProtected@weapon_scanner@@MAEHABTvector3@@0ABMABUradian3@@ABUguid@@H@Z 004a7b60 f   Gamelib:WeaponScanner.obj
 0001:000a74b0       ?UpdateLoreCount@weapon_scanner@@IAEXM@Z 004a7bf0 f   Gamelib:WeaponScanner.obj
 0001:000a7540       ?OnAdvanceLogic@weapon_scanner@@UAEXM@Z 004a7c80 f   Gamelib:WeaponScanner.obj
 0001:000a77d0       ?FlashLogic@weapon_scanner@@QAEXM@Z 004a7f10 f   Gamelib:WeaponScanner.obj
 0001:000a7860       ?GetScannerVOIdent@weapon_scanner@@QAEXPADW4eVOIdentifiers@@@Z 004a7fa0 f   Gamelib:WeaponScanner.obj
 0001:000a78c0       ?CheckForScanComplete@weapon_scanner@@QAEXXZ 004a8000 f   Gamelib:WeaponScanner.obj
 0001:000a7b40       ?OnRenderTransparent@weapon_scanner@@UAEXXZ 004a8280 f   Gamelib:WeaponScanner.obj
 0001:000a7bc0       ?TESTEnclosures@weapon_scanner@@IAEXXZ 004a8300 f   Gamelib:WeaponScanner.obj
 0001:000a7c90       ?GetLaserHitLocation@weapon_scanner@@IAEXPAVplayer@@AATvector3@@H@Z 004a83d0 f   Gamelib:WeaponScanner.obj
 0001:000a8010       ?GetSamplingLaserHitLocation@weapon_scanner@@IAEXPAVplayer@@AATvector3@@H@Z 004a8750 f   Gamelib:WeaponScanner.obj
 0001:000a8470       ?DrawScanningLaser@weapon_scanner@@IAEXXZ 004a8bb0 f   Gamelib:WeaponScanner.obj
 0001:000a86d0       ?ClearScan@weapon_scanner@@UAEXXZ 004a8e10 f   Gamelib:WeaponScanner.obj
 0001:000a8760       ?UpdateScanEffect@weapon_scanner@@IAEXXZ 004a8ea0 f   Gamelib:WeaponScanner.obj
 0001:000a8a00       ?KillScanEffect@weapon_scanner@@IAEXXZ 004a9140 f   Gamelib:WeaponScanner.obj
 0001:000a8ac0       ?OnEnumProp@weapon_scanner@@UAEXAAVprop_enum@@@Z 004a9200 f   Gamelib:WeaponScanner.obj
 0001:000a8b30       ?OnProperty@weapon_scanner@@UAEHAAVprop_query@@@Z 004a9270 f   Gamelib:WeaponScanner.obj
 0001:000a8c50       ?GetFlashlightTransformInfo@weapon_scanner@@UAEHAATmatrix4@@AATvector3@@@Z 004a9390 f   Gamelib:WeaponScanner.obj
 0001:000a8ca0       ?GetObjectRTTI@weapon_sniper_rifle@@UBEABUrtti@@XZ 004a93e0 f i Gamelib:WeaponSniper.obj
 0001:000a8cd0       ?GetLogicalName@weapon_sniper_rifle@@UAEPBDXZ 004a9410 f i Gamelib:WeaponSniper.obj
 0001:000a8ce0       ?Create@weapon_sniper_rifle_desc@@UAEPAVobject@@XZ 004a9420 f i Gamelib:WeaponSniper.obj
 0001:000a8d00       ?GetTypeDesc@weapon_sniper_rifle@@UBEABVobject_desc@@XZ 004a9440 f   Gamelib:WeaponSniper.obj
 0001:000a8d10       ??0weapon_sniper_rifle@@QAE@XZ 004a9450 f   Gamelib:WeaponSniper.obj
 0001:000a8df0       ??_Eweapon_sniper_rifle@@UAEPAXI@Z 004a9530 f i Gamelib:WeaponSniper.obj
 0001:000a8df0       ??_Gweapon_sniper_rifle@@UAEPAXI@Z 004a9530 f i Gamelib:WeaponSniper.obj
 0001:000a8e20       ?InitWeapon@weapon_sniper_rifle@@UAEXPBD0ABTvector3@@ABW4render_state@new_weapon@@ABUguid@@@Z 004a9560 f   Gamelib:WeaponSniper.obj
 0001:000a8e80       ?InitWeapon@weapon_sniper_rifle@@UAEXABTvector3@@W4render_state@new_weapon@@Uguid@@@Z 004a95c0 f   Gamelib:WeaponSniper.obj
 0001:000a8ed0       ?ResetWeapon@weapon_sniper_rifle@@UAEXXZ 004a9610 f   Gamelib:WeaponSniper.obj
 0001:000a8f00       ?OnAdvanceLogic@weapon_sniper_rifle@@UAEXM@Z 004a9640 f   Gamelib:WeaponSniper.obj
 0001:000a8f40       ?RenderWeapon@weapon_sniper_rifle@@UAEXHABUxcolor@@H@Z 004a9680 f   Gamelib:WeaponSniper.obj
 0001:000a8fa0       ?BeginNoZoom@weapon_sniper_rifle@@IAEXXZ 004a96e0 f   Gamelib:WeaponSniper.obj
 0001:000a9000       ?BeginZooming@weapon_sniper_rifle@@IAEXXZ 004a9740 f   Gamelib:WeaponSniper.obj
 0001:000a9080       ?UpdateZooming@weapon_sniper_rifle@@IAEXABM@Z 004a97c0 f   Gamelib:WeaponSniper.obj
 0001:000a9110       ?SetState@weapon_sniper_rifle@@QAEXABW4sniper_state@1@@Z 004a9850 f   Gamelib:WeaponSniper.obj
 0001:000a9150       ?FireWeaponProtected@weapon_sniper_rifle@@MAEHABTvector3@@0ABMABUradian3@@ABUguid@@H@Z 004a9890 f   Gamelib:WeaponSniper.obj
 0001:000a92b0       ?FireNPCWeaponProtected@weapon_sniper_rifle@@MAEHABTvector3@@0ABUguid@@MH@Z 004a99f0 f   Gamelib:WeaponSniper.obj
 0001:000a9540       ?IncrementZoom@weapon_sniper_rifle@@UAEHXZ 004a9c80 f   Gamelib:WeaponSniper.obj
 0001:000a9750       ?ClearZoom@weapon_sniper_rifle@@UAEXXZ 004a9e90 f   Gamelib:WeaponSniper.obj
 0001:000a97d0       ?OnProperty@weapon_sniper_rifle@@UAEHAAVprop_query@@@Z 004a9f10 f   Gamelib:WeaponSniper.obj
 0001:000a9820       ?GetObjectRTTI@debris_rigid@@UBEABUrtti@@XZ 004a9f60 f i Gamelib:debris_rigid.obj
 0001:000a9850       ?GetRenderInstPtr@debris_rigid@@UAEPAVrender_inst@@XZ 004a9f90 f i Gamelib:debris_rigid.obj
 0001:000a9860       ?Create@debris_rigid_desc@@UAEPAVobject@@XZ 004a9fa0 f i Gamelib:debris_rigid.obj
 0001:000a9880       ?GetTypeDesc@debris_rigid@@UBEABVobject_desc@@XZ 004a9fc0 f   Gamelib:debris_rigid.obj
 0001:000a9890       ??0debris_rigid@@QAE@XZ    004a9fd0 f   Gamelib:debris_rigid.obj
 0001:000a9900       ??_Edebris_rigid@@UAEPAXI@Z 004aa040 f i Gamelib:debris_rigid.obj
 0001:000a9900       ??_Gdebris_rigid@@UAEPAXI@Z 004aa040 f i Gamelib:debris_rigid.obj
 0001:000a9950       ?Create@debris_rigid@@UAEXPBDABTvector3@@1MH@Z 004aa090 f   Gamelib:debris_rigid.obj
 0001:000a9a10       ?Create@debris_rigid@@UAEXAAVrigid_inst@@ABTvector3@@1MH@Z 004aa150 f   Gamelib:debris_rigid.obj
 0001:000a9af0       ?GetLocalBBox@debris_rigid@@UBE?AUbbox@@XZ 004aa230 f   Gamelib:debris_rigid.obj
 0001:000a9ba0       ?OnRender@debris_rigid@@UAEXXZ 004aa2e0 f   Gamelib:debris_rigid.obj
 0001:000a9c20       ?UpdatePhysics@debris_rigid@@UAEXM@Z 004aa360 f   Gamelib:debris_rigid.obj
 0001:000a9d00       ?GetObjectRTTI@energy_projectile@@UBEABUrtti@@XZ 004aa440 f i Gamelib:ProjectileEnergy.obj
 0001:000a9d30       ?CreateDecalAtPoint@decal_mgr@@QAEXABUdecal_definition@@ABTvector3@@1@Z 004aa470 f i Gamelib:ProjectileEnergy.obj
 0001:000a9db0       ?Create@energy_projectile_desc@@UAEPAVobject@@XZ 004aa4f0 f i Gamelib:ProjectileEnergy.obj
 0001:000a9dd0       ?GetTypeDesc@energy_projectile@@UBEABVobject_desc@@XZ 004aa510 f   Gamelib:ProjectileEnergy.obj
 0001:000a9de0       ??0energy_projectile@@QAE@XZ 004aa520 f   Gamelib:ProjectileEnergy.obj
 0001:000a9f60       ??_Eenergy_projectile@@UAEPAXI@Z 004aa6a0 f i Gamelib:ProjectileEnergy.obj
 0001:000a9f60       ??_Genergy_projectile@@UAEPAXI@Z 004aa6a0 f i Gamelib:ProjectileEnergy.obj
 0001:000a9f90       ??1energy_projectile@@UAE@XZ 004aa6d0 f   Gamelib:ProjectileEnergy.obj
 0001:000a9fe0       ?Setup@energy_projectile@@QAEXUguid@@HABTvector3@@ABUradian3@@1HHMVpain_handle@@@Z 004aa720 f   Gamelib:ProjectileEnergy.obj
 0001:000aa030       ?SetStart@energy_projectile@@UAEXABTvector3@@ABUradian3@@0HHM@Z 004aa770 f   Gamelib:ProjectileEnergy.obj
 0001:000aa110       ?DestroyParticles@energy_projectile@@QAEXXZ 004aa850 f   Gamelib:ProjectileEnergy.obj
 0001:000aa160       ?UpdateParticles@energy_projectile@@QAEXABTvector3@@@Z 004aa8a0 f   Gamelib:ProjectileEnergy.obj
 0001:000aa1f0       ?OnAdvanceLogic@energy_projectile@@UAEXM@Z 004aa930 f   Gamelib:ProjectileEnergy.obj
 0001:000aa2d0       ?OnImpact@energy_projectile@@UAEXAAUcollision@collision_mgr@@PAVobject@@@Z 004aaa10 f   Gamelib:ProjectileEnergy.obj
 0001:000aa3d0       ?OnRender@energy_projectile@@UAEXXZ 004aab10 f   Gamelib:ProjectileEnergy.obj
 0001:000aa4d0       ?OnMove@energy_projectile@@UAEXABTvector3@@@Z 004aac10 f   Gamelib:ProjectileEnergy.obj
 0001:000aa570       ?GetLocalBBox@energy_projectile@@UBE?AUbbox@@XZ 004aacb0 f   Gamelib:ProjectileEnergy.obj
 0001:000aa630       ?LoadEffect@energy_projectile@@QAEHPBDABTvector3@@ABUradian3@@@Z 004aad70 f   Gamelib:ProjectileEnergy.obj
 0001:000aa720       ?DoImpactEffects@energy_projectile@@UAEXAAUcollision@collision_mgr@@@Z 004aae60 f   Gamelib:ProjectileEnergy.obj
 0001:000aa800       ?OnExplode@energy_projectile@@UAEXXZ 004aaf40 f   Gamelib:ProjectileEnergy.obj
 0001:000aab90       ?CausePain@energy_projectile@@UAEXUguid@@@Z 004ab2d0 f   Gamelib:ProjectileEnergy.obj
 0001:000aad70       ?OnAttachToObject@energy_projectile@@UAEXAAUcollision@collision_mgr@@PAVobject@@@Z 004ab4b0 f   Gamelib:ProjectileEnergy.obj
 0001:000aada0       ?DoImpactPain@energy_projectile@@QAEXUguid@@AAUcollision@collision_mgr@@@Z 004ab4e0 f   Gamelib:ProjectileEnergy.obj
 0001:000aae80       ?GetObjectRTTI@focus_object@@UBEABUrtti@@XZ 004ab5c0 f i Gamelib:FocusObject.obj
 0001:000aae90       ?Create@focus_object_desc@@UAEPAVobject@@XZ 004ab5d0 f i Gamelib:FocusObject.obj
 0001:000aaeb0       ?GetTypeDesc@focus_object@@UBEABVobject_desc@@XZ 004ab5f0 f   Gamelib:FocusObject.obj
 0001:000aaec0       ??0focus_object@@QAE@XZ    004ab600 f   Gamelib:FocusObject.obj
 0001:000ab360       ?OnRender@focus_object@@UAEXXZ 004abaa0 f   Gamelib:FocusObject.obj
 0001:000ac230       ?OnAdvanceLogic@focus_object@@UAEXM@Z 004ac970 f   Gamelib:FocusObject.obj
 0001:000ac950       ?TestPress@focus_object@@QAEHXZ 004ad090 f   Gamelib:FocusObject.obj
 0001:000acad0       ?GetLocalBBox@focus_object@@UBE?AUbbox@@XZ 004ad210 f   Gamelib:FocusObject.obj
 0001:000acb70       ?OnEnumProp@focus_object@@UAEXAAVprop_enum@@@Z 004ad2b0 f   Gamelib:FocusObject.obj
 0001:000acf00       ?OnProperty@focus_object@@UAEHAAVprop_query@@@Z 004ad640 f   Gamelib:FocusObject.obj
 0001:000ad5b0       ?OnActivate@focus_object@@UAEXH@Z 004adcf0 f   Gamelib:FocusObject.obj
 0001:000ad5e0       ?GetRTTI@simple_sound_emitter@@SAABUrtti@@XZ 004add20 f i Gamelib:SimpleSoundEmitter.obj
 0001:000ad640       ?GetObjectRTTI@simple_sound_emitter@@UBEABUrtti@@XZ 004add80 f i Gamelib:SimpleSoundEmitter.obj
 0001:000ad650       ?Create@simple_sound_emitter_desc@@UAEPAVobject@@XZ 004add90 f i Gamelib:SimpleSoundEmitter.obj
 0001:000ad670       ?GetTypeDesc@simple_sound_emitter@@UBEABVobject_desc@@XZ 004addb0 f   Gamelib:SimpleSoundEmitter.obj
 0001:000ad680       ??0simple_sound_emitter@@QAE@XZ 004addc0 f   Gamelib:SimpleSoundEmitter.obj
 0001:000ad720       ??_Esimple_sound_emitter@@UAEPAXI@Z 004ade60 f i Gamelib:SimpleSoundEmitter.obj
 0001:000ad720       ??_Gsimple_sound_emitter@@UAEPAXI@Z 004ade60 f i Gamelib:SimpleSoundEmitter.obj
 0001:000ad760       ?OnActivate@simple_sound_emitter@@UAEXH@Z 004adea0 f   Gamelib:SimpleSoundEmitter.obj
 0001:000ada40       ?OnKill@simple_sound_emitter@@UAEXXZ 004ae180 f   Gamelib:SimpleSoundEmitter.obj
 0001:000adb20       ?OnAdvanceLogic@simple_sound_emitter@@UAEXM@Z 004ae260 f   Gamelib:SimpleSoundEmitter.obj
 0001:000ae380       ?OnMove@simple_sound_emitter@@UAEXABTvector3@@@Z 004aeac0 f   Gamelib:SimpleSoundEmitter.obj
 0001:000ae470       ?OnTransform@simple_sound_emitter@@UAEXABTmatrix4@@@Z 004aebb0 f   Gamelib:SimpleSoundEmitter.obj
 0001:000ae5c0       ?OnEnumProp@simple_sound_emitter@@UAEXAAVprop_enum@@@Z 004aed00 f   Gamelib:SimpleSoundEmitter.obj
 0001:000ae6a0       ?OnProperty@simple_sound_emitter@@UAEHAAVprop_query@@@Z 004aede0 f   Gamelib:SimpleSoundEmitter.obj
 0001:000aed70       ?Delete@?$xarray@H@@QAEXHH@Z 004af4b0 f i Gamelib:SimpleSoundEmitter.obj
 0001:000aedb0       ?GetRTTI@volumetric_light_obj@@SAABUrtti@@XZ 004af4f0 f i Gamelib:VolumetricLight.obj
 0001:000aee10       ?GetObjectRTTI@volumetric_light_obj@@UBEABUrtti@@XZ 004af550 f i Gamelib:VolumetricLight.obj
 0001:000aee20       ?Create@volumetric_light_obj_desc@@UAEPAVobject@@XZ 004af560 f i Gamelib:VolumetricLight.obj
 0001:000aee40       ?GetTypeDesc@volumetric_light_obj@@UBEABVobject_desc@@XZ 004af580 f   Gamelib:VolumetricLight.obj
 0001:000aee50       ??0volumetric_light_obj@@QAE@XZ 004af590 f   Gamelib:VolumetricLight.obj
 0001:000aef00       ??_Gvolumetric_light_obj@@UAEPAXI@Z 004af640 f i Gamelib:VolumetricLight.obj
 0001:000aef00       ??_Evolumetric_light_obj@@UAEPAXI@Z 004af640 f i Gamelib:VolumetricLight.obj
 0001:000aef50       ?OnRenderTransparent@volumetric_light_obj@@MAEXXZ 004af690 f   Gamelib:VolumetricLight.obj
 0001:000af050       ?GetLocalBBox@volumetric_light_obj@@UBE?AUbbox@@XZ 004af790 f   Gamelib:VolumetricLight.obj
 0001:000af0f0       ?OnEnumProp@volumetric_light_obj@@UAEXAAVprop_enum@@@Z 004af830 f   Gamelib:VolumetricLight.obj
 0001:000af190       ?OnProperty@volumetric_light_obj@@UAEHAAVprop_query@@@Z 004af8d0 f   Gamelib:VolumetricLight.obj
 0001:000af390       ?SetupData@volumetric_light_obj@@IAEXXZ 004afad0 f   Gamelib:VolumetricLight.obj
 0001:000af6b0       ?GetHealth@destructible_obj@@UAEMXZ 004afdf0 f i Gamelib:DestructibleObj.obj
 0001:000af6c0       ?SetHealth@destructible_obj@@UAEXM@Z 004afe00 f i Gamelib:DestructibleObj.obj
 0001:000af6e0       ?Create@destructible_obj_desc@@UAEPAVobject@@XZ 004afe20 f i Gamelib:DestructibleObj.obj
 0001:000af700       ?GetTypeDesc@destructible_obj@@UBEABVobject_desc@@XZ 004afe40 f   Gamelib:DestructibleObj.obj
 0001:000af710       ??0destructible_obj@@QAE@XZ 004afe50 f   Gamelib:DestructibleObj.obj
 0001:000af8a0       ??_Gdestructible_obj@@UAEPAXI@Z 004affe0 f i Gamelib:DestructibleObj.obj
 0001:000af8a0       ??_Edestructible_obj@@UAEPAXI@Z 004affe0 f i Gamelib:DestructibleObj.obj
 0001:000af8d0       ??1destructible_obj@@UAE@XZ 004b0010 f   Gamelib:DestructibleObj.obj
 0001:000afa30       ?IsDestroyed@destructible_obj@@UAEHXZ 004b0170 f   Gamelib:DestructibleObj.obj
 0001:000afa40       ?OnRender@destructible_obj@@UAEXXZ 004b0180 f   Gamelib:DestructibleObj.obj
 0001:000afaf0       ?CreatePainResponse@@YAXUguid@@PBD1MABTvector3@@HABUradian3@@G@Z 004b0230 f   Gamelib:DestructibleObj.obj
 0001:000b0300       ?OnPain@destructible_obj@@UAEXABVpain@@@Z 004b0a40 f   Gamelib:DestructibleObj.obj
 0001:000b05e0       ?SetDestroyed@destructible_obj@@MAEXXZ 004b0d20 f   Gamelib:DestructibleObj.obj
 0001:000b1300       ?OnAdvanceLogic@destructible_obj@@UAEXM@Z 004b1a40 f   Gamelib:DestructibleObj.obj
 0001:000b1380       ?BroadcastPain@destructible_obj@@IAEXXZ 004b1ac0 f   Gamelib:DestructibleObj.obj
 0001:000b1620       ?OnEnumProp@destructible_obj@@UAEXAAVprop_enum@@@Z 004b1d60 f   Gamelib:DestructibleObj.obj
 0001:000b18b0       ?OnProperty@destructible_obj@@UAEHAAVprop_query@@@Z 004b1ff0 f   Gamelib:DestructibleObj.obj
 0001:000b1ed0       ?Append@?$xarray@G@@QAEAAGXZ 004b2610 f i Gamelib:DestructibleObj.obj
 0001:000b1f30       ?GetObjectRTTI@mutant_contagion_projectile@@UBEABUrtti@@XZ 004b2670 f i Gamelib:ProjectileMutantContagion.obj
 0001:000b1f60       ?IsEnemyFaction@actor@@QBEHW4factions@@@Z 004b26a0 f i Gamelib:ProjectileMutantContagion.obj
 0001:000b1ff0       ?Create@mutant_contagion_projectile_desc@@UAEPAVobject@@XZ 004b2730 f i Gamelib:ProjectileMutantContagion.obj
 0001:000b2010       ?GetTypeDesc@mutant_contagion_projectile@@UBEABVobject_desc@@XZ 004b2750 f   Gamelib:ProjectileMutantContagion.obj
 0001:000b2020       ??0mutant_contagion_projectile@@QAE@XZ 004b2760 f   Gamelib:ProjectileMutantContagion.obj
 0001:000b2190       ??_Emutant_contagion_projectile@@UAEPAXI@Z 004b28d0 f i Gamelib:ProjectileMutantContagion.obj
 0001:000b2190       ??_Gmutant_contagion_projectile@@UAEPAXI@Z 004b28d0 f i Gamelib:ProjectileMutantContagion.obj
 0001:000b21c0       ??1mutant_contagion_projectile@@UAE@XZ 004b2900 f   Gamelib:ProjectileMutantContagion.obj
 0001:000b2300       ?Setup@mutant_contagion_projectile@@QAEXUguid@@HABTvector3@@ABUradian3@@1HHVpain_handle@@@Z 004b2a40 f   Gamelib:ProjectileMutantContagion.obj
 0001:000b2400       ?SetStart@mutant_contagion_projectile@@UAEXABTvector3@@ABUradian3@@0HHM@Z 004b2b40 f   Gamelib:ProjectileMutantContagion.obj
 0001:000b2440       ?GetLocalBBox@mutant_contagion_projectile@@UBE?AUbbox@@XZ 004b2b80 f   Gamelib:ProjectileMutantContagion.obj
 0001:000b2460       ?OnAdvanceLogic@mutant_contagion_projectile@@UAEXM@Z 004b2ba0 f   Gamelib:ProjectileMutantContagion.obj
 0001:000b2750       ?OnImpact@mutant_contagion_projectile@@UAEXAAUcollision@collision_mgr@@PAVobject@@@Z 004b2e90 f   Gamelib:ProjectileMutantContagion.obj
 0001:000b27b0       ?OnExplode@mutant_contagion_projectile@@UAEXXZ 004b2ef0 f   Gamelib:ProjectileMutantContagion.obj
 0001:000b27e0       ?OnMove@mutant_contagion_projectile@@UAEXABTvector3@@@Z 004b2f20 f   Gamelib:ProjectileMutantContagion.obj
 0001:000b27e0       ?OnMove@pickup@@UAEXABTvector3@@@Z 004b2f20 f   Gamelib:Pickup.obj
 0001:000b27f0       ?OnRenderTransparent@mutant_contagion_projectile@@UAEXXZ 004b2f30 f   Gamelib:ProjectileMutantContagion.obj
 0001:000b2850       ?UpdateTravel@mutant_contagion_projectile@@QAEXXZ 004b2f90 f   Gamelib:ProjectileMutantContagion.obj
 0001:000b2990       ?BeginArming@mutant_contagion_projectile@@QAEXXZ 004b30d0 f   Gamelib:ProjectileMutantContagion.obj
 0001:000b2b70       ?UpdateArming@mutant_contagion_projectile@@QAEXXZ 004b32b0 f   Gamelib:ProjectileMutantContagion.obj
 0001:000b2ba0       ?TriggerFromWeapon@mutant_contagion_projectile@@QAEXXZ 004b32e0 f   Gamelib:ProjectileMutantContagion.obj
 0001:000b2c70       ?TriggerFromTheta@mutant_contagion_projectile@@QAEXMUguid@@@Z 004b33b0 f   Gamelib:ProjectileMutantContagion.obj
 0001:000b2d40       ?BeginAttack@mutant_contagion_projectile@@QAEXM@Z 004b3480 f   Gamelib:ProjectileMutantContagion.obj
 0001:000b3330       ?BeginAttack@mutant_contagion_projectile@@QAEXMUguid@@@Z 004b3a70 f   Gamelib:ProjectileMutantContagion.obj
 0001:000b3400       ?UpdateAttack@mutant_contagion_projectile@@QAEXXZ 004b3b40 f   Gamelib:ProjectileMutantContagion.obj
 0001:000b3590       ??0contagion@@QAE@XZ       004b3cd0 f   Gamelib:ProjectileMutantContagion.obj
 0001:000b3660       ?BeginArming@contagion@@QAEXABTvector3@@00@Z 004b3da0 f   Gamelib:ProjectileMutantContagion.obj
 0001:000b3b70       ?BeginArming@contagion@@QAEXPAV1@M@Z 004b42b0 f   Gamelib:ProjectileMutantContagion.obj
 0001:000b3c00       ?BeginAttack@contagion@@QAEXM@Z 004b4340 f   Gamelib:ProjectileMutantContagion.obj
 0001:000b44d0       ?AdvanceLogic@contagion@@QAEXM@Z 004b4c10 f   Gamelib:ProjectileMutantContagion.obj
 0001:000b4610       ?BeginArmedIdle@contagion@@IAEXXZ 004b4d50 f   Gamelib:ProjectileMutantContagion.obj
 0001:000b4690       ?UpdateArming@contagion@@IAEXM@Z 004b4dd0 f   Gamelib:ProjectileMutantContagion.obj
 0001:000b4820       ?UpdateArmedIdle@contagion@@IAEXM@Z 004b4f60 f   Gamelib:ProjectileMutantContagion.obj
 0001:000b4b50       ?UpdateAttack@contagion@@IAEXM@Z 004b5290 f   Gamelib:ProjectileMutantContagion.obj
 0001:000b5000       ?UpdateTargetPosition@contagion@@IAEXXZ 004b5740 f   Gamelib:ProjectileMutantContagion.obj
 0001:000b5090       ?ComputeArmPoint@contagion@@QAE?ATvector3@@ABT2@0@Z 004b57d0 f   Gamelib:ProjectileMutantContagion.obj
 0001:000b5480       ?ComputePositionAtT@contagion@@QAE?ATvector3@@M@Z 004b5bc0 f   Gamelib:ProjectileMutantContagion.obj
 0001:000b55b0       ?GetRTTI@ladder_field@@SAABUrtti@@XZ 004b5cf0 f i Gamelib:Ladder_Field.obj
 0001:000b5610       ?GetObjectRTTI@ladder_field@@UBEABUrtti@@XZ 004b5d50 f i Gamelib:Ladder_Field.obj
 0001:000b5620       ?Create@ladder_field_desc@@UAEPAVobject@@XZ 004b5d60 f i Gamelib:Ladder_Field.obj
 0001:000b5680       ?GetTypeDesc@ladder_field@@UBEABVobject_desc@@XZ 004b5dc0 f   Gamelib:Ladder_Field.obj
 0001:000b5690       ?ComputeCollision@ladder_field@@QAEXAAUcollision@1@MM@Z 004b5dd0 f   Gamelib:Ladder_Field.obj
 0001:000b59b0       ?OnColCheck@ladder_field@@UAEXXZ 004b60f0 f   Gamelib:Ladder_Field.obj
 0001:000b5ae0       ?OnEnumProp@ladder_field@@UAEXAAVprop_enum@@@Z 004b6220 f   Gamelib:Ladder_Field.obj
 0001:000b5b20       ?OnProperty@ladder_field@@UAEHAAVprop_query@@@Z 004b6260 f   Gamelib:Ladder_Field.obj
 0001:000b5ba0       ?GetLocalBBox@ladder_field@@UBE?AUbbox@@XZ 004b62e0 f   Gamelib:Ladder_Field.obj
 0001:000b5d30       ?DoesCylinderIntersect@ladder_field@@QBEHABTvector3@@MM@Z 004b6470 f   Gamelib:Ladder_Field.obj
 0001:000b5f00       ?GetRTTI@manipulator@@SAABUrtti@@XZ 004b6640 f i Gamelib:Manipulator.obj
 0001:000b5f60       ?GetObjectRTTI@manipulator@@UBEABUrtti@@XZ 004b66a0 f i Gamelib:Manipulator.obj
 0001:000b5f70       ?Create@manipulator_desc@@UAEPAVobject@@XZ 004b66b0 f i Gamelib:Manipulator.obj
 0001:000b5f90       ?GetTypeDesc@manipulator@@UBEABVobject_desc@@XZ 004b66d0 f   Gamelib:Manipulator.obj
 0001:000b5fa0       ??0manipulator@@QAE@XZ     004b66e0 f   Gamelib:Manipulator.obj
 0001:000b6000       ??_Gmanipulator@@UAEPAXI@Z 004b6740 f i Gamelib:Manipulator.obj
 0001:000b6000       ??_Emanipulator@@UAEPAXI@Z 004b6740 f i Gamelib:Manipulator.obj
 0001:000b6030       ?OnEnumProp@manipulator@@UAEXAAVprop_enum@@@Z 004b6770 f   Gamelib:Manipulator.obj
 0001:000b6120       ?OnProperty@manipulator@@UAEHAAVprop_query@@@Z 004b6860 f   Gamelib:Manipulator.obj
 0001:000b6550       ?UpdateAnimL2W@manipulator@@IAEXXZ 004b6c90 f   Gamelib:Manipulator.obj
 0001:000b66c0       ?OnMove@manipulator@@UAEXABTvector3@@@Z 004b6e00 f   Gamelib:Manipulator.obj
 0001:000b6700       ?OnTransform@manipulator@@UAEXABTmatrix4@@@Z 004b6e40 f   Gamelib:Manipulator.obj
 0001:000b6740       ?UpdateObjects@manipulator@@IAEXXZ 004b6e80 f   Gamelib:Manipulator.obj
 0001:000b68e0       ?OnAdvanceLogic@manipulator@@MAEXM@Z 004b7020 f   Gamelib:Manipulator.obj
 0001:000b69b0       ?OnActivate@manipulator@@UAEXH@Z 004b70f0 f   Gamelib:Manipulator.obj
 0001:000b6a00       ?GetRTTI@jump_pad@@SAABUrtti@@XZ 004b7140 f i Gamelib:JumpPad.obj
 0001:000b6a60       ?GetObjectRTTI@jump_pad@@UBEABUrtti@@XZ 004b71a0 f i Gamelib:JumpPad.obj
 0001:000b6a70       ?Create@jump_pad_desc@@UAEPAVobject@@XZ 004b71b0 f i Gamelib:JumpPad.obj
 0001:000b6a90       ?GetTypeDesc@jump_pad@@UBEABVobject_desc@@XZ 004b71d0 f   Gamelib:JumpPad.obj
 0001:000b6aa0       ??0jump_pad@@QAE@XZ        004b71e0 f   Gamelib:JumpPad.obj
 0001:000b6b50       ??_Gjump_pad@@UAEPAXI@Z    004b7290 f i Gamelib:JumpPad.obj
 0001:000b6b50       ??_Ejump_pad@@UAEPAXI@Z    004b7290 f i Gamelib:JumpPad.obj
 0001:000b6b80       ??1jump_pad@@UAE@XZ        004b72c0 f   Gamelib:JumpPad.obj
 0001:000b6be0       ?ComputeTrigger@jump_pad@@IAEXXZ 004b7320 f   Gamelib:JumpPad.obj
 0001:000b6cd0       ?ComputeVelocity@jump_pad@@IAEXXZ 004b7410 f   Gamelib:JumpPad.obj
 0001:000b6db0       ?OnMove@jump_pad@@UAEXABTvector3@@@Z 004b74f0 f   Gamelib:JumpPad.obj
 0001:000b6df0       ?OnMoveRel@jump_pad@@UAEXABTvector3@@@Z 004b7530 f   Gamelib:JumpPad.obj
 0001:000b6e50       ?OnTransform@jump_pad@@UAEXABTmatrix4@@@Z 004b7590 f   Gamelib:JumpPad.obj
 0001:000b6e90       ?GetLocalBBox@jump_pad@@UBE?AUbbox@@XZ 004b75d0 f   Gamelib:JumpPad.obj
 0001:000b6e90       ?GetLocalBBox@teleporter@@UBE?AUbbox@@XZ 004b75d0 f   Gamelib:Teleporter.obj
 0001:000b6f30       ?OnAdvanceLogic@jump_pad@@UAEXM@Z 004b7670 f   Gamelib:JumpPad.obj
 0001:000b70f0       ?OnEnumProp@jump_pad@@UAEXAAVprop_enum@@@Z 004b7830 f   Gamelib:JumpPad.obj
 0001:000b71b0       ?OnProperty@jump_pad@@UAEHAAVprop_query@@@Z 004b78f0 f   Gamelib:JumpPad.obj
 0001:000b7320       ?PlayJump@jump_pad@@QAEXXZ 004b7a60 f   Gamelib:JumpPad.obj
 0001:000b73a0       ?OnRenderTransparent@jump_pad@@UAEXXZ 004b7ae0 f   Gamelib:JumpPad.obj
 0001:000b73b0       ?SafeNormalizeAndScale@vector3@@QAEHM@Z 004b7af0 f i Gamelib:CokeCan.obj
 0001:000b7450       ?GetClosestPToLSegRatio@vector3@@QBEMABT1@0@Z 004b7b90 f i Gamelib:CokeCan.obj
 0001:000b7500       ?PreRotateX@matrix4@@QAEXM@Z 004b7c40 f i Gamelib:CokeCan.obj
 0001:000b7610       ?Setup@plane@@QAEXABTvector3@@M@Z 004b7d50 f i Gamelib:CokeCan.obj
 0001:000b76a0       ?GetComponents@plane@@QBEXABTvector3@@AAT2@1@Z 004b7de0 f i Gamelib:CokeCan.obj
 0001:000b7770       ?GetRTTI@coke_can@@SAABUrtti@@XZ 004b7eb0 f i Gamelib:CokeCan.obj
 0001:000b77d0       ?GetObjectRTTI@coke_can@@UBEABUrtti@@XZ 004b7f10 f i Gamelib:CokeCan.obj
 0001:000b77e0       ?GetLogicalName@coke_can@@UAEPBDXZ 004b7f20 f i Gamelib:CokeCan.obj
 0001:000b77f0       ?Create@coke_can_desc@@UAEPAVobject@@XZ 004b7f30 f i Gamelib:CokeCan.obj
 0001:000b7810       ?GetTypeDesc@coke_can@@UBEABVobject_desc@@XZ 004b7f50 f   Gamelib:CokeCan.obj
 0001:000b7820       ??0coke_can@@QAE@XZ        004b7f60 f   Gamelib:CokeCan.obj
 0001:000b7a40       ??_Gcoke_can@@UAEPAXI@Z    004b8180 f i Gamelib:CokeCan.obj
 0001:000b7a40       ??_Ecoke_can@@UAEPAXI@Z    004b8180 f i Gamelib:CokeCan.obj
 0001:000b7a90       ?OnTransform@object@@UAEXABTmatrix4@@@Z 004b81d0 f   Gamelib:object.obj
 0001:000b7a90       ?OnTransform@play_surface@@UAEXABTmatrix4@@@Z 004b81d0 f   Gamelib:PlaySurface.obj
 0001:000b7a90       ?OnTransform@coupler@@UAEXABTmatrix4@@@Z 004b81d0 f   Gamelib:Coupler.obj
 0001:000b7a90       ?OnTransform@pickup@@UAEXABTmatrix4@@@Z 004b81d0 f   Gamelib:Pickup.obj
 0001:000b7a90       ?OnTransform@lore_object@@UAEXABTmatrix4@@@Z 004b81d0 f   Gamelib:LoreObject.obj
 0001:000b7a90       ?OnTransform@animation_obj@@UAEXABTmatrix4@@@Z 004b81d0 f   Gamelib:Animation_obj.obj
 0001:000b7a90       ?OnTransform@coke_can@@UAEXABTmatrix4@@@Z 004b81d0 f   Gamelib:CokeCan.obj
 0001:000b7ad0       ?GetLocalBBox@coke_can@@UBE?AUbbox@@XZ 004b8210 f   Gamelib:CokeCan.obj
 0001:000b7bf0       ?GetGeomBBox@coke_can@@QBE?AUbbox@@XZ 004b8330 f   Gamelib:CokeCan.obj
 0001:000b7c80       ?OnRender@coke_can@@UAEXXZ 004b83c0 f   Gamelib:CokeCan.obj
 0001:000b7d60       ?OnAdvanceLogic@coke_can@@UAEXM@Z 004b84a0 f   Gamelib:CokeCan.obj
 0001:000b7fe0       ?OnPain@coke_can@@UAEXABVpain@@@Z 004b8720 f   Gamelib:CokeCan.obj
 0001:000b85f0       ?OnColCheck@coke_can@@UAEXXZ 004b8d30 f   Gamelib:CokeCan.obj
 0001:000b86c0       ?OnEnumProp@coke_can@@MAEXAAVprop_enum@@@Z 004b8e00 f   Gamelib:CokeCan.obj
 0001:000b8730       ?OnProperty@coke_can@@MAEHAAVprop_query@@@Z 004b8e70 f   Gamelib:CokeCan.obj
 0001:000b8880       ?InitPhysics@coke_can@@IAEXXZ 004b8fc0 f   Gamelib:CokeCan.obj
 0001:000b8db0       ?GetEnergy@coke_can@@IAEMXZ 004b94f0 f   Gamelib:CokeCan.obj
 0001:000b8e50       ?UpdateL2W@coke_can@@IAEXXZ 004b9590 f   Gamelib:CokeCan.obj
 0001:000b91c0       ?Integrate@coke_can@@IAEXM@Z 004b9900 f   Gamelib:CokeCan.obj
 0001:000b9320       ?ApplyEqualDistConstraint@coke_can@@IAEXAAUparticle@1@0M@Z 004b9a60 f   Gamelib:CokeCan.obj
 0001:000b9410       ?ApplyMinDistConstraint@coke_can@@IAEMAAUparticle@1@0MMMM@Z 004b9b50 f   Gamelib:CokeCan.obj
 0001:000b95a0       ?ApplyCylinderConstraint@coke_can@@IAEHABTvector3@@0MAAT2@@Z 004b9ce0 f   Gamelib:CokeCan.obj
 0001:000b97b0       ?ApplyCollConstraints@coke_can@@IAEXXZ 004b9ef0 f   Gamelib:CokeCan.obj
 0001:000babd0       ?ApplyCanConstraints@coke_can@@IAEXAAV1@@Z 004bb310 f   Gamelib:CokeCan.obj
 0001:000baf10       ?ApplyCanConstraints@coke_can@@IAEXXZ 004bb650 f   Gamelib:CokeCan.obj
 0001:000bb070       ?ApplyActorConstraints@coke_can@@QAEXAAVactor@@@Z 004bb7b0 f   Gamelib:CokeCan.obj
 0001:000bb130       ?ApplyDamping@coke_can@@IAEXXZ 004bb870 f   Gamelib:CokeCan.obj
 0001:000bb4a0       ?OnColNotify@coke_can@@UAEXAAVobject@@@Z 004bbbe0 f   Gamelib:CokeCan.obj
 0001:000bb500       ??0collision@collision_mgr@@QAE@XZ 004bbc40 f i Gamelib:Flag.obj
 0001:000bb570       ?GetRTTI@flag@@SAABUrtti@@XZ 004bbcb0 f i Gamelib:Flag.obj
 0001:000bb570       ?GetObjectRTTI@flag@@UBEABUrtti@@XZ 004bbcb0 f i Gamelib:Flag.obj
 0001:000bb5a0       ?Create@flag_desc@@UAEPAVobject@@XZ 004bbce0 f i Gamelib:Flag.obj
 0001:000bb5c0       ?GetTypeDesc@flag@@UBEABVobject_desc@@XZ 004bbd00 f   Gamelib:Flag.obj
 0001:000bb5d0       ??0flag@@QAE@XZ            004bbd10 f   Gamelib:Flag.obj
 0001:000bb720       ??_Eflag@@UAEPAXI@Z        004bbe60 f i Gamelib:Flag.obj
 0001:000bb720       ??_Gflag@@UAEPAXI@Z        004bbe60 f i Gamelib:Flag.obj
 0001:000bb750       ??1flag@@UAE@XZ            004bbe90 f   Gamelib:Flag.obj
 0001:000bb8b0       ?InitGeometry@flag@@IAEXI@Z 004bbff0 f   Gamelib:Flag.obj
 0001:000bba00       ?InitCloth@flag@@QAEXXZ    004bc140 f   Gamelib:Flag.obj
 0001:000bba60       ?ClearTimeOut@flag@@QAEXXZ 004bc1a0 f   Gamelib:Flag.obj
 0001:000bba90       ?AttachToPlayer@flag@@QAEXH@Z 004bc1d0 f   Gamelib:Flag.obj
 0001:000bbad0       ?SetPosition@flag@@QAEXABTvector3@@HHH@Z 004bc210 f   Gamelib:Flag.obj
 0001:000bbbf0       ?GetLocalBBox@flag@@UBE?AUbbox@@XZ 004bc330 f   Gamelib:Flag.obj
 0001:000bbc10       ?OnEnumProp@flag@@UAEXAAVprop_enum@@@Z 004bc350 f   Gamelib:Flag.obj
 0001:000bbc30       ?OnProperty@flag@@UAEHAAVprop_query@@@Z 004bc370 f   Gamelib:Flag.obj
 0001:000bbca0       ?GetVTexture@flag@@QAEHXZ  004bc3e0 f   Gamelib:Flag.obj
 0001:000bbd10       ?OnRender@flag@@UAEXXZ     004bc450 f   Gamelib:Flag.obj
 0001:000bbdb0       ?OnRenderCloth@flag@@UAEXXZ 004bc4f0 f   Gamelib:Flag.obj
 0001:000bbde0       ?OnRenderTransparent@flag@@UAEXXZ 004bc520 f   Gamelib:Flag.obj
 0001:000bbe30       ?OnAdvanceLogic@flag@@UAEXM@Z 004bc570 f   Gamelib:Flag.obj
 0001:000bc9f0       ?OnPain@flag@@UAEXABVpain@@@Z 004bd130 f   Gamelib:Flag.obj
 0001:000bca90       ?OnProjectileImpact@flag@@UAEXABVobject@@ABTvector3@@I1HM@Z 004bd1d0 f   Gamelib:Flag.obj
 0001:000bcae0       ?OnColCheck@flag@@UAEXXZ   004bd220 f   Gamelib:Flag.obj
 0001:000bcb70       ?OnMove@flag@@UAEXABTvector3@@@Z 004bd2b0 f   Gamelib:Flag.obj
 0001:000bcc50       ?OnTransform@flag@@UAEXABTmatrix4@@@Z 004bd390 f   Gamelib:Flag.obj
 0001:000bcd30       ?net_Logic@flag@@UAEXM@Z   004bd470 f   Gamelib:Flag.obj
 0001:000bd130       ?net_AcceptUpdate@flag@@UAEXABVbitstream@@@Z 004bd870 f   Gamelib:Flag.obj
 0001:000bd610       ?net_ProvideUpdate@flag@@UAEXAAVbitstream@@AAI@Z 004bdd50 f   Gamelib:Flag.obj
 0001:000bd810       ?GetRTTI@lens_filter@@SAABUrtti@@XZ 004bdf50 f i Gamelib:LensFilter.obj
 0001:000bd870       ?GetObjectRTTI@lens_filter@@UBEABUrtti@@XZ 004bdfb0 f i Gamelib:LensFilter.obj
 0001:000bd880       ?Create@lens_filter_desc@@UAEPAVobject@@XZ 004bdfc0 f i Gamelib:LensFilter.obj
 0001:000bd8a0       ?GetTypeDesc@lens_filter@@UBEABVobject_desc@@XZ 004bdfe0 f   Gamelib:LensFilter.obj
 0001:000bd8b0       ??0lens_filter@@QAE@XZ     004bdff0 f   Gamelib:LensFilter.obj
 0001:000bd940       ??_Glens_filter@@UAEPAXI@Z 004be080 f i Gamelib:LensFilter.obj
 0001:000bd940       ??_Elens_filter@@UAEPAXI@Z 004be080 f i Gamelib:LensFilter.obj
 0001:000bd970       ?GetLocalBBox@notepad_object@@UBE?AUbbox@@XZ 004be0b0 f   Gamelib:notepad_object.obj
 0001:000bd970       ?GetLocalBBox@lens_filter@@UBE?AUbbox@@XZ 004be0b0 f   Gamelib:LensFilter.obj
 0001:000bd9b0       ?OnEnumProp@lens_filter@@UAEXAAVprop_enum@@@Z 004be0f0 f   Gamelib:LensFilter.obj
 0001:000bda30       ?OnProperty@lens_filter@@UAEHAAVprop_query@@@Z 004be170 f   Gamelib:LensFilter.obj
 0001:000bdb50       ?OnActivate@lens_filter@@UAEXH@Z 004be290 f   Gamelib:LensFilter.obj
 0001:000bdc40       ?OnAdvanceLogic@lens_filter@@UAEXM@Z 004be380 f   Gamelib:LensFilter.obj
 0001:000bdf10       ?GetObjectRTTI@weapon_dual_shotgun@@UBEABUrtti@@XZ 004be650 f i Gamelib:WeaponDualShotgun.obj
 0001:000bdf40       ?GetTotalSecondaryAmmo@weapon_dual_shotgun@@UAEHXZ 004be680 f i Gamelib:WeaponDualShotgun.obj
 0001:000bdf40       ?GetTotalSecondaryAmmo@weapon_shotgun@@UAEHXZ 004be680 f i Gamelib:WeaponShotgun.obj
 0001:000bdf50       ?Create@weapon_dual_shotgun_desc@@UAEPAVobject@@XZ 004be690 f i Gamelib:WeaponDualShotgun.obj
 0001:000bdf70       ?GetTypeDesc@weapon_dual_shotgun@@UBEABVobject_desc@@XZ 004be6b0 f   Gamelib:WeaponDualShotgun.obj
 0001:000bdf80       ??0weapon_dual_shotgun@@QAE@XZ 004be6c0 f   Gamelib:WeaponDualShotgun.obj
 0001:000be050       ??_Eweapon_dual_shotgun@@UAEPAXI@Z 004be790 f i Gamelib:WeaponDualShotgun.obj
 0001:000be050       ??_Gweapon_dual_shotgun@@UAEPAXI@Z 004be790 f i Gamelib:WeaponDualShotgun.obj
 0001:000be080       ?InitWeapon@weapon_dual_shotgun@@UAEXPBD0ABTvector3@@ABW4render_state@new_weapon@@ABUguid@@@Z 004be7c0 f   Gamelib:WeaponDualShotgun.obj
 0001:000be0d0       ?InitWeapon@weapon_dual_shotgun@@UAEXABTvector3@@W4render_state@new_weapon@@Uguid@@@Z 004be810 f   Gamelib:WeaponDualShotgun.obj
 0001:000be120       ?HasLOS@weapon_shotgun@@IAEHABTvector3@@0@Z 004be860 f   Gamelib:WeaponShotgun.obj
 0001:000be120       ?HasLOS@weapon_dual_shotgun@@IAEHABTvector3@@0@Z 004be860 f   Gamelib:WeaponDualShotgun.obj
 0001:000be1b0       ?HandleSweeperCone@weapon_shotgun@@QAEXABTvector3@@0ABUradian3@@ABVpain_handle@@MM@Z 004be8f0 f   Gamelib:WeaponShotgun.obj
 0001:000be1b0       ?HandleSweeperCone@weapon_dual_shotgun@@QAEXABTvector3@@0ABUradian3@@ABVpain_handle@@MM@Z 004be8f0 f   Gamelib:WeaponDualShotgun.obj
 0001:000bead0       ?FireWeaponProtected@weapon_dual_shotgun@@MAEHABTvector3@@0ABMABUradian3@@ABUguid@@H@Z 004bf210 f   Gamelib:WeaponDualShotgun.obj
 0001:000bee20       ?FireSecondaryProtected@weapon_dual_shotgun@@MAEHABTvector3@@0ABMABUradian3@@ABUguid@@H@Z 004bf560 f   Gamelib:WeaponDualShotgun.obj
 0001:000bf1e0       ?Reload@weapon_dual_shotgun@@UAEXABW4ammo_priority@new_weapon@@@Z 004bf920 f   Gamelib:WeaponDualShotgun.obj
 0001:000bf1e0       ?Reload@weapon_shotgun@@UAEXABW4ammo_priority@new_weapon@@@Z 004bf920 f   Gamelib:WeaponShotgun.obj
 0001:000bf250       ?ContinueReload@weapon_shotgun@@UAEHXZ 004bf990 f   Gamelib:WeaponShotgun.obj
 0001:000bf250       ?ContinueReload@weapon_dual_shotgun@@UAEHXZ 004bf990 f   Gamelib:WeaponDualShotgun.obj
 0001:000bf270       ?CanFire@weapon_dual_shotgun@@UAEHH@Z 004bf9b0 f   Gamelib:WeaponDualShotgun.obj
 0001:000bf2b0       ?GetFlashlightTransformInfo@weapon_dual_shotgun@@UAEHAATmatrix4@@AATvector3@@@Z 004bf9f0 f   Gamelib:WeaponDualShotgun.obj
 0001:000bf310       ?Init@fx_handle_wrapper@@QAEXPBD@Z 004bfa50 f i Gamelib:ParticleEmiter.obj
 0001:000bf3b0       ?Unload@fx_handle_wrapper@@QAEXXZ 004bfaf0 f i Gamelib:ParticleEmiter.obj
 0001:000bf410       ?IsValid@fx_handle_wrapper@@QAEHXZ 004bfb50 f i Gamelib:ParticleEmiter.obj
 0001:000bf480       ?GetObjectRTTI@particle_emitter@@UBEABUrtti@@XZ 004bfbc0 f i Gamelib:ParticleEmiter.obj
 0001:000bf490       ?FxLoadBitmap@@YAHPBDAAUxhandle@@@Z 004bfbd0 f   Gamelib:ParticleEmiter.obj
 0001:000bf510       ?FxResolveBitmap@@YAPBVxbitmap@@Uxhandle@@@Z 004bfc50 f   Gamelib:ParticleEmiter.obj
 0001:000bf550       ?Resolve@fx_rsc_loader@@UAEPAXPAX@Z 004bfc90 f i Gamelib:ParticleEmiter.obj
 0001:000bf5b0       ?Unload@fx_rsc_loader@@UAEXPAX@Z 004bfcf0 f i Gamelib:ParticleEmiter.obj
 0001:000bf5e0       ?Create@particle_emitter_desc@@UAEPAVobject@@XZ 004bfd20 f i Gamelib:ParticleEmiter.obj
 0001:000bf600       ?OnEnumProp@particle_emitter_desc@@UAEXAAVprop_enum@@@Z 004bfd40 f i Gamelib:ParticleEmiter.obj
 0001:000bf630       ?OnProperty@particle_emitter_desc@@UAEHAAVprop_query@@@Z 004bfd70 f i Gamelib:ParticleEmiter.obj
 0001:000bf670       ?GetTypeDesc@particle_emitter@@UBEABVobject_desc@@XZ 004bfdb0 f   Gamelib:ParticleEmiter.obj
 0001:000bf680       ??0particle_emitter@@QAE@XZ 004bfdc0 f   Gamelib:ParticleEmiter.obj
 0001:000bf780       ??_Eparticle_emitter@@UAEPAXI@Z 004bfec0 f i Gamelib:ParticleEmiter.obj
 0001:000bf780       ??_Gparticle_emitter@@UAEPAXI@Z 004bfec0 f i Gamelib:ParticleEmiter.obj
 0001:000bf7c0       ?OnInit@particle_emitter@@MAEXXZ 004bff00 f   Gamelib:ParticleEmiter.obj
 0001:000bf7f0       ?GetLocalBBox@particle_emitter@@UBE?AUbbox@@XZ 004bff30 f   Gamelib:ParticleEmiter.obj
 0001:000bf7f0       ?GetLocalBBox@debris_meson_explosion@@UBE?AUbbox@@XZ 004bff30 f   Gamelib:debris_meson_lash.obj
 0001:000bf810       ?OnRenderTransparent@particle_emitter@@MAEXXZ 004bff50 f   Gamelib:ParticleEmiter.obj
 0001:000bf8d0       ?OnMove@particle_emitter@@UAEXABTvector3@@@Z 004c0010 f   Gamelib:ParticleEmiter.obj
 0001:000bf930       ?OnTransform@particle_emitter@@UAEXABTmatrix4@@@Z 004c0070 f   Gamelib:ParticleEmiter.obj
 0001:000bfa00       ?OnAdvanceLogic@particle_emitter@@MAEXM@Z 004c0140 f   Gamelib:ParticleEmiter.obj
 0001:000bfd90       ?ComputeLocalBBox@particle_emitter@@IAEXABTmatrix4@@@Z 004c04d0 f   Gamelib:ParticleEmiter.obj
 0001:000bff60       ?OnEnumProp@particle_emitter@@UAEXAAVprop_enum@@@Z 004c06a0 f   Gamelib:ParticleEmiter.obj
 0001:000c00a0       ?OnProperty@particle_emitter@@UAEHAAVprop_query@@@Z 004c07e0 f   Gamelib:ParticleEmiter.obj
 0001:000c0420       ?SetScale@particle_emitter@@QAEXM@Z 004c0b60 f   Gamelib:ParticleEmiter.obj
 0001:000c0450       ?ResizeParticleEffect@particle_emitter@@QAEXXZ 004c0b90 f   Gamelib:ParticleEmiter.obj
 0001:000c04f0       ?InitGenricParticle@particle_emitter@@IAEXPBD@Z 004c0c30 f   Gamelib:ParticleEmiter.obj
 0001:000c05c0       ?InitPresetParticle@particle_emitter@@IAEXW4particle_type@1@@Z 004c0d00 f   Gamelib:ParticleEmiter.obj
 0001:000c06d0       ?DestroyParticle@particle_emitter@@QAEXXZ 004c0e10 f   Gamelib:ParticleEmiter.obj
 0001:000c0710       ?StopParticle@particle_emitter@@QAEXXZ 004c0e50 f   Gamelib:ParticleEmiter.obj
 0001:000c0760       ?PlayOnceLogic@particle_emitter@@IAEXM@Z 004c0ea0 f   Gamelib:ParticleEmiter.obj
 0001:000c07e0       ?PlayRepeatedLogic@particle_emitter@@IAEXM@Z 004c0f20 f   Gamelib:ParticleEmiter.obj
 0001:000c08b0       ?PlayForeverLogic@particle_emitter@@IAEXM@Z 004c0ff0 f   Gamelib:ParticleEmiter.obj
 0001:000c0990       ?PlayPresistantLogic@particle_emitter@@IAEXM@Z 004c10d0 f   Gamelib:ParticleEmiter.obj
 0001:000c0a00       ?CreatePresetParticle@particle_emitter@@SA?AUguid@@W4particle_type@1@G@Z 004c1140 f   Gamelib:ParticleEmiter.obj
 0001:000c0aa0       ?CreateGenericParticle@particle_emitter@@SA?AUguid@@PBDG@Z 004c11e0 f   Gamelib:ParticleEmiter.obj
 0001:000c0b30       ?CreateProjectileCollisionEffect@particle_emitter@@SAXABUcollision@collision_mgr@@Uguid@@@Z 004c1270 f   Gamelib:ParticleEmiter.obj
 0001:000c0c40       ?ProcessCollisionSfx@particle_emitter@@SAXHABTvector3@@GUguid@@@Z 004c1380 f   Gamelib:ParticleEmiter.obj
 0001:000c0d50       ?CreateOnPainEffect@particle_emitter@@SAXABVpain@@MW4particle_type@1@Uxcolor@@@Z 004c1490 f   Gamelib:ParticleEmiter.obj
 0001:000c0e30       ?CreatePresetParticleAndOrient@particle_emitter@@SA?AUguid@@W4particle_type@1@ABTvector3@@1G@Z 004c1570 f   Gamelib:ParticleEmiter.obj
 0001:000c0eb0       ?CreatePresetParticleAndOrient@particle_emitter@@SA?AUguid@@PBDABTvector3@@1G@Z 004c15f0 f   Gamelib:ParticleEmiter.obj
 0001:000c0f90       ?OnActivate@particle_emitter@@UAEXH@Z 004c16d0 f   Gamelib:ParticleEmiter.obj
 0001:000c1010       ??$SMP_UTIL_IsExternalVar@V?$simple_string@$0EA@@@@@YAHAAVprop_query@@PBDAAV?$simple_string@$0EA@@@AAH@Z 004c1750 f i Gamelib:ParticleEmiter.obj
 0001:000c10d0       ?GetIndex@?$enum_table@W4hit_location_type@action_object_damage@@@@QBEHPBD@Z 004c1810 f i Gamelib:action_object_damage.obj
 0001:000c10d0       ?GetIndex@?$enum_table@W4trigger_ex_spatial_activation_bullet_types@trigger_ex_object@@@@QBEHPBD@Z 004c1810 f i Gamelib:TriggerEx_Object.obj
 0001:000c10d0       ?GetIndex@?$enum_table@W4factions@@@@QBEHPBD@Z 004c1810 f i Gamelib:factions.obj
 0001:000c10d0       ?GetIndex@?$enum_table@W4particle_visibility_type@particle_emitter@@@@QBEHPBD@Z 004c1810 f i Gamelib:ParticleEmiter.obj
 0001:000c10d0       ?GetIndex@?$enum_table@W4generic_pain_type@@@@QBEHPBD@Z 004c1810 f i Gamelib:DamageField.obj
 0001:000c10d0       ?GetIndex@?$enum_table@W4trigger_ex_spatial_activation_response@trigger_ex_object@@@@QBEHPBD@Z 004c1810 f i Gamelib:TriggerEx_Object.obj
 0001:000c10d0       ?GetIndex@?$enum_table@W4trigger_ex_spatial_types@trigger_ex_object@@@@QBEHPBD@Z 004c1810 f i Gamelib:TriggerEx_Object.obj
 0001:000c10d0       ?GetIndex@?$enum_table@W4trigger_ex_spatial_activation_types@trigger_ex_object@@@@QBEHPBD@Z 004c1810 f i Gamelib:TriggerEx_Object.obj
 0001:000c10d0       ?GetIndex@?$enum_table@W4property_compare_modes@condition_check_property@@@@QBEHPBD@Z 004c1810 f i Gamelib:condition_check_property.obj
 0001:000c10d0       ?GetIndex@?$enum_table@H@@QBEHPBD@Z 004c1810 f i Gamelib:Corpse.obj
 0001:000c10d0       ?GetIndex@?$enum_table@W4action_ex_types@actions_ex_base@@@@QBEHPBD@Z 004c1810 f i Gamelib:character_task.obj
 0001:000c10d0       ?GetIndex@?$enum_table@W4codes@condition_check_global@@@@QBEHPBD@Z 004c1810 f i Gamelib:condition_check_global.obj
 0001:000c10d0       ?GetIndex@?$enum_table@W4eDialogActors@character@@@@QBEHPBD@Z 004c1810 f i Gamelib:Character.obj
 0001:000c10d0       ?GetIndex@?$enum_table@W4char_states_to_transition_to@character_task_set@@@@QBEHPBD@Z 004c1810 f i Gamelib:character_task_set.obj
 0001:000c10d0       ?GetIndex@?$enum_table@W4handle_commands@character_task@@@@QBEHPBD@Z 004c1810 f i Gamelib:character_task_set.obj
 0001:000c10d0       ?GetIndex@?$enum_table@W4type@mutanttank_attack_state@@@@QBEHPBD@Z 004c1810 f i Gamelib:MutantTank_Attack_State.obj
 0001:000c10d0       ?GetIndex@?$enum_table@W4damage_field_spatial_types@damage_field@@@@QBEHPBD@Z 004c1810 f i Gamelib:DamageField.obj
 0001:000c10d0       ?GetIndex@?$enum_table@W4eCoverDesire@character_attack_state@@@@QBEHPBD@Z 004c1810 f i Gamelib:Character_Attack_State.obj
 0001:000c10d0       ?GetIndex@?$enum_table@W4particle_logic_type@particle_emitter@@@@QBEHPBD@Z 004c1810 f i Gamelib:ParticleEmiter.obj
 0001:000c10d0       ?GetIndex@?$enum_table@W4particle_endroutine_type@particle_emitter@@@@QBEHPBD@Z 004c1810 f i Gamelib:ParticleEmiter.obj
 0001:000c1130       ?IsValid@vector3@@QBEHXZ   004c1870 f i Gamelib:SkinPropSurface.obj
 0001:000c1190       ?GetRTTI@skin_prop_surface@@SAABUrtti@@XZ 004c18d0 f i Gamelib:SkinPropSurface.obj
 0001:000c11f0       ?GetObjectRTTI@skin_prop_surface@@UBEABUrtti@@XZ 004c1930 f i Gamelib:SkinPropSurface.obj
 0001:000c1200       ?GetMaterial@skin_prop_surface@@UBEHXZ 004c1940 f i Gamelib:SkinPropSurface.obj
 0001:000c1210       ?GetAnimGroupHandlePtr@skin_prop_surface@@UAEPAU?$rhandle@Vanim_group@@@@XZ 004c1950 f i Gamelib:SkinPropSurface.obj
 0001:000c1220       ?GetFloorColor@skin_prop_surface@@IAE?AUxcolor@@XZ 004c1960 f i Gamelib:SkinPropSurface.obj
 0001:000c1250       ?Create@skin_prop_surface_desc@@UAEPAVobject@@XZ 004c1990 f i Gamelib:SkinPropSurface.obj
 0001:000c1270       ?GetTypeDesc@skin_prop_surface@@UBEABVobject_desc@@XZ 004c19b0 f   Gamelib:SkinPropSurface.obj
 0001:000c1280       ??0skin_prop_surface@@QAE@XZ 004c19c0 f   Gamelib:SkinPropSurface.obj
 0001:000c13d0       ??_Eskin_prop_surface@@UAEPAXI@Z 004c1b10 f i Gamelib:SkinPropSurface.obj
 0001:000c13d0       ??_Gskin_prop_surface@@UAEPAXI@Z 004c1b10 f i Gamelib:SkinPropSurface.obj
 0001:000c1430       ?GetLocalBBox@skin_prop_surface@@UBE?AUbbox@@XZ 004c1b70 f   Gamelib:SkinPropSurface.obj
 0001:000c15d0       ?OnRender@skin_prop_surface@@MAEXXZ 004c1d10 f   Gamelib:SkinPropSurface.obj
 0001:000c16d0       ?OnColCheck@skin_prop_surface@@MAEXXZ 004c1e10 f   Gamelib:SkinPropSurface.obj
 0001:000c1730       ?OnMove@skin_prop_surface@@MAEXABTvector3@@@Z 004c1e70 f   Gamelib:SkinPropSurface.obj
 0001:000c17b0       ?OnTransform@skin_prop_surface@@MAEXABTmatrix4@@@Z 004c1ef0 f   Gamelib:SkinPropSurface.obj
 0001:000c1830       ?OnAdvanceLogic@skin_prop_surface@@MAEXM@Z 004c1f70 f   Gamelib:SkinPropSurface.obj
 0001:000c18c0       ?OnEnumProp@skin_prop_surface@@UAEXAAVprop_enum@@@Z 004c2000 f   Gamelib:SkinPropSurface.obj
 0001:000c1b10       ?OnProperty@skin_prop_surface@@UAEHAAVprop_query@@@Z 004c2250 f   Gamelib:SkinPropSurface.obj
 0001:000c1ef0       ?EnumAttachPoints@skin_prop_surface@@UBEXAAVxstring@@@Z 004c2630 f   Gamelib:SkinPropSurface.obj
 0001:000c1fb0       ?GetAttachPointIDByName@skin_prop_surface@@UBEHPBD@Z 004c26f0 f   Gamelib:SkinPropSurface.obj
 0001:000c2040       ?GetAttachPointNameByID@skin_prop_surface@@UBE?AVxstring@@H@Z 004c2780 f   Gamelib:SkinPropSurface.obj
 0001:000c20d0       ?OnAttachedMove@skin_prop_surface@@UAEXHABTmatrix4@@@Z 004c2810 f   Gamelib:SkinPropSurface.obj
 0001:000c2290       ?GetAttachPointData@skin_prop_surface@@UAEHHAATmatrix4@@I@Z 004c29d0 f   Gamelib:SkinPropSurface.obj
 0001:000c2440       ?GetRTTI@notepad_object@@SAABUrtti@@XZ 004c2b80 f i Gamelib:notepad_object.obj
 0001:000c24a0       ?GetObjectRTTI@notepad_object@@UBEABUrtti@@XZ 004c2be0 f i Gamelib:notepad_object.obj
 0001:000c24b0       ?Create@notepad_object_desc@@UAEPAVobject@@XZ 004c2bf0 f i Gamelib:notepad_object.obj
 0001:000c24d0       ?GetTypeDesc@notepad_object@@UBEABVobject_desc@@XZ 004c2c10 f   Gamelib:notepad_object.obj
 0001:000c24e0       ??0notepad_object@@QAE@XZ  004c2c20 f   Gamelib:notepad_object.obj
 0001:000c2570       ?OnEnumProp@notepad_object@@UAEXAAVprop_enum@@@Z 004c2cb0 f   Gamelib:notepad_object.obj
 0001:000c25f0       ?OnProperty@notepad_object@@UAEHAAVprop_query@@@Z 004c2d30 f   Gamelib:notepad_object.obj
 0001:000c27a0       ?GetObjectRTTI@particle_event_emitter@@UBEABUrtti@@XZ 004c2ee0 f i Gamelib:ParticleEventEmitter.obj
 0001:000c27b0       ?GetParentGuid@particle_event_emitter@@UAE?AUguid@@XZ 004c2ef0 f i Gamelib:ParticleEventEmitter.obj
 0001:000c27d0       ?Create@particle_event_emitter_desc@@UAEPAVobject@@XZ 004c2f10 f i Gamelib:ParticleEventEmitter.obj
 0001:000c27f0       ?GetTypeDesc@particle_event_emitter@@UBEABVobject_desc@@XZ 004c2f30 f   Gamelib:ParticleEventEmitter.obj
 0001:000c2800       ??0particle_event_emitter@@QAE@XZ 004c2f40 f   Gamelib:ParticleEventEmitter.obj
 0001:000c2870       ?OnAdvanceLogic@particle_event_emitter@@UAEXM@Z 004c2fb0 f   Gamelib:ParticleEventEmitter.obj
 0001:000c2900       ?StartEmitter@particle_event_emitter@@QAEXPBDABTvector3@@1GUguid@@HH@Z 004c3040 f   Gamelib:ParticleEventEmitter.obj
 0001:000c29b0       ?OnMove@particle_event_emitter@@UAEXABTvector3@@@Z 004c30f0 f   Gamelib:ParticleEventEmitter.obj
 0001:000c2a20       ?OnTransform@particle_event_emitter@@UAEXABTmatrix4@@@Z 004c3160 f   Gamelib:ParticleEventEmitter.obj
 0001:000c2a90       ?GetObjectRTTI@projector_obj@@UBEABUrtti@@XZ 004c31d0 f i Gamelib:Projector.obj
 0001:000c2aa0       ?Create@projector_obj_desc@@UAEPAVobject@@XZ 004c31e0 f i Gamelib:Projector.obj
 0001:000c2ac0       ?GetTypeDesc@projector_obj@@UBEABVobject_desc@@XZ 004c3200 f   Gamelib:Projector.obj
 0001:000c2ad0       ??0projector_obj@@QAE@XZ   004c3210 f   Gamelib:Projector.obj
 0001:000c2b30       ?OnRender@projector_obj@@MAEXXZ 004c3270 f   Gamelib:Projector.obj
 0001:000c2b80       ?GetLocalBBox@projector_obj@@UBE?AUbbox@@XZ 004c32c0 f   Gamelib:Projector.obj
 0001:000c3010       ?OnEnumProp@projector_obj@@UAEXAAVprop_enum@@@Z 004c3750 f   Gamelib:Projector.obj
 0001:000c3080       ?OnProperty@projector_obj@@UAEHAAVprop_query@@@Z 004c37c0 f   Gamelib:Projector.obj
 0001:000c32a0       ?GetObjectRTTI@anim_surface@@UBEABUrtti@@XZ 004c39e0 f i Gamelib:AnimSurface.obj
 0001:000c32a0       ?GetRTTI@anim_surface@@SAABUrtti@@XZ 004c39e0 f i Gamelib:AlienGlob.obj
 0001:000c32d0       ?Create@anim_surface_desc@@UAEPAVobject@@XZ 004c3a10 f i Gamelib:AnimSurface.obj
 0001:000c32f0       ?GetTypeDesc@anim_surface@@UBEABVobject_desc@@XZ 004c3a30 f   Gamelib:AnimSurface.obj
 0001:000c3300       ??0anim_surface@@QAE@XZ    004c3a40 f   Gamelib:AnimSurface.obj
 0001:000c33a0       ?OnAdvanceLogic@anim_surface@@UAEXM@Z 004c3ae0 f   Gamelib:AnimSurface.obj
 0001:000c3480       ?OnRender@anim_surface@@MAEXXZ 004c3bc0 f   Gamelib:AnimSurface.obj
 0001:000c3520       ?OnColCheck@anim_surface@@MAEXXZ 004c3c60 f   Gamelib:AnimSurface.obj
 0001:000c3600       ?OnEnumProp@anim_surface@@UAEXAAVprop_enum@@@Z 004c3d40 f   Gamelib:AnimSurface.obj
 0001:000c3860       ?OnProperty@anim_surface@@UAEHAAVprop_query@@@Z 004c3fa0 f   Gamelib:AnimSurface.obj
 0001:000c3cc0       ?GetBoneL2W@turret@@UAEXHAATmatrix4@@@Z 004c4400 f   Gamelib:Turret.obj
 0001:000c3cc0       ?GetBoneL2W@anim_surface@@UAEXHAATmatrix4@@@Z 004c4400 f   Gamelib:AnimSurface.obj
 0001:000c3d60       ?GetLocalBBox@super_destructible_obj@@UBE?AUbbox@@XZ 004c44a0 f   Gamelib:SuperDestructible.obj
 0001:000c3d60       ?GetLocalBBox@anim_surface@@UBE?AUbbox@@XZ 004c44a0 f   Gamelib:AnimSurface.obj
 0001:000c3d60       ?GetLocalBBox@turret@@UBE?AUbbox@@XZ 004c44a0 f   Gamelib:Turret.obj
 0001:000c3e20       ?EnumAttachPoints@anim_surface@@UBEXAAVxstring@@@Z 004c4560 f   Gamelib:AnimSurface.obj
 0001:000c3ee0       ?GetAttachPointIDByName@anim_surface@@UBEHPBD@Z 004c4620 f   Gamelib:AnimSurface.obj
 0001:000c3f70       ?GetAttachPointNameByID@anim_surface@@UBE?AVxstring@@H@Z 004c46b0 f   Gamelib:AnimSurface.obj
 0001:000c4000       ?OnAttachedMove@anim_surface@@UAEXHABTmatrix4@@@Z 004c4740 f   Gamelib:AnimSurface.obj
 0001:000c41c0       ?GetAttachPointData@anim_surface@@UAEHHAATmatrix4@@I@Z 004c4900 f   Gamelib:AnimSurface.obj
 0001:000c4370       ?GetObjectRTTI@group@@UBEABUrtti@@XZ 004c4ab0 f i Gamelib:Group.obj
 0001:000c4380       ?GetLocalBBox@camera@@UBE?AUbbox@@XZ 004c4ac0 f i Gamelib:Camera.obj
 0001:000c4380       ?GetLocalBBox@group@@UBE?AUbbox@@XZ 004c4ac0 f i Gamelib:Group.obj
 0001:000c4380       ?GetLocalBBox@animation_obj@@UBE?AUbbox@@XZ 004c4ac0 f i Gamelib:Animation_obj.obj
 0001:000c4380       ?GetLocalBBox@manipulator@@UBE?AUbbox@@XZ 004c4ac0 f i Gamelib:Manipulator.obj
 0001:000c4380       ?GetLocalBBox@pip@@UBE?AUbbox@@XZ 004c4ac0 f i Gamelib:Pip.obj
 0001:000c4380       ?GetLocalBBox@coupler@@UBE?AUbbox@@XZ 004c4ac0 f i Gamelib:Coupler.obj
 0001:000c43c0       ?Create@group_desc@@UAEPAVobject@@XZ 004c4b00 f i Gamelib:Group.obj
 0001:000c4410       ??0group@@QAE@XZ           004c4b50 f   Gamelib:Group.obj
 0001:000c4450       ??_Egroup@@UAEPAXI@Z       004c4b90 f i Gamelib:Group.obj
 0001:000c4450       ??_Ggroup@@UAEPAXI@Z       004c4b90 f i Gamelib:Group.obj
 0001:000c44a0       ?GetTypeDesc@group@@UBEABVobject_desc@@XZ 004c4be0 f   Gamelib:Group.obj
 0001:000c44b0       ?OnEnumProp@group@@UAEXAAVprop_enum@@@Z 004c4bf0 f   Gamelib:Group.obj
 0001:000c4750       ?OnProperty@group@@UAEHAAVprop_query@@@Z 004c4e90 f   Gamelib:Group.obj
 0001:000c4ce0       ?ValidateChildren@group@@IAEXXZ 004c5420 f   Gamelib:Group.obj
 0001:000c4de0       ?AddGuid@group@@QAEHUguid@@@Z 004c5520 f   Gamelib:Group.obj
 0001:000c4ec0       ?RemoveGuid@group@@QAEHUguid@@@Z 004c5600 f   Gamelib:Group.obj
 0001:000c4f50       ?ContainsGuid@group@@QAEHUguid@@@Z 004c5690 f   Gamelib:Group.obj
 0001:000c4fe0       ?GetChild@group@@QAE?AUguid@@HW4type@object@@@Z 004c5720 f   Gamelib:Group.obj
 0001:000c50b0       ?OnActivate@group@@UAEXH@Z 004c57f0 f   Gamelib:Group.obj
 0001:000c5140       ?OnPain@group@@UAEXABVpain@@@Z 004c5880 f   Gamelib:Group.obj
 0001:000c5220       ?DestroyAll@group@@IAEXXZ  004c5960 f   Gamelib:Group.obj
 0001:000c52c0       ?HasLivingActors@group@@IAEHXZ 004c5a00 f   Gamelib:Group.obj
 0001:000c53b0       ?Delete@?$xarray@Uchild@group@@@@QAEXHH@Z 004c5af0 f i Gamelib:Group.obj
 0001:000c5420       ?Append@?$xarray@Uchild@group@@@@QAEAAUchild@group@@XZ 004c5b60 f i Gamelib:Group.obj
 0001:000c54e0       ?SetCount@?$xarray@Uchild@group@@@@QAEXH@Z 004c5c20 f i Gamelib:Group.obj
 0001:000c5500       ??0child@group@@QAE@XZ     004c5c40 f i Gamelib:Group.obj
 0001:000c5520       ?SetCapacity@?$xarray@Uchild@group@@@@QAEXH@Z 004c5c60 f i Gamelib:Group.obj
 0001:000c55d0       ?GetRTTI@invisible_wall_obj@@SAABUrtti@@XZ 004c5d10 f i Gamelib:InvisWall.obj
 0001:000c5630       ?GetObjectRTTI@invisible_wall_obj@@UBEABUrtti@@XZ 004c5d70 f i Gamelib:InvisWall.obj
 0001:000c5640       ?Create@invisible_wall_desc@@UAEPAVobject@@XZ 004c5d80 f i Gamelib:InvisWall.obj
 0001:000c56a0       ?GetTypeDesc@invisible_wall_obj@@UBEABVobject_desc@@XZ 004c5de0 f   Gamelib:InvisWall.obj
 0001:000c56b0       ??0invisible_wall_obj@@QAE@XZ 004c5df0 f   Gamelib:InvisWall.obj
 0001:000c5700       ?GetLocalBBox@invisible_wall_obj@@UBE?AUbbox@@XZ 004c5e40 f   Gamelib:InvisWall.obj
 0001:000c57b0       ?OnDebugRender@invisible_wall_obj@@MAEXXZ 004c5ef0 f   Gamelib:InvisWall.obj
 0001:000c58d0       ?OnRenderTransparent@invisible_wall_obj@@MAEXXZ 004c6010 f   Gamelib:InvisWall.obj
 0001:000c59c0       ?OnEnumProp@invisible_wall_obj@@UAEXAAVprop_enum@@@Z 004c6100 f   Gamelib:InvisWall.obj
 0001:000c5a20       ?OnProperty@invisible_wall_obj@@UAEHAAVprop_query@@@Z 004c6160 f   Gamelib:InvisWall.obj
 0001:000c5b90       ?OnColCheck@invisible_wall_obj@@MAEXXZ 004c62d0 f   Gamelib:InvisWall.obj
 0001:000c5f90       ?GetOccluderPoints@invisible_wall_obj@@QBEHPATvector3@@@Z 004c66d0 f   Gamelib:InvisWall.obj
 0001:000c60d0       ?OnMove@invisible_wall_obj@@UAEXABTvector3@@@Z 004c6810 f   Gamelib:InvisWall.obj
 0001:000c6120       ?OnTransform@invisible_wall_obj@@UAEXABTmatrix4@@@Z 004c6860 f   Gamelib:InvisWall.obj
 0001:000c6170       ?OnPolyCacheGather@invisible_wall_obj@@UAEXXZ 004c68b0 f   Gamelib:InvisWall.obj
 0001:000c74e0       ?OnKill@invisible_wall_obj@@MAEXXZ 004c7c20 f   Gamelib:InvisWall.obj
 0001:000c7530       ?Orthogonalize@matrix4@@QAEXXZ 004c7c70 f i Gamelib:Turret.obj
 0001:000c7770       ?GetRTTI@turret@@SAABUrtti@@XZ 004c7eb0 f i Gamelib:SimpleUtils.obj
 0001:000c7770       ?GetObjectRTTI@turret@@UBEABUrtti@@XZ 004c7eb0 f i Gamelib:Turret.obj
 0001:000c77a0       ?Create@turret_desc@@UAEPAVobject@@XZ 004c7ee0 f i Gamelib:Turret.obj
 0001:000c77c0       ?GetTypeDesc@turret@@UBEABVobject_desc@@XZ 004c7f00 f   Gamelib:Turret.obj
 0001:000c77d0       ??0turret@@QAE@XZ          004c7f10 f   Gamelib:Turret.obj
 0001:000c7cf0       ??_Gturret@@UAEPAXI@Z      004c8430 f i Gamelib:Turret.obj
 0001:000c7cf0       ??_Eturret@@UAEPAXI@Z      004c8430 f i Gamelib:Turret.obj
 0001:000c7d20       ??1turret@@UAE@XZ          004c8460 f   Gamelib:Turret.obj
 0001:000c7e50       ?OnMove@turret@@UAEXABTvector3@@@Z 004c8590 f   Gamelib:Turret.obj
 0001:000c7fa0       ?OnTransform@turret@@UAEXABTmatrix4@@@Z 004c86e0 f   Gamelib:Turret.obj
 0001:000c80f0       ?StopAimingSound@turret@@IAEXXZ 004c8830 f   Gamelib:Turret.obj
 0001:000c83a0       ?OnAdvanceLogic@turret@@UAEXM@Z 004c8ae0 f   Gamelib:Turret.obj
 0001:000c8ad0       ?OnEnterState@turret@@MAEXW4state@1@@Z 004c9210 f   Gamelib:Turret.obj
 0001:000c8ec0       ?GetEntryMarker@turret@@QAE?AUguid@@XZ 004c9600 f   Gamelib:Turret.obj
 0001:000c8fc0       ?GetAnimGroupName@turret@@QAEPBDW4type@object@@@Z 004c9700 f   Gamelib:Turret.obj
 0001:000c9030       ?GetStandBonePosition@turret@@QAE?ATvector3@@XZ 004c9770 f   Gamelib:Turret.obj
 0001:000c90e0       ?ActivateObject@turret@@IAEXUguid@@@Z 004c9820 f   Gamelib:Turret.obj
 0001:000c9110       ?OnRender@turret@@MAEXXZ   004c9850 f   Gamelib:Turret.obj
 0001:000c91c0       ?OnColCheck@turret@@MAEXXZ 004c9900 f   Gamelib:Turret.obj
 0001:000c92b0       ?OnEnumProp@turret@@UAEXAAVprop_enum@@@Z 004c99f0 f   Gamelib:Turret.obj
 0001:000c9690       ?OnProperty@turret@@UAEHAAVprop_query@@@Z 004c9dd0 f   Gamelib:Turret.obj
 0001:000ca800       ?UpdateAnimList@turret@@IAEXXZ 004caf40 f   Gamelib:Turret.obj
 0001:000caae0       ?Fire@turret@@MAEXXZ       004cb220 f   Gamelib:Turret.obj
 0001:000caaf0       ?GetObjectAimAt@turret@@IAE?ATvector3@@Uguid@@W4eOffsetPos@actor@@@Z 004cb230 f   Gamelib:Turret.obj
 0001:000cabf0       ?GetTargetSightYaw@turret@@IAEHUguid@@AAM@Z 004cb330 f   Gamelib:Turret.obj
 0001:000cac50       ?DistToObjectAimAt@turret@@IAEMUguid@@@Z 004cb390 f   Gamelib:Turret.obj
 0001:000cacd0       ?CanSenseTarget@turret@@MAEHXZ 004cb410 f   Gamelib:Turret.obj
 0001:000cad50       ?CanFireAtTarget@turret@@MAEHXZ 004cb490 f   Gamelib:Turret.obj
 0001:000cae10       ?IsTargetInRange@turret@@MAEHXZ 004cb550 f   Gamelib:Turret.obj
 0001:000caea0       ?CheckLOS@turret@@IAEHABTvector3@@I@Z 004cb5e0 f   Gamelib:Turret.obj
 0001:000cafb0       ?CheckLOS@turret@@IAEHUguid@@I@Z 004cb6f0 f   Gamelib:Turret.obj
 0001:000cb090       ?UpdateAim@turret@@IAEXMMM@Z 004cb7d0 f   Gamelib:Turret.obj
 0001:000cb740       ?IsAimedAt@turret@@IAEHMM@Z 004cbe80 f   Gamelib:Turret.obj
 0001:000cb810       ?LookForTarget@turret@@IAEHXZ 004cbf50 f   Gamelib:Turret.obj
 0001:000cbc80       ?GetAimScoreForPoint@turret@@IAEMABTvector3@@@Z 004cc3c0 f   Gamelib:Turret.obj
 0001:000cc050       ?SetTargetGuid@turret@@UAEXUguid@@@Z 004cc790 f   Gamelib:Turret.obj
 0001:000cc120       ?IsTargetValid@turret@@IAEHXZ 004cc860 f   Gamelib:Turret.obj
 0001:000cc190       ?TrackTarget@turret@@MAE?AW4tracking_status@1@M@Z 004cc8d0 f   Gamelib:Turret.obj
 0001:000cc5f0       ?LimitPitchYaw@turret@@IAEXAAM0@Z 004ccd30 f   Gamelib:Turret.obj
 0001:000cc7a0       ?GetTargetPos@turret@@MAE?ATvector3@@XZ 004ccee0 f   Gamelib:Turret.obj
 0001:000cc7d0       ?UpdateTrackControllers@turret@@IAEXXZ 004ccf10 f   Gamelib:Turret.obj
 0001:000cc880       ?GetSensorInfo@turret@@QAEXAATvector3@@AAUradian3@@@Z 004ccfc0 f   Gamelib:Turret.obj
 0001:000ccb10       ?OnEvent@turret@@MAEXABUevent@@@Z 004cd250 f   Gamelib:Turret.obj
 0001:000cd530       ?OnPain@turret@@UAEXABVpain@@@Z 004cdc70 f   Gamelib:Turret.obj
 0001:000cd600       ?TakeDamage@turret@@MAEXABVpain@@@Z 004cdd40 f   Gamelib:Turret.obj
 0001:000cd7f0       ?CalculateLinearAimDirection@turret@@IAEHABTvector3@@000MMMAAT2@1@Z 004cdf30 f   Gamelib:Turret.obj
 0001:000cdc10       ?EnumAttachPoints@turret@@MBEXAAVxstring@@@Z 004ce350 f   Gamelib:Turret.obj
 0001:000cdcd0       ?GetAttachPointIDByName@turret@@MBEHPBD@Z 004ce410 f   Gamelib:Turret.obj
 0001:000cdd80       ?GetAttachPointNameByID@turret@@MBE?AVxstring@@H@Z 004ce4c0 f   Gamelib:Turret.obj
 0001:000cde30       ?OnAttachedMove@turret@@MAEXHABTmatrix4@@@Z 004ce570 f   Gamelib:Turret.obj
 0001:000cdfc0       ?GetAttachPointData@turret@@MAEHHAATmatrix4@@I@Z 004ce700 f   Gamelib:Turret.obj
 0001:000ce330       ?SetGunner@turret@@QAEXUguid@@@Z 004cea70 f   Gamelib:Turret.obj
 0001:000ce3c0       ?OnPolyCacheGather@turret@@UAEXXZ 004ceb00 f   Gamelib:Turret.obj
 0001:000ce3c0       ?OnPolyCacheGather@anim_surface@@UAEXXZ 004ceb00 f   Gamelib:AnimSurface.obj
 0001:000ce4a0       ?OrbEnter@turret@@QAEHUguid@@@Z 004cebe0 f   Gamelib:Turret.obj
 0001:000ce510       ?CanBeReservedByMe@turret@@QAEHUguid@@@Z 004cec50 f   Gamelib:Turret.obj
 0001:000ce560       ?Reserve@turret@@QAEHUguid@@@Z 004ceca0 f   Gamelib:Turret.obj
 0001:000ce5c0       ?GetEffectiveRadiusFire@turret@@IAEMXZ 004ced00 f   Gamelib:Turret.obj
 0001:000ce5f0       ?GetEffectiveRadiusSense@turret@@IAEMXZ 004ced30 f   Gamelib:Turret.obj
 0001:000ce620       ?LaunchOrb@turret@@IAEXXZ  004ced60 f   Gamelib:Turret.obj
 0001:000ce690       ?TryToFireAtTarget@turret@@MAEXXZ 004cedd0 f   Gamelib:Turret.obj
 0001:000ce700       ?GetLogicalName@turret@@UAEPBDXZ 004cee40 f   Gamelib:Turret.obj
 0001:000ce720       ?GetObjectRTTI@weapon_bbg@@UBEABUrtti@@XZ 004cee60 f i Gamelib:WeaponBBG.obj
 0001:000ce720       ?GetRTTI@weapon_bbg@@SAABUrtti@@XZ 004cee60 f i Gamelib:WeaponBBG.obj
 0001:000ce750       ?GetLogicalName@weapon_bbg@@UAEPBDXZ 004cee90 f i Gamelib:WeaponBBG.obj
 0001:000ce760       ?Create@weapon_bbg_desc@@UAEPAVobject@@XZ 004ceea0 f i Gamelib:WeaponBBG.obj
 0001:000ce780       ?GetTypeDesc@weapon_bbg@@UBEABVobject_desc@@XZ 004ceec0 f   Gamelib:WeaponBBG.obj
 0001:000ce790       ??0weapon_bbg@@QAE@XZ      004ceed0 f   Gamelib:WeaponBBG.obj
 0001:000cea10       ??_Eweapon_bbg@@UAEPAXI@Z  004cf150 f i Gamelib:WeaponBBG.obj
 0001:000cea10       ??_Gweapon_bbg@@UAEPAXI@Z  004cf150 f i Gamelib:WeaponBBG.obj
 0001:000cea40       ??1weapon_bbg@@UAE@XZ      004cf180 f   Gamelib:WeaponBBG.obj
 0001:000ceab0       ?OnRenderTransparent@weapon_bbg@@UAEXXZ 004cf1f0 f   Gamelib:WeaponBBG.obj
 0001:000cf190       ??0struct_CachedQuadInfo@?O@??OnRenderTransparent@weapon_bbg@@UAEXXZ@QAE@XZ 004cf8d0 f i Gamelib:WeaponBBG.obj
 0001:000cf210       ?CheckLaserHitObject@weapon_bbg@@UAEHPAVobject@@@Z 004cf950 f   Gamelib:WeaponBBG.obj
 0001:000cf280       ?PlayLaserSound@weapon_bbg@@IAEXXZ 004cf9c0 f   Gamelib:WeaponBBG.obj
 0001:000cf2b0       ?KillLaserSound@weapon_bbg@@IAEXXZ 004cf9f0 f   Gamelib:WeaponBBG.obj
 0001:000cf340       ?GetLaserReflectVector@weapon_bbg@@UAE?ATvector3@@PAVplayer@@ABT2@1ABUcollision@collision_mgr@@@Z 004cfa80 f   Gamelib:WeaponBBG.obj
 0001:000cf5c0       ?OnEnumProp@weapon_bbg@@UAEXAAVprop_enum@@@Z 004cfd00 f   Gamelib:WeaponBBG.obj
 0001:000cf690       ?OnProperty@weapon_bbg@@UAEHAAVprop_query@@@Z 004cfdd0 f   Gamelib:WeaponBBG.obj
 0001:000cfa60       ?InitWeapon@weapon_bbg@@UAEXPBD0ABTvector3@@ABW4render_state@new_weapon@@ABUguid@@@Z 004d01a0 f   Gamelib:WeaponBBG.obj
 0001:000cfb10       ?InitWeapon@weapon_bbg@@UAEXABTvector3@@W4render_state@new_weapon@@Uguid@@@Z 004d0250 f   Gamelib:WeaponBBG.obj
 0001:000cfbc0       ?ShouldDrawReticle@weapon_bbg@@UAEHXZ 004d0300 f   Gamelib:WeaponBBG.obj
 0001:000cfbc0       ?ShouldDrawReticle@weapon_desert_eagle@@UAEHXZ 004d0300 f   Gamelib:WeaponDesertEagle.obj
 0001:000cfbd0       ?IncrementZoom@weapon_bbg@@UAEHXZ 004d0310 f   Gamelib:WeaponBBG.obj
 0001:000cfc00       ?RenderReloadFX@weapon_bbg@@MAEXXZ 004d0340 f   Gamelib:WeaponBBG.obj
 0001:000cfd60       ?OnAdvanceLogic@weapon_bbg@@UAEXM@Z 004d04a0 f   Gamelib:WeaponBBG.obj
 0001:000cff60       ?UpdateReticle@weapon_bbg@@MAEXM@Z 004d06a0 f   Gamelib:WeaponBBG.obj
 0001:000d0020       ?GetLaserEmitPosition@weapon_bbg@@UAE?ATvector3@@XZ 004d0760 f   Gamelib:WeaponBBG.obj
 0001:000d00b0       ?GetFiringStartPosition@weapon_bbg@@UAEHAATvector3@@@Z 004d07f0 f   Gamelib:WeaponBBG.obj
 0001:000d0160       ?FireWeaponProtected@weapon_bbg@@MAEHABTvector3@@0ABMABUradian3@@ABUguid@@H@Z 004d08a0 f   Gamelib:WeaponBBG.obj
 0001:000d0410       ?FireSecondaryProtected@weapon_bbg@@MAEHABTvector3@@0ABMABUradian3@@ABUguid@@H@Z 004d0b50 f   Gamelib:WeaponBBG.obj
 0001:000d0410       ?FireSecondaryProtected@new_weapon@@MAEHABTvector3@@0ABMABUradian3@@ABUguid@@H@Z 004d0b50 f   Gamelib:NewWeapon.obj
 0001:000d0410       ?FireWeaponProtected@new_weapon@@MAEHABTvector3@@0ABMABUradian3@@ABUguid@@H@Z 004d0b50 f   Gamelib:NewWeapon.obj
 0001:000d0420       ?FireNPCWeaponProtected@weapon_bbg@@MAEHABTvector3@@0ABUguid@@MH@Z 004d0b60 f   Gamelib:WeaponBBG.obj
 0001:000d0800       ?FireGhostPrimary@weapon_bbg@@UAEHHHAATvector3@@@Z 004d0f40 f   Gamelib:WeaponBBG.obj
 0001:000d09f0       ?FireGhostSecondary@weapon_bbg@@UAEHH@Z 004d1130 f   Gamelib:WeaponBBG.obj
 0001:000d0bb0       ?BeginAltRampUp@weapon_bbg@@UAEXXZ 004d12f0 f   Gamelib:WeaponBBG.obj
 0001:000d0c00       ?EndAltRampUp@weapon_bbg@@UAEXHH@Z 004d1340 f   Gamelib:WeaponBBG.obj
 0001:000d0c50       ?EndAltHold@weapon_bbg@@UAEXH@Z 004d1390 f   Gamelib:WeaponBBG.obj
 0001:000d0ca0       ?CanFire@weapon_bbg@@UAEHH@Z 004d13e0 f   Gamelib:WeaponBBG.obj
 0001:000d0ce0       ?ReleaseAudio@weapon_bbg@@UAEXXZ 004d1420 f   Gamelib:WeaponBBG.obj
 0001:000d0d20       ?InitReloadFx@weapon_bbg@@IAEXXZ 004d1460 f   Gamelib:WeaponBBG.obj
 0001:000d0e20       ?AdvanceReloadFx@weapon_bbg@@IAEXM@Z 004d1560 f   Gamelib:WeaponBBG.obj
 0001:000d1390       ?DestroyReloadFx@weapon_bbg@@IAEXXZ 004d1ad0 f   Gamelib:WeaponBBG.obj
 0001:000d1420       ?SuspendReloadFX@weapon_bbg@@QAEXXZ 004d1b60 f   Gamelib:WeaponBBG.obj
 0001:000d14b0       ?BeginSwitchTo@weapon_bbg@@UAEXXZ 004d1bf0 f   Gamelib:WeaponBBG.obj
 0001:000d14b0       ?BeginSwitchTo@weapon_msn@@UAEXXZ 004d1bf0 f   Gamelib:WeaponMSN.obj
 0001:000d14c0       ?BeginSwitchFrom@weapon_bbg@@UAEXXZ 004d1c00 f   Gamelib:WeaponBBG.obj
 0001:000d14e0       ?BeginIdle@weapon_bbg@@UAEXH@Z 004d1c20 f   Gamelib:WeaponBBG.obj
 0001:000d1510       ?EndIdle@weapon_bbg@@UAEXXZ 004d1c50 f   Gamelib:WeaponBBG.obj
 0001:000d1530       ?ClearAmmo@weapon_msn@@UAEXABW4ammo_priority@new_weapon@@@Z 004d1c70 f   Gamelib:WeaponMSN.obj
 0001:000d1530       ?ClearAmmo@weapon_bbg@@UAEXABW4ammo_priority@new_weapon@@@Z 004d1c70 f   Gamelib:WeaponBBG.obj
 0001:000d1560       ?DecrementAmmo@weapon_bbg@@UAEXABW4ammo_priority@new_weapon@@ABH@Z 004d1ca0 f   Gamelib:WeaponBBG.obj
 0001:000d15f0       ?FillAmmo@weapon_bbg@@UAEXXZ 004d1d30 f   Gamelib:WeaponBBG.obj
 0001:000d15f0       ?FillAmmo@weapon_tra@@UAEXXZ 004d1d30 f   Gamelib:WeaponTRA.obj
 0001:000d15f0       ?FillAmmo@weapon_msn@@UAEXXZ 004d1d30 f   Gamelib:WeaponMSN.obj
 0001:000d1610       ?GetWeaponCollisionOffset@weapon_bbg@@IAE?ATvector3@@XZ 004d1d50 f   Gamelib:WeaponBBG.obj
 0001:000d16a0       ?Create@generic_desc@@UAEPAVobject@@XZ 004d1de0 f i Gamelib:GenericNPC.obj
 0001:000d16c0       ?OnProperty@god_desc@@UAEHAAVprop_query@@@Z 004d1e00 f i Gamelib:God.obj
 0001:000d16c0       ?OnProperty@generic_desc@@UAEHAAVprop_query@@@Z 004d1e00 f i Gamelib:GenericNPC.obj
 0001:000d16c0       ?OnProperty@soldier_desc@@UAEHAAVprop_query@@@Z 004d1e00 f i Gamelib:Soldier.obj
 0001:000d16c0       ?OnProperty@hazmat_desc@@UAEHAAVprop_query@@@Z 004d1e00 f i Gamelib:Soldier.obj
 0001:000d16e0       ?GetTypeDesc@genericNPC@@UBEABVobject_desc@@XZ 004d1e20 f   Gamelib:GenericNPC.obj
 0001:000d16f0       ??0genericNPC@@QAE@XZ      004d1e30 f   Gamelib:GenericNPC.obj
 0001:000d1840       ??_EgenericNPC@@UAEPAXI@Z  004d1f80 f i Gamelib:GenericNPC.obj
 0001:000d1840       ??_GgenericNPC@@UAEPAXI@Z  004d1f80 f i Gamelib:GenericNPC.obj
 0001:000d1870       ??1genericNPC@@UAE@XZ      004d1fb0 f   Gamelib:GenericNPC.obj
 0001:000d18e0       ?GetRTTI@alien_shield@@SAABUrtti@@XZ 004d2020 f i Gamelib:AlienShield.obj
 0001:000d1940       ?GetObjectRTTI@alien_shield@@UBEABUrtti@@XZ 004d2080 f i Gamelib:AlienShield.obj
 0001:000d1950       ?GetLogicalName@alien_shield@@UAEPBDXZ 004d2090 f i Gamelib:AlienShield.obj
 0001:000d1960       ?Create@alien_shield_desc@@UAEPAVobject@@XZ 004d20a0 f i Gamelib:AlienShield.obj
 0001:000d1980       ?GetTypeDesc@alien_shield@@UBEABVobject_desc@@XZ 004d20c0 f   Gamelib:AlienShield.obj
 0001:000d1990       ??0alien_shield@@QAE@XZ    004d20d0 f   Gamelib:AlienShield.obj
 0001:000d1d80       ??_Galien_shield@@UAEPAXI@Z 004d24c0 f i Gamelib:AlienShield.obj
 0001:000d1d80       ??_Ealien_shield@@UAEPAXI@Z 004d24c0 f i Gamelib:AlienShield.obj
 0001:000d1db0       ??1alien_shield@@UAE@XZ    004d24f0 f   Gamelib:AlienShield.obj
 0001:000d1e80       ?GetLocalBBox@alien_shield@@UBE?AUbbox@@XZ 004d25c0 f   Gamelib:AlienShield.obj
 0001:000d1f00       ?OnAdvanceLogic@alien_shield@@UAEXM@Z 004d2640 f   Gamelib:AlienShield.obj
 0001:000d27d0       ?OnColCheck@alien_shield@@UAEXXZ 004d2f10 f   Gamelib:AlienShield.obj
 0001:000d28c0       ?OnRenderTransparent@alien_shield@@UAEXXZ 004d3000 f   Gamelib:AlienShield.obj
 0001:000d2a20       ?OnEnumProp@alien_shield@@UAEXAAVprop_enum@@@Z 004d3160 f   Gamelib:AlienShield.obj
 0001:000d2fd0       ?OnProperty@alien_shield@@UAEHAAVprop_query@@@Z 004d3710 f   Gamelib:AlienShield.obj
 0001:000d35a0       ?OnPain@alien_shield@@UAEXABVpain@@@Z 004d3ce0 f   Gamelib:AlienShield.obj
 0001:000d4090       ?OnActivate@alien_shield@@UAEXH@Z 004d47d0 f   Gamelib:AlienShield.obj
 0001:000d4220       ?SwitchStage@alien_shield@@IAEXH@Z 004d4960 f   Gamelib:AlienShield.obj
 0001:000d42b0       ?DeactivateCurrentStage@alien_shield@@IAEXXZ 004d49f0 f   Gamelib:AlienShield.obj
 0001:000d42f0       ?ActivateCurrentStage@alien_shield@@IAEXXZ 004d4a30 f   Gamelib:AlienShield.obj
 0001:000d4400       ?PlayGrayAnim@alien_shield@@IAEXW4gray_anim@1@@Z 004d4b40 f   Gamelib:AlienShield.obj
 0001:000d4540       ?CreateOrb@alien_shield@@IAEXH@Z 004d4c80 f   Gamelib:AlienShield.obj
 0001:000d46d0       ?ValidHostsExist@alien_shield@@IAEHXZ 004d4e10 f   Gamelib:AlienShield.obj
 0001:000d47e0       ?PlayPainFX@alien_shield@@QAEXABTvector3@@@Z 004d4f20 f   Gamelib:AlienShield.obj
 0001:000d4990       ?GetAimAtPoint@alien_shield@@QAE?ATvector3@@ABT2@@Z 004d50d0 f   Gamelib:AlienShield.obj
 0001:000d4c30       ??0?$object_ptr@Valien_orb@@@@QAE@ABUguid@@@Z 004d5370 f i Gamelib:AlienShield.obj
 0001:000d4c90       ??0?$object_ptr@Vgray@@@@QAE@ABUguid@@@Z 004d53d0 f i Gamelib:AlienShield.obj
 0001:000d4cf0       ?GetObjectRTTI@weapon_tra@@UBEABUrtti@@XZ 004d5430 f i Gamelib:WeaponTRA.obj
 0001:000d4d20       ?GetLogicalName@weapon_tra@@UAEPBDXZ 004d5460 f i Gamelib:WeaponTRA.obj
 0001:000d4d30       ?Create@weapon_tra_desc@@UAEPAVobject@@XZ 004d5470 f i Gamelib:WeaponTRA.obj
 0001:000d4d50       ?GetTypeDesc@weapon_tra@@UBEABVobject_desc@@XZ 004d5490 f   Gamelib:WeaponTRA.obj
 0001:000d4d60       ??0weapon_tra@@QAE@XZ      004d54a0 f   Gamelib:WeaponTRA.obj
 0001:000d4f00       ??_Eweapon_tra@@UAEPAXI@Z  004d5640 f i Gamelib:WeaponTRA.obj
 0001:000d4f00       ??_Gweapon_tra@@UAEPAXI@Z  004d5640 f i Gamelib:WeaponTRA.obj
 0001:000d4f30       ??1weapon_tra@@UAE@XZ      004d5670 f   Gamelib:WeaponTRA.obj
 0001:000d4f80       ?OnEnumProp@weapon_tra@@UAEXAAVprop_enum@@@Z 004d56c0 f   Gamelib:WeaponTRA.obj
 0001:000d5040       ?OnProperty@weapon_tra@@UAEHAAVprop_query@@@Z 004d5780 f   Gamelib:WeaponTRA.obj
 0001:000d5380       ?InitWeapon@weapon_tra@@UAEXPBD0ABTvector3@@ABW4render_state@new_weapon@@ABUguid@@@Z 004d5ac0 f   Gamelib:WeaponTRA.obj
 0001:000d5380       ?InitWeapon@weapon_smp@@UAEXPBD0ABTvector3@@ABW4render_state@new_weapon@@ABUguid@@@Z 004d5ac0 f   Gamelib:WeaponSMP.obj
 0001:000d53c0       ?InitWeapon@weapon_smp@@UAEXABTvector3@@W4render_state@new_weapon@@Uguid@@@Z 004d5b00 f   Gamelib:WeaponSMP.obj
 0001:000d53c0       ?InitWeapon@weapon_tra@@UAEXABTvector3@@W4render_state@new_weapon@@Uguid@@@Z 004d5b00 f   Gamelib:WeaponTRA.obj
 0001:000d53f0       ?OnAdvanceLogic@weapon_tra@@UAEXM@Z 004d5b30 f   Gamelib:WeaponTRA.obj
 0001:000d5500       ?SetupRenderInformation@weapon_tra@@UAEXXZ 004d5c40 f   Gamelib:WeaponTRA.obj
 0001:000d5510       ?FireWeaponProtected@weapon_tra@@MAEHABTvector3@@0ABMABUradian3@@ABUguid@@H@Z 004d5c50 f   Gamelib:WeaponTRA.obj
 0001:000d5630       ?FireSecondaryProtected@weapon_tra@@MAEHABTvector3@@0ABMABUradian3@@ABUguid@@H@Z 004d5d70 f   Gamelib:WeaponTRA.obj
 0001:000d5750       ?FireNPCWeaponProtected@weapon_tra@@MAEHABTvector3@@0ABUguid@@MH@Z 004d5e90 f   Gamelib:WeaponTRA.obj
 0001:000d5af0       ?FireGhostPrimary@weapon_tra@@UAEHHHAATvector3@@@Z 004d6230 f   Gamelib:WeaponTRA.obj
 0001:000d5cb0       ?FireGhostSecondary@weapon_tra@@UAEHH@Z 004d63f0 f   Gamelib:WeaponTRA.obj
 0001:000d5cb0       ?FireGhostSecondary@weapon_msn@@UAEHH@Z 004d63f0 f   Gamelib:WeaponMSN.obj
 0001:000d5e50       ?BeginAltFire@weapon_tra@@UAEXXZ 004d6590 f   Gamelib:WeaponTRA.obj
 0001:000d5ee0       ?EndAltFire@weapon_tra@@UAEXXZ 004d6620 f   Gamelib:WeaponTRA.obj
 0001:000d5fa0       ?BeginAltRampUp@weapon_tra@@UAEXXZ 004d66e0 f   Gamelib:WeaponTRA.obj
 0001:000d5ff0       ?EndAltRampUp@weapon_tra@@UAEXHH@Z 004d6730 f   Gamelib:WeaponTRA.obj
 0001:000d6040       ?EndAltHold@weapon_tra@@UAEXH@Z 004d6780 f   Gamelib:WeaponTRA.obj
 0001:000d6090       ?CanFire@weapon_tra@@UAEHH@Z 004d67d0 f   Gamelib:WeaponTRA.obj
 0001:000d60c0       ?ReleaseAudio@weapon_tra@@UAEXXZ 004d6800 f   Gamelib:WeaponTRA.obj
 0001:000d6100       ?CanSwitchIdleAnim@weapon_tra@@UAEHXZ 004d6840 f   Gamelib:WeaponTRA.obj
 0001:000d6140       ?BeginIdle@weapon_tra@@UAEXXZ 004d6880 f   Gamelib:WeaponTRA.obj
 0001:000d6160       ?EndIdle@weapon_tra@@UAEXXZ 004d68a0 f   Gamelib:WeaponTRA.obj
 0001:000d6170       ?GetRTTI@game_prop@@SAABUrtti@@XZ 004d68b0 f i Gamelib:GameProp.obj
 0001:000d61d0       ?GetObjectRTTI@game_prop@@UBEABUrtti@@XZ 004d6910 f i Gamelib:GameProp.obj
 0001:000d61e0       ?Create@game_prop_desc@@UAEPAVobject@@XZ 004d6920 f i Gamelib:GameProp.obj
 0001:000d6200       ?GetTypeDesc@game_prop@@UBEABVobject_desc@@XZ 004d6940 f   Gamelib:GameProp.obj
 0001:000d6210       ??0game_prop@@QAE@XZ       004d6950 f   Gamelib:GameProp.obj
 0001:000d6260       ?GetLocalBBox@game_prop@@UBE?AUbbox@@XZ 004d69a0 f   Gamelib:GameProp.obj
 0001:000d6320       ?OnEnumProp@game_prop@@UAEXAAVprop_enum@@@Z 004d6a60 f   Gamelib:GameProp.obj
 0001:000d63f0       ?OnProperty@game_prop@@UAEHAAVprop_query@@@Z 004d6b30 f   Gamelib:GameProp.obj
 0001:000d65a0       ?GetRTTI@cinema_object@@SAABUrtti@@XZ 004d6ce0 f i Gamelib:Cinema.obj
 0001:000d6600       ?GetObjectRTTI@cinema_object@@UBEABUrtti@@XZ 004d6d40 f i Gamelib:Cinema.obj
 0001:000d6610       ?GetAnimInfo@anim_track_controller@@QAEABVanim_info@@XZ 004d6d50 f i Gamelib:AnimTrack.obj
 0001:000d6610       ?GetAnimInfo@simple_anim_player@@QAEABVanim_info@@XZ 004d6d50 f i Gamelib:Cinema.obj
 0001:000d6670       ?SetTime@simple_anim_player@@QAEXM@Z 004d6db0 f i Gamelib:Cinema.obj
 0001:000d66d0       ?Create@cinema_object_desc@@UAEPAVobject@@XZ 004d6e10 f i Gamelib:Cinema.obj
 0001:000d66f0       ?GetTypeDesc@cinema_object@@UBEABVobject_desc@@XZ 004d6e30 f   Gamelib:Cinema.obj
 0001:000d6700       ??0position_marker@cinema_object@@QAE@XZ 004d6e40 f   Gamelib:Cinema.obj
 0001:000d6730       ??0action_marker@cinema_object@@QAE@XZ 004d6e70 f   Gamelib:Cinema.obj
 0001:000d6760       ??0cinema_character@cinema_object@@QAE@XZ 004d6ea0 f   Gamelib:Cinema.obj
 0001:000d67c0       ?Init@cinema_character@cinema_object@@QAEXXZ 004d6f00 f   Gamelib:Cinema.obj
 0001:000d6820       ??0cinema_object@@QAE@XZ   004d6f60 f   Gamelib:Cinema.obj
 0001:000d69d0       ??_Gcinema_object@@UAEPAXI@Z 004d7110 f i Gamelib:Cinema.obj
 0001:000d69d0       ??_Ecinema_object@@UAEPAXI@Z 004d7110 f i Gamelib:Cinema.obj
 0001:000d6a00       ??1cinema_object@@UAE@XZ   004d7140 f   Gamelib:Cinema.obj
 0001:000d6a80       ?OnEnumProp@cinema_object@@UAEXAAVprop_enum@@@Z 004d71c0 f   Gamelib:Cinema.obj
 0001:000d6fc0       ?OnProperty@cinema_object@@UAEHAAVprop_query@@@Z 004d7700 f   Gamelib:Cinema.obj
 0001:000d8650       ?AreAnimsDone@cinema_object@@QAEHXZ 004d8d90 f   Gamelib:Cinema.obj
 0001:000d8800       ?PopCharactersToEndMarkers@cinema_object@@QAEXXZ 004d8f40 f   Gamelib:Cinema.obj
 0001:000d8c40       ?StartAnimAudioTimer@cinema_object@@QAEXXZ 004d9380 f   Gamelib:Cinema.obj
 0001:000d8db0       ?IsPast@cinema_object@@QAEHPAD@Z 004d94f0 f   Gamelib:Cinema.obj
 0001:000d8eb0       ?ProcessMarkers@cinema_object@@QAEXXZ 004d95f0 f   Gamelib:Cinema.obj
 0001:000d9080       ?ResumeCharacterAi@cinema_object@@QAEXAAUcinema_character@1@@Z 004d97c0 f   Gamelib:Cinema.obj
 0001:000d9160       ?ProcessAnims@cinema_object@@QAEXXZ 004d98a0 f   Gamelib:Cinema.obj
 0001:000d92b0       ?StartAnims@cinema_object@@QAEXXZ 004d99f0 f   Gamelib:Cinema.obj
 0001:000d98e0       ?UpdateAnims@cinema_object@@QAEXXZ 004da020 f   Gamelib:Cinema.obj
 0001:000d9a90       ?StopAnims@cinema_object@@QAEXXZ 004da1d0 f   Gamelib:Cinema.obj
 0001:000d9c80       ?OnAdvanceLogic@cinema_object@@UAEXM@Z 004da3c0 f   Gamelib:Cinema.obj
 0001:000d9eb0       ?OnActivate@cinema_object@@UAEXH@Z 004da5f0 f   Gamelib:Cinema.obj
 0001:000d9ff0       ?Delete@?$xarray@Uposition_marker@cinema_object@@@@QAEXHH@Z 004da730 f i Gamelib:Cinema.obj
 0001:000da190       ?Append@?$xarray@Uposition_marker@cinema_object@@@@QAEAAUposition_marker@cinema_object@@XZ 004da8d0 f i Gamelib:Cinema.obj
 0001:000da250       ?SetCount@?$xarray@Uposition_marker@cinema_object@@@@QAEXH@Z 004da990 f i Gamelib:Cinema.obj
 0001:000da270       ?SetCapacity@?$xarray@Uposition_marker@cinema_object@@@@QAEXH@Z 004da9b0 f i Gamelib:Cinema.obj
 0001:000da320       ?Delete@?$xarray@Uaction_marker@cinema_object@@@@QAEXHH@Z 004daa60 f i Gamelib:Cinema.obj
 0001:000da3b0       ?Append@?$xarray@Uaction_marker@cinema_object@@@@QAEAAUaction_marker@cinema_object@@XZ 004daaf0 f i Gamelib:Cinema.obj
 0001:000da4b0       ?SetCount@?$xarray@Uaction_marker@cinema_object@@@@QAEXH@Z 004dabf0 f i Gamelib:Cinema.obj
 0001:000da4d0       ?SetCapacity@?$xarray@Uaction_marker@cinema_object@@@@QAEXH@Z 004dac10 f i Gamelib:Cinema.obj
 0001:000da5c0       ?Delete@?$xarray@Ucinema_character@cinema_object@@@@QAEXHH@Z 004dad00 f i Gamelib:Cinema.obj
 0001:000da620       ?Append@?$xarray@Ucinema_character@cinema_object@@@@QAEAAUcinema_character@cinema_object@@XZ 004dad60 f i Gamelib:Cinema.obj
 0001:000da6e0       ?SetCount@?$xarray@Ucinema_character@cinema_object@@@@QAEXH@Z 004dae20 f i Gamelib:Cinema.obj
 0001:000da700       ?SetCapacity@?$xarray@Ucinema_character@cinema_object@@@@QAEXH@Z 004dae40 f i Gamelib:Cinema.obj
 0001:000da790       ?Clear@?$xarray@Ucinema_character@cinema_object@@@@QAEXXZ 004daed0 f i Gamelib:Cinema.obj
 0001:000da7e0       ??4cinema_character@cinema_object@@QAEAAU01@ABU01@@Z 004daf20 f i Gamelib:Cinema.obj
 0001:000da880       ?GetObjectRTTI@lore_object@@UBEABUrtti@@XZ 004dafc0 f i Gamelib:LoreObject.obj
 0001:000da890       ?GetRenderInstPtr@lore_object@@UAEPAVrender_inst@@XZ 004dafd0 f i Gamelib:LoreObject.obj
 0001:000da8a0       ?IsTrueLoreObject@lore_object@@UAEHXZ 004dafe0 f i Gamelib:LoreObject.obj
 0001:000da8c0       ?Create@lore_object_desc@@UAEPAVobject@@XZ 004db000 f i Gamelib:LoreObject.obj
 0001:000da8e0       ?GetTypeDesc@lore_object@@UBEABVobject_desc@@XZ 004db020 f   Gamelib:LoreObject.obj
 0001:000da8f0       ??0lore_object@@QAE@XZ     004db030 f   Gamelib:LoreObject.obj
 0001:000daac0       ??_Elore_object@@UAEPAXI@Z 004db200 f i Gamelib:LoreObject.obj
 0001:000daac0       ??_Glore_object@@UAEPAXI@Z 004db200 f i Gamelib:LoreObject.obj
 0001:000dab10       ?OnRender@lore_object@@UAEXXZ 004db250 f   Gamelib:LoreObject.obj
 0001:000dab90       ?DoCollisionCheck@lore_object@@QAEXPAVplayer@@AATvector3@@1@Z 004db2d0 f   Gamelib:LoreObject.obj
 0001:000dace0       ?OnAdvanceLogic@lore_object@@UAEXM@Z 004db420 f   Gamelib:LoreObject.obj
 0001:000db030       ?OnRenderTransparent@lore_object@@UAEXXZ 004db770 f   Gamelib:LoreObject.obj
 0001:000db9e0       ?GetLocalBBox@lore_object@@UBE?AUbbox@@XZ 004dc120 f   Gamelib:LoreObject.obj
 0001:000dba50       ?GetFocusBBox@lore_object@@QBE?AUbbox@@XZ 004dc190 f   Gamelib:LoreObject.obj
 0001:000dbae0       ?OnEnumProp@lore_object@@UAEXAAVprop_enum@@@Z 004dc220 f   Gamelib:LoreObject.obj
 0001:000dbde0       ?OnProperty@lore_object@@UAEHAAVprop_query@@@Z 004dc520 f   Gamelib:LoreObject.obj
 0001:000dc1b0       ?GetColDetails@lore_object@@UAEHHAAUdetail_tri@object@@@Z 004dc8f0 f   Gamelib:LoreObject.obj
 0001:000dc250       ?OnPolyCacheGather@lore_object@@UAEXXZ 004dc990 f   Gamelib:LoreObject.obj
 0001:000dc310       ?OnColCheck@lore_object@@UAEXXZ 004dca50 f   Gamelib:LoreObject.obj
 0001:000dc3d0       ?OnActivate@lore_object@@UAEXH@Z 004dcb10 f   Gamelib:LoreObject.obj
 0001:000dc3f0       ?OnAcquire@lore_object@@UAEXH@Z 004dcb30 f   Gamelib:LoreObject.obj
 0001:000dc710       ?GetRTTI@spawn_point@@SAABUrtti@@XZ 004dce50 f i Gamelib:SpawnPoint.obj
 0001:000dc770       ?GetObjectRTTI@spawn_point@@UBEABUrtti@@XZ 004dceb0 f i Gamelib:SpawnPoint.obj
 0001:000dc780       ?Create@spawn_point_desc@@UAEPAVobject@@XZ 004dcec0 f i Gamelib:SpawnPoint.obj
 0001:000dc7d0       ?GetTypeDesc@spawn_point@@UBEABVobject_desc@@XZ 004dcf10 f   Gamelib:SpawnPoint.obj
 0001:000dc7e0       ?OnEnumProp@spawn_point@@UAEXAAVprop_enum@@@Z 004dcf20 f   Gamelib:SpawnPoint.obj
 0001:000dc850       ?OnProperty@spawn_point@@UAEHAAVprop_query@@@Z 004dcf90 f   Gamelib:SpawnPoint.obj
 0001:000dc890       ?GetSpawnInfo@spawn_point@@QBE?AUguid@@U2@AATvector3@@AAUradian3@@AAG3@Z 004dcfd0 f   Gamelib:SpawnPoint.obj
 0001:000dca90       ?GetRTTI@teleporter@@SAABUrtti@@XZ 004dd1d0 f i Gamelib:Teleporter.obj
 0001:000dcaf0       ?GetObjectRTTI@teleporter@@UBEABUrtti@@XZ 004dd230 f i Gamelib:Teleporter.obj
 0001:000dcb00       ?Create@teleporter_desc@@UAEPAVobject@@XZ 004dd240 f i Gamelib:Teleporter.obj
 0001:000dcb20       ?GetTypeDesc@teleporter@@UBEABVobject_desc@@XZ 004dd260 f   Gamelib:Teleporter.obj
 0001:000dcb30       ??0teleporter@@QAE@XZ      004dd270 f   Gamelib:Teleporter.obj
 0001:000dcc50       ??_Gteleporter@@UAEPAXI@Z  004dd390 f i Gamelib:Teleporter.obj
 0001:000dcc50       ??_Eteleporter@@UAEPAXI@Z  004dd390 f i Gamelib:Teleporter.obj
 0001:000dcc80       ??1teleporter@@UAE@XZ      004dd3c0 f   Gamelib:Teleporter.obj
 0001:000dcce0       ?ComputeTrigger@teleporter@@IAEXXZ 004dd420 f   Gamelib:Teleporter.obj
 0001:000dcdd0       ?OnMove@teleporter@@UAEXABTvector3@@@Z 004dd510 f   Gamelib:Teleporter.obj
 0001:000dce10       ?OnMoveRel@teleporter@@UAEXABTvector3@@@Z 004dd550 f   Gamelib:Teleporter.obj
 0001:000dce70       ?OnTransform@teleporter@@UAEXABTmatrix4@@@Z 004dd5b0 f   Gamelib:Teleporter.obj
 0001:000dceb0       ?OnAdvanceLogic@teleporter@@UAEXM@Z 004dd5f0 f   Gamelib:Teleporter.obj
 0001:000dd3f0       ?Receive@teleporter@@QAEXHABTvector3@@M@Z 004ddb30 f   Gamelib:Teleporter.obj
 0001:000dd6f0       ?OnEnumProp@teleporter@@UAEXAAVprop_enum@@@Z 004dde30 f   Gamelib:Teleporter.obj
 0001:000dd850       ?OnProperty@teleporter@@UAEHAAVprop_query@@@Z 004ddf90 f   Gamelib:Teleporter.obj
 0001:000dd9b0       ?PlayTeleportIn@teleporter@@QAEXXZ 004de0f0 f   Gamelib:Teleporter.obj
 0001:000dda80       ?PlayTeleportOut@teleporter@@QAEXXZ 004de1c0 f   Gamelib:Teleporter.obj
 0001:000ddb50       ?OnRenderTransparent@teleporter@@UAEXXZ 004de290 f   Gamelib:Teleporter.obj
 0001:000ddb60       ?GetObjectRTTI@super_destructible_obj@@UBEABUrtti@@XZ 004de2a0 f i Gamelib:SuperDestructible.obj
 0001:000ddb60       ?GetRTTI@super_destructible_obj@@SAABUrtti@@XZ 004de2a0 f i Gamelib:Mutant_Tank.obj
 0001:000ddb90       ?GetParentGuid@super_destructible_obj@@UAE?AUguid@@XZ 004de2d0 f i Gamelib:SuperDestructible.obj
 0001:000ddbb0       ?Create@super_destructible_obj_desc@@UAEPAVobject@@XZ 004de2f0 f i Gamelib:SuperDestructible.obj
 0001:000ddbd0       ?GetTypeDesc@super_destructible_obj@@UBEABVobject_desc@@XZ 004de310 f   Gamelib:SuperDestructible.obj
 0001:000ddbe0       ??0super_destructible_obj@@QAE@XZ 004de320 f   Gamelib:SuperDestructible.obj
 0001:000ddcf0       ??_Esuper_destructible_obj@@UAEPAXI@Z 004de430 f i Gamelib:SuperDestructible.obj
 0001:000ddcf0       ??_Gsuper_destructible_obj@@UAEPAXI@Z 004de430 f i Gamelib:SuperDestructible.obj
 0001:000ddd20       ??1super_destructible_obj@@UAE@XZ 004de460 f   Gamelib:SuperDestructible.obj
 0001:000ddee0       ?OnPain@super_destructible_obj@@UAEXABVpain@@@Z 004de620 f   Gamelib:SuperDestructible.obj
 0001:000de230       ?KillStage@super_destructible_obj@@QAEXABVpain@@@Z 004de970 f   Gamelib:SuperDestructible.obj
 0001:000df400       ?OnRender@super_destructible_obj@@UAEXXZ 004dfb40 f   Gamelib:SuperDestructible.obj
 0001:000df4d0       ?OnMove@super_destructible_obj@@UAEXABTvector3@@@Z 004dfc10 f   Gamelib:SuperDestructible.obj
 0001:000df4d0       ?OnMove@anim_surface@@UAEXABTvector3@@@Z 004dfc10 f   Gamelib:AnimSurface.obj
 0001:000df6b0       ?OnTransform@anim_surface@@UAEXABTmatrix4@@@Z 004dfdf0 f   Gamelib:AnimSurface.obj
 0001:000df6b0       ?OnTransform@super_destructible_obj@@UAEXABTmatrix4@@@Z 004dfdf0 f   Gamelib:SuperDestructible.obj
 0001:000df880       ?GetBoneL2Ws@anim_surface@@MAEPBTmatrix4@@XZ 004dffc0 f   Gamelib:AnimSurface.obj
 0001:000df880       ?GetBoneL2Ws@turret@@MAEPBTmatrix4@@XZ 004dffc0 f   Gamelib:Turret.obj
 0001:000df880       ?GetBoneL2Ws@super_destructible_obj@@UAEPBTmatrix4@@XZ 004dffc0 f   Gamelib:SuperDestructible.obj
 0001:000df890       ?OnAdvanceLogic@super_destructible_obj@@UAEXM@Z 004dffd0 f   Gamelib:SuperDestructible.obj
 0001:000df9c0       ?OnColCheck@super_destructible_obj@@UAEXXZ 004e0100 f   Gamelib:SuperDestructible.obj
 0001:000dfa50       ?OnPolyCacheGather@super_destructible_obj@@UAEXXZ 004e0190 f   Gamelib:SuperDestructible.obj
 0001:000dfb60       ?GetHealth@super_destructible_obj@@UAEMXZ 004e02a0 f   Gamelib:SuperDestructible.obj
 0001:000dfc10       ?GetMaxHealth@super_destructible_obj@@QAEMXZ 004e0350 f   Gamelib:SuperDestructible.obj
 0001:000dfca0       ?SetInitHealth@super_destructible_obj@@QAEXM@Z 004e03e0 f   Gamelib:SuperDestructible.obj
 0001:000dfdb0       ?GetAnimGroupHandlePtr@super_destructible_obj@@UAEPAU?$rhandle@Vanim_group@@@@XZ 004e04f0 f   Gamelib:SuperDestructible.obj
 0001:000dfe00       ?CreateSuperPainResponse@super_destructible_obj@@QAEXUguid@@PBD1MABTvector3@@ABUradian3@@G@Z 004e0540 f   Gamelib:SuperDestructible.obj
 0001:000e0630       ?BroadcastPain@super_destructible_obj@@QAEXH@Z 004e0d70 f   Gamelib:SuperDestructible.obj
 0001:000e0850       ?OnEnumProp@super_destructible_obj@@UAEXAAVprop_enum@@@Z 004e0f90 f   Gamelib:SuperDestructible.obj
 0001:000e0bd0       ?KillCurrentStage@super_destructible_obj@@QAEXXZ 004e1310 f   Gamelib:SuperDestructible.obj
 0001:000e0d10       ?SetCurrentStage@super_destructible_obj@@QAEXHH@Z 004e1450 f   Gamelib:SuperDestructible.obj
 0001:000e0d90       ?OnProperty@super_destructible_obj@@UAEHAAVprop_query@@@Z 004e14d0 f   Gamelib:SuperDestructible.obj
 0001:000e14d0       ?DeleteStage@super_destructible_obj@@QAEXH@Z 004e1c10 f   Gamelib:SuperDestructible.obj
 0001:000e14f0       ?Regenerate@super_destructible_obj@@QAEXMM@Z 004e1c30 f   Gamelib:SuperDestructible.obj
 0001:000e15e0       ??0stage@super_destructible_obj@@QAE@XZ 004e1d20 f   Gamelib:SuperDestructible.obj
 0001:000e1730       ?OnEnumProp@stage@super_destructible_obj@@QAEXAAVprop_enum@@AAV2@H@Z 004e1e70 f   Gamelib:SuperDestructible.obj
 0001:000e1b30       ?OnProperty@stage@super_destructible_obj@@QAEHAAVprop_query@@AAV2@H@Z 004e2270 f   Gamelib:SuperDestructible.obj
 0001:000e21f0       ?Insert@?$xarray@Ustage@super_destructible_obj@@@@QAEAAUstage@super_destructible_obj@@H@Z 004e2930 f i Gamelib:SuperDestructible.obj
 0001:000e2510       ?Delete@?$xarray@Ustage@super_destructible_obj@@@@QAEXHH@Z 004e2c50 f i Gamelib:SuperDestructible.obj
 0001:000e2570       ?SetCount@?$xarray@Ustage@super_destructible_obj@@@@QAEXH@Z 004e2cb0 f i Gamelib:SuperDestructible.obj
 0001:000e2590       ??4stage@super_destructible_obj@@QAEAAU01@ABU01@@Z 004e2cd0 f i Gamelib:SuperDestructible.obj
 0001:000e2700       ?SetCapacity@?$xarray@Ustage@super_destructible_obj@@@@QAEXH@Z 004e2e40 f i Gamelib:SuperDestructible.obj
 0001:000e2830       ??0radian3@@QAE@ABUquaternion@@@Z 004e2f70 f i Gamelib:Animation_obj.obj
 0001:000e2860       ?GetRTTI@animation_obj@@SAABUrtti@@XZ 004e2fa0 f i Gamelib:Animation_obj.obj
 0001:000e28c0       ?GetObjectRTTI@animation_obj@@UBEABUrtti@@XZ 004e3000 f i Gamelib:Animation_obj.obj
 0001:000e28d0       ?Create@animation_obj_desc@@UAEPAVobject@@XZ 004e3010 f i Gamelib:Animation_obj.obj
 0001:000e28f0       ?GetTypeDesc@animation_obj@@UBEABVobject_desc@@XZ 004e3030 f   Gamelib:Animation_obj.obj
 0001:000e2900       ??0animation_obj@@QAE@XZ   004e3040 f   Gamelib:Animation_obj.obj
 0001:000e2990       ??_Eanimation_obj@@UAEPAXI@Z 004e30d0 f i Gamelib:Animation_obj.obj
 0001:000e2990       ??_Ganimation_obj@@UAEPAXI@Z 004e30d0 f i Gamelib:Animation_obj.obj
 0001:000e29d0       ?OnEnumProp@animation_obj@@UAEXAAVprop_enum@@@Z 004e3110 f   Gamelib:Animation_obj.obj
 0001:000e2bb0       ?SetEditKeyFrame@animation_obj@@IAEXH@Z 004e32f0 f   Gamelib:Animation_obj.obj
 0001:000e2c50       ?JumpToKey@animation_obj@@IAEXH@Z 004e3390 f   Gamelib:Animation_obj.obj
 0001:000e2cc0       ?OnProperty@animation_obj@@UAEHAAVprop_query@@@Z 004e3400 f   Gamelib:Animation_obj.obj
 0001:000e3330       ??4keyframe@animation_obj@@QAEAAU01@ABU01@@Z 004e3a70 f i Gamelib:Animation_obj.obj
 0001:000e3370       ?GetNextFrameIndex@animation_obj@@IAEHH@Z 004e3ab0 f   Gamelib:Animation_obj.obj
 0001:000e33b0       ?HandleStates@animation_obj@@IAEHMAAMAAH@Z 004e3af0 f   Gamelib:Animation_obj.obj
 0001:000e34f0       ?ComputeFrame@animation_obj@@IAEXAAUkeyframe@1@HHM@Z 004e3c30 f   Gamelib:Animation_obj.obj
 0001:000e35d0       ?OnAdvanceLogic@animation_obj@@MAEXM@Z 004e3d10 f   Gamelib:Animation_obj.obj
 0001:000e3620       ?OnActivate@animation_obj@@UAEXH@Z 004e3d60 f   Gamelib:Animation_obj.obj
 0001:000e36c0       ?Delete@?$xarray@Ukeyframe@animation_obj@@@@QAEXHH@Z 004e3e00 f i Gamelib:Animation_obj.obj
 0001:000e3920       ?Append@?$xarray@Ukeyframe@animation_obj@@@@QAEAAUkeyframe@animation_obj@@XZ 004e4060 f i Gamelib:Animation_obj.obj
 0001:000e3a10       ?SetCount@?$xarray@Ukeyframe@animation_obj@@@@QAEXH@Z 004e4150 f i Gamelib:Animation_obj.obj
 0001:000e3a30       ?SetCapacity@?$xarray@Ukeyframe@animation_obj@@@@QAEXH@Z 004e4170 f i Gamelib:Animation_obj.obj
 0001:000e3b00       ?Normalize@quaternion@@QAEXXZ 004e4240 f i Gamelib:Path.obj
 0001:000e3b50       ?GetObjectRTTI@path@@UBEABUrtti@@XZ 004e4290 f i Gamelib:Path.obj
 0001:000e3b60       ?Create@path_desc@@UAEPAVobject@@XZ 004e42a0 f i Gamelib:Path.obj
 0001:000e3b80       ?GetTypeDesc@path@@UBEABVobject_desc@@XZ 004e42c0 f   Gamelib:Path.obj
 0001:000e3b90       ?OnEnumProp@path_desc@@UAEXAAVprop_enum@@@Z 004e42d0 f   Gamelib:Path.obj
 0001:000e3bc0       ?OnProperty@path_desc@@UAEHAAVprop_query@@@Z 004e4300 f   Gamelib:Path.obj
 0001:000e3d80       ??0key@path@@QAE@XZ        004e44c0 f   Gamelib:Path.obj
 0001:000e3df0       ?OnEnumProp@key@path@@QAEXAAVprop_enum@@AAV2@HII@Z 004e4530 f   Gamelib:Path.obj
 0001:000e3f60       ?OnProperty@key@path@@QAEHAAVprop_query@@AAV2@H@Z 004e46a0 f   Gamelib:Path.obj
 0001:000e4230       ?Interpolate@key@path@@QAEXABV2@HMHMMMM@Z 004e4970 f   Gamelib:Path.obj
 0001:000e47c0       ??0path@@QAE@XZ            004e4f00 f   Gamelib:Path.obj
 0001:000e4820       ??_Epath@@UAEPAXI@Z        004e4f60 f i Gamelib:Path.obj
 0001:000e4820       ??_Gpath@@UAEPAXI@Z        004e4f60 f i Gamelib:Path.obj
 0001:000e4860       ?GetLocalBBox@path@@UBE?AUbbox@@XZ 004e4fa0 f   Gamelib:Path.obj
 0001:000e49c0       ?OnEnumProp@path@@UAEXAAVprop_enum@@@Z 004e5100 f   Gamelib:Path.obj
 0001:000e4ba0       ?OnProperty@path@@UAEHAAVprop_query@@@Z 004e52e0 f   Gamelib:Path.obj
 0001:000e4f20       ??4key@path@@QAEAAU01@ABU01@@Z 004e5660 f i Gamelib:Path.obj
 0001:000e4fa0       ?ReleaseAudio@new_weapon@@UAEXXZ 004e56e0 f   Gamelib:NewWeapon.obj
 0001:000e4fa0       ?OnInit@character_cover_state@@UAEXXZ 004e56e0 f   Gamelib:Character_Cover_State.obj
 0001:000e4fa0       ?OnThink@character_trigger_state@@UAEXXZ 004e56e0 f   Gamelib:Character_Trigger_State.obj
 0001:000e4fa0       ?OnPollReturn@dlg_profile_select@@QAEXXZ 004e56e0 f   UserInterface:dlg_ProfileSelect.obj
 0001:000e4fa0       ?net_Deactivate@net_proj@@UAEXXZ 004e56e0 f   Gamelib:NetProjectile.obj
 0001:000e4fa0       ?OnInit@debris_cannon@@UAEXXZ 004e56e0 f   Gamelib:debris_cannon.obj
 0001:000e4fa0       ?OnRender@debris_meson_explosion@@UAEXXZ 004e56e0 f   Gamelib:debris_meson_lash.obj
 0001:000e4fa0       ?UpdateFellFromAltitude@actor@@UAEXXZ 004e56e0 f   Gamelib:Actor.obj
 0001:000e4fa0       ?OnInit@camera@@MAEXXZ     004e56e0 f   Gamelib:Camera.obj
 0001:000e4fa0       ??0rect@@QAE@XZ            004e56e0 f   Render:Render.obj
 0001:000e4fa0       ?ProcessSfx@weapon_desert_eagle@@UAEXXZ 004e56e0 f   Gamelib:WeaponDesertEagle.obj
 0001:000e4fa0       ?OnInit@debris_glass_cluster@@UAEXXZ 004e56e0 f   Gamelib:debris_glass_cluster.obj
 0001:000e4fa0       ?OnAnimEvent@object@@MAEXXZ 004e56e0 f   Gamelib:HudObject.obj
 0001:000e4fa0       ?EndSwitchFrom@player@@MAEXXZ 004e56e0 f   Gamelib:PlayerState.obj
 0001:000e4fa0       ?EndRampDown@player@@MAEXXZ 004e56e0 f   Gamelib:PlayerState.obj
 0001:000e4fa0       ?OnInit@coupler@@MAEXXZ    004e56e0 f   Gamelib:Coupler.obj
 0001:000e4fa0       ?OnInit@tracker@@MAEXXZ    004e56e0 f   Gamelib:Tracker.obj
 0001:000e4fa0       ?BeginAltFire@new_weapon@@UAEXXZ 004e56e0 f   Gamelib:NewWeapon.obj
 0001:000e4fa0       ?ContagionDOT@actor@@UAEXXZ 004e56e0 f   Gamelib:Actor.obj
 0001:000e4fa0       ?OnRender@notepad_object@@MAEXXZ 004e56e0 f   Gamelib:notepad_object.obj
 0001:000e4fa0       ?OnRender@mutant_contagion_projectile@@UAEXXZ 004e56e0 f   Gamelib:ProjectileMutantContagion.obj
 0001:000e4fa0       ?OnFocus@debug_menu_page@@UAEXXZ 004e56e0 f   Gamelib:DebugMenuPageAIScript.obj
 0001:000e4fa0       ?ProcessSfx@weapon_smp@@UAEXXZ 004e56e0 f   Gamelib:WeaponSMP.obj
 0001:000e4fa0       ?OnThink@character_state@@UAEXXZ 004e56e0 f   Gamelib:CharacterState.obj
 0001:000e4fa0       ?OnThink@character_turret_state@@UAEXXZ 004e56e0 f   Gamelib:Character_Turret_State.obj
 0001:000e4fa0       ?EndPrimaryFire@weapon_bbg@@UAEXXZ 004e56e0 f   Gamelib:WeaponBBG.obj
 0001:000e4fa0       ?OnRenderActive@debug_menu_page@@UAEXXZ 004e56e0 f   Gamelib:DebugMenuPageAIScript.obj
 0001:000e4fa0       ?OnRenderTransparent@object@@MAEXXZ 004e56e0 f   Gamelib:object.obj
 0001:000e4fa0       ?OnKill@pickup@@MAEXXZ     004e56e0 f   Gamelib:Pickup.obj
 0001:000e4fa0       ?OnThink@character_flee_state@@UAEXXZ 004e56e0 f   Gamelib:Character_Flee_State.obj
 0001:000e4fa0       ?OnPreRenderActive@debug_menu_page@@UAEXXZ 004e56e0 f   Gamelib:DebugMenuPageAIScript.obj
 0001:000e4fa0       ?Decomp_Const@@YAXAAVbitstream@@ABVanim_group@@HHAAPAE@Z 004e56e0 f   Gamelib:AnimDecompress.obj
 0001:000e4fa0       ?OnRender@volumetric_light_obj@@MAEXXZ 004e56e0 f   Gamelib:VolumetricLight.obj
 0001:000e4fa0       ?BeginSwitchTo@weapon_tra@@UAEXXZ 004e56e0 f   Gamelib:WeaponTRA.obj
 0001:000e4fa0       ?OnPreRender@debug_menu_page@@UAEXXZ 004e56e0 f   Gamelib:DebugMenuPageMonkey.obj
 0001:000e4fa0       ?EndAltFire@new_weapon@@UAEXXZ 004e56e0 f   Gamelib:NewWeapon.obj
 0001:000e4fa0       ?BeginSwitchFrom@new_weapon@@UAEXXZ 004e56e0 f   Gamelib:NewWeapon.obj
 0001:000e4fa0       ??1cinema_character@cinema_object@@QAE@XZ 004e56e0 f   Gamelib:Cinema.obj
 0001:000e4fa0       ?ProcessSfx@new_weapon@@UAEXXZ 004e56e0 f   Gamelib:NewWeapon.obj
 0001:000e4fa0       ?EndReloadOut@player@@MAEXXZ 004e56e0 f   Gamelib:PlayerState.obj
 0001:000e4fa0       ?OnInit@group@@MAEXXZ      004e56e0 f   Gamelib:Group.obj
 0001:000e4fa0       ?ProcessSfx@weapon_shotgun@@UAEXXZ 004e56e0 f   Gamelib:WeaponShotgun.obj
 0001:000e4fa0       ?net_Deactivate@energy_projectile@@UAEXXZ 004e56e0 f   Gamelib:ProjectileEnergy.obj
 0001:000e4fa0       ??1rigid_body@@QAE@XZ      004e56e0 f   Gamelib:PhysicsMgr.obj
 0001:000e4fa0       ?OnRender@alien_glob@@UAEXXZ 004e56e0 f   Gamelib:AlienGlob.obj
 0001:000e4fa0       ?OnThink@character_idle_state@@UAEXXZ 004e56e0 f   Gamelib:Character_Idle_State.obj
 0001:000e4fa0       ?OnInit@controller@@MAEXXZ 004e56e0 f   Gamelib:Controller.obj
 0001:000e4fa0       ?TakeFallPain@actor@@UAEXXZ 004e56e0 f   Gamelib:Actor.obj
 0001:000e4fa0       ?OnPolyCacheGather@object@@UAEXXZ 004e56e0 f   Gamelib:HudObject.obj
 0001:000e4fa0       ??1constraint@@QAE@XZ      004e56e0 f   main.obj
 0001:000e4fa0       ?OnInit@character_search_state@@UAEXXZ 004e56e0 f   Gamelib:Character_Search_State.obj
 0001:000e4fa0       ?OnInit@feedback_emitter@@UAEXXZ 004e56e0 f   Gamelib:feedbackemitter.obj
 0001:000e4fa0       ?OnEndRender@object_desc@@MAEXXZ 004e56e0 f   Gamelib:HudObject.obj
 0001:000e4fa0       ?BeginPrimaryFire@weapon_tra@@UAEXXZ 004e56e0 f   Gamelib:WeaponTRA.obj
 0001:000e4fa0       ?BeginPrimaryFire@weapon_msn@@UAEXXZ 004e56e0 f   Gamelib:WeaponMSN.obj
 0001:000e4fa0       ?OnRender@invisible_wall_obj@@MAEXXZ 004e56e0 f   Gamelib:InvisWall.obj
 0001:000e4fa0       ?EndAltFire@weapon_bbg@@UAEXXZ 004e56e0 f   Gamelib:WeaponBBG.obj
 0001:000e4fa0       ?OnRenderTransparent@weapon_mutation@@UAEXXZ 004e56e0 f   Gamelib:WeaponMutation.obj
 0001:000e4fa0       ?OnInit@loco_state@@UAEXXZ 004e56e0 f   Gamelib:PlayerLoco.obj
 0001:000e4fa0       ??0push_factory@@QAE@XZ    004e56e0 f   Entropy:PushMgr.obj
 0001:000e4fa0       ?OnPollReturn@dlg_multi_player@@QAEXXZ 004e56e0 f   UserInterface:dlg_MultiPlayerXBOX.obj
 0001:000e4fa0       ??1view@@QAE@XZ            004e56e0 f   Entropy:e_View.obj
 0001:000e4fa0       ?OnRender@alien_shield@@UAEXXZ 004e56e0 f   Gamelib:AlienShield.obj
 0001:000e4fa0       ?OnRenderCloth@object@@MAEXXZ 004e56e0 f   Gamelib:HudObject.obj
 0001:000e4fa0       ?OnInit@character_alert_state@@UAEXXZ 004e56e0 f   Gamelib:Character_Alert_State.obj
 0001:000e4fa0       ?OnFocus@debug_menu_page_gameplay@@UAEXXZ 004e56e0 f   Gamelib:DebugMenuPageGameplay.obj
 0001:000e4fa0       ?OnRender@jump_pad@@UAEXXZ 004e56e0 f   Gamelib:JumpPad.obj
 0001:000e4fa0       ?OnInit@alien_glob@@UAEXXZ 004e56e0 f   Gamelib:AlienGlob.obj
 0001:000e4fa0       ?OnRender@camera@@MAEXXZ   004e56e0 f   Gamelib:Camera.obj
 0001:000e4fa0       ?EndSwitchTo@new_weapon@@UAEXXZ 004e56e0 f   Gamelib:NewWeapon.obj
 0001:000e4fa0       ?MC_NO_ACTION@MemCardMgr@@QAEXXZ 004e56e0 f   Gamelib:MemCardMgr.obj
 0001:000e4fa0       ?OnInit@ladder_field@@UAEXXZ 004e56e0 f   Gamelib:Ladder_Field.obj
 0001:000e4fa0       ?EndPrimaryFire@weapon_msn@@UAEXXZ 004e56e0 f   Gamelib:WeaponMSN.obj
 0001:000e4fa0       ?net_DebugRender@netobj@@UBEXXZ 004e56e0 f   NetworkMgr:NetObj.obj
 0001:000e4fa0       ?OnRender@particle_emitter@@MAEXXZ 004e56e0 f   Gamelib:ParticleEmiter.obj
 0001:000e4fa0       ?OnInit@debris_rigid@@UAEXXZ 004e56e0 f   Gamelib:debris_rigid.obj
 0001:000e4fa0       ?StartFlyby@base_projectile@@UAEXXZ 004e56e0 f   Gamelib:BaseProjectile.obj
 0001:000e4fa0       ?BeginSwitchFrom@weapon_tra@@UAEXXZ 004e56e0 f   Gamelib:WeaponTRA.obj
 0001:000e4fa0       ?OnLeavePage@debug_menu_page@@UAEXXZ 004e56e0 f   Gamelib:DebugMenuPageAIScript.obj
 0001:000e4fa0       ?TakeFallPain@character@@MAEXXZ 004e56e0 f   Gamelib:FriendlyScientist.obj
 0001:000e4fa0       ?OnRender@net_proj@@UAEXXZ 004e56e0 f   Gamelib:NetProjectile.obj
 0001:000e4fa0       ?BeginSwitchTo@new_weapon@@UAEXXZ 004e56e0 f   Gamelib:NewWeapon.obj
 0001:000e4fa0       ?FxUnloadBitmap@@YAXUxhandle@@@Z 004e56e0 f   Gamelib:ParticleEmiter.obj
 0001:000e4fa0       ?EndFallingToDeath@player@@MAEXXZ 004e56e0 f   Gamelib:PlayerState.obj
 0001:000e4fa0       ?OnRender@debris_glass_cluster@@UAEXXZ 004e56e0 f   Gamelib:debris_glass_cluster.obj
 0001:000e4fa0       ?InitInventory@actor@@UAEXXZ 004e56e0 f   Gamelib:Actor.obj
 0001:000e4fa0       ?OnColCheck@mutant_parasite_projectile@@MAEXXZ 004e56e0 f   Gamelib:ProjectileMutantParasite2.obj
 0001:000e4fa0       ?OnEnterPage@debug_menu_page@@UAEXXZ 004e56e0 f   Gamelib:DebugMenuPageAIScript.obj
 0001:000e4fa0       ?OnLoseFocus@debug_menu_page@@UAEXXZ 004e56e0 f   Gamelib:DebugMenuPageAIScript.obj
 0001:000e4fa0       ?EndPrimaryFire@new_weapon@@UAEXXZ 004e56e0 f   Gamelib:NewWeapon.obj
 0001:000e4fa0       ?DefaultUnload@@YAXUxhandle@@@Z 004e56e0 f   fx_RunTime:fx_Mgr.obj
 0001:000e4fa0       ?OnInit@animation_obj@@MAEXXZ 004e56e0 f   Gamelib:Animation_obj.obj
 0001:000e4fa0       ?OnDebugRender@ground_zero_core_obj@@UAEXXZ 004e56e0 f   Gamelib:GZCoreObj.obj
 0001:000e4fa0       ?BeginPrimaryFire@new_weapon@@UAEXXZ 004e56e0 f   Gamelib:NewWeapon.obj
 0001:000e4fa0       ?OnInit@character_state@@UAEXXZ 004e56e0 f   Gamelib:Character.obj
 0001:000e4fa0       ?Clear@dual_weapon_anim_controller@@UAEXXZ 004e56e0 f   Gamelib:NewWeapon.obj
 0001:000e4fa0       ?OnInit@actor@@UAEXXZ      004e56e0 f   Gamelib:Actor.obj
 0001:000e4fa0       ?OnInit@ground_zero_core_obj@@UAEXXZ 004e56e0 f   Gamelib:GZCoreObj.obj
 0001:000e4fa0       ?OnRender@mutant_parasite_projectile@@UAEXXZ 004e56e0 f   Gamelib:ProjectileMutantParasite2.obj
 0001:000e4fa0       ?net_Deactivate@grav_charge_projectile@@UAEXXZ 004e56e0 f   Gamelib:GravChargeProjectile.obj
 0001:000e4fa0       ?OnColCheck@mutant_tendril_projectile@@MAEXXZ 004e56e0 f   Gamelib:ProjectileMutantTendril.obj
 0001:000e4fa0       ?OnRender@homing_projectile@@UAEXXZ 004e56e0 f   Gamelib:ProjectileHoming.obj
 0001:000e4fa0       ?OnRender@character_trigger_state@@UAEXXZ 004e56e0 f   Gamelib:Character_Trigger_State.obj
 0001:000e4fa0       ?OnRender@base_projectile@@UAEXXZ 004e56e0 f   Gamelib:BaseProjectile.obj
 0001:000e4fa0       ?OnThink@character_alarm_state@@UAEXXZ 004e56e0 f   Gamelib:Character_Alarm_State.obj
 0001:000e4fa0       ?Activate@logic_campaign@@UAEXXZ 004e56e0 f   NetworkMgr:logic_Campaign.obj
 0001:000e4fa0       ?BeginPrimaryFire@weapon_bbg@@UAEXXZ 004e56e0 f   Gamelib:WeaponBBG.obj
 0001:000e4fa0       ?BeginAltFire@weapon_msn@@UAEXXZ 004e56e0 f   Gamelib:WeaponMSN.obj
 0001:000e4fa0       ?EndAltRampDown@player@@MAEXXZ 004e56e0 f   Gamelib:PlayerState.obj
 0001:000e4fa0       ?OnRenderTransparent@focus_object@@UAEXXZ 004e56e0 f   Gamelib:FocusObject.obj
 0001:000e4fa0       ?OnRender@force_field@@MAEXXZ 004e56e0 f   Gamelib:ForceField.obj
 0001:000e4fa0       ?ProcessSfx@weapon_msn@@UAEXXZ 004e56e0 f   Gamelib:WeaponMSN.obj
 0001:000e4fa0       ?BeginAltRampUp@new_weapon@@UAEXXZ 004e56e0 f   Gamelib:NewWeapon.obj
 0001:000e4fa0       ?MoveMuzzleFx@weapon_tra@@MAEXXZ 004e56e0 f   Gamelib:WeaponTRA.obj
 0001:000e4fa0       ?Initialize@logic_base@@MAEXXZ 004e56e0 f   NetworkMgr:logic_Base.obj
 0001:000e4fa0       ?BeginAltFire@weapon_bbg@@UAEXXZ 004e56e0 f   Gamelib:WeaponBBG.obj
 0001:000e4fa0       ?OnInit@pickup@@MAEXXZ     004e56e0 f   Gamelib:Pickup.obj
 0001:000e4fa0       ?EndRampUp@player@@MAEXXZ  004e56e0 f   Gamelib:PlayerState.obj
 0001:000e4fa0       ?OnRender@teleporter@@UAEXXZ 004e56e0 f   Gamelib:Teleporter.obj
 0001:000e4fa0       ?Init@vert_factory@@QAEXXZ 004e56e0 f   Entropy:VertexMgr.obj
 0001:000e4fa0       ?EndIdle@new_weapon@@UAEXXZ 004e56e0 f   Gamelib:NewWeapon.obj
 0001:000e4fa0       ?net_Deactivate@mutant_contagion_projectile@@UAEXXZ 004e56e0 f   Gamelib:ProjectileMutantContagion.obj
 0001:000e4fa0       ?OnRenderActive@debug_menu_page_monkey@@UAEXXZ 004e56e0 f   Gamelib:DebugMenuPageMonkey.obj
 0001:000e4fa0       ?OnRender@cover_node@@UAEXXZ 004e56e0 f   Gamelib:CoverNode.obj
 0001:000e4fa0       ?OnEndLogic@object_desc@@MAEXXZ 004e56e0 f   Gamelib:HudObject.obj
 0001:000e4fa0       ?AutofireRequestSent@character_state@@UAEXXZ 004e56e0 f   Gamelib:Character.obj
 0001:000e4fa0       ?EndAltFire@weapon_msn@@UAEXXZ 004e56e0 f   Gamelib:WeaponMSN.obj
 0001:000e4fa0       ?OnPolyCacheGather@ladder_field@@UAEXXZ 004e56e0 f   Gamelib:Ladder_Field.obj
 0001:000e4fa0       ?OnColCheck@net_proj@@UAEXXZ 004e56e0 f   Gamelib:NetProjectile.obj
 0001:000e4fa0       ?x_DebugMsg@@YAXZZ         004e56e0 f   main.obj
 0001:000e4fa0       ?EndPickup@player@@MAEXXZ  004e56e0 f   Gamelib:PlayerState.obj
 0001:000e4fa0       ?OnInit@notepad_object@@MAEXXZ 004e56e0 f   Gamelib:notepad_object.obj
 0001:000e4fa0       ?EndPrimaryFire@weapon_tra@@UAEXXZ 004e56e0 f   Gamelib:WeaponTRA.obj
 0001:000e4fa0       ?OnKill@object@@MAEXXZ     004e56e0 f   Gamelib:object.obj
 0001:000e4fa0       ?OnEnter@loco_state@@UAEXXZ 004e56e0 f   Gamelib:Loco.obj
 0001:000e4fa0       ?OnInit@force_field@@MAEXXZ 004e56e0 f   Gamelib:ForceField.obj
 0001:000e4fa0       ??1push_factory@@QAE@XZ    004e56e0 f   Entropy:PushMgr.obj
 0001:000e4fa0       ?OnPreRenderActive@debug_menu_audio@@UAEXXZ 004e56e0 f   Gamelib:DebugMenuAudio.obj
 0001:000e4fa0       ?OnKill@god@@UAEXXZ        004e56e0 f   Gamelib:God.obj
 0001:000e4fa0       ?OnColCheck@path@@MAEXXZ   004e56e0 f   Gamelib:Path.obj
 0001:000e4fa0       ?OnInit@debris@@UAEXXZ     004e56e0 f   Gamelib:debris.obj
 0001:000e4fa0       ?LogPhysRead@io_device_dvd@@AAEXPAUio_device_file@@HH@Z 004e56e0 f   Entropy:io_device_dvd.obj
 0001:000e4fa0       ?OnInit@mutagen_reservoir@@UAEXXZ 004e56e0 f   Gamelib:MutagenReservoir.obj
 0001:000e4fa0       ?net_Deactivate@mesonseeker_projectile@@UAEXXZ 004e56e0 f   Gamelib:ProjectileMesonSeeker.obj
 0001:000e4fa0       ?OnInit@object@@MAEXXZ     004e56e0 f   Gamelib:object.obj
 0001:000e4fa0       ?MoveMuzzleFx@new_weapon@@MAEXXZ 004e56e0 f   Gamelib:NewWeapon.obj
 0001:000e4fa0       ?ProcessSfx@weapon_tra@@UAEXXZ 004e56e0 f   Gamelib:WeaponTRA.obj
 0001:000e4fa0       ?OnInit@character_turret_state@@UAEXXZ 004e56e0 f   Gamelib:Character_Turret_State.obj
 0001:000e4fa0       ?OnInit@path@@MAEXXZ       004e56e0 f   Gamelib:Path.obj
 0001:000e4fa0       ?OnRender@debug_menu_page@@UAEXXZ 004e56e0 f   Gamelib:DebugMenuPageAIScript.obj
 0001:000e4fa0       ?OnEnterMenu@debug_menu_page@@UAEXXZ 004e56e0 f   Gamelib:DebugMenuPageAIScript.obj
 0001:000e4fa0       ?OnInit@team_prop@@MAEXXZ  004e56e0 f   Gamelib:TeamProp.obj
 0001:000e4fa0       ?OnInit@character_attack_state@@UAEXXZ 004e56e0 f   Gamelib:Character_Attack_State.obj
 0001:000e4fa0       ?OnLeaveMenu@debug_menu_page@@UAEXXZ 004e56e0 f   Gamelib:DebugMenuPageAIScript.obj
 0001:000e4fa0       ?BeginMissionFailed@player@@MAEXXZ 004e56e0 f   Gamelib:PlayerState.obj
 0001:000e4fa0       ?NotifyScanEnd@character@@UAEXXZ 004e56e0 f   Gamelib:Character.obj
 0001:000e4fa0       ?ProcessSfx@weapon_dual_shotgun@@UAEXXZ 004e56e0 f   Gamelib:WeaponDualShotgun.obj
 0001:000e4fa0       ?OnInit@input_setting@@UAEXXZ 004e56e0 f   Gamelib:InputSetting.obj
 0001:000e4fa0       ?OnInit@character_flee_state@@UAEXXZ 004e56e0 f   Gamelib:Character_Flee_State.obj
 0001:000e4fa0       ?OnRender@object@@MAEXXZ   004e56e0 f   Gamelib:ProxyPlaySurface.obj
 0001:000e4fa0       ?ProcessSfx@weapon_bbg@@UAEXXZ 004e56e0 f   Gamelib:WeaponBBG.obj
 0001:000e4fa0       ?OnInit@alien_shield@@UAEXXZ 004e56e0 f   Gamelib:AlienShield.obj
 0001:000e4fa0       ?EndGrenade@player@@MAEXXZ 004e56e0 f   Gamelib:PlayerState.obj
 0001:000e4fa0       ?ProcessSfx@weapon_dual_smp@@UAEXXZ 004e56e0 f   Gamelib:WeaponDualSMP.obj
 0001:000e4fa0       ?OnInit@team_light@@MAEXXZ 004e56e0 f   Gamelib:TeamLight.obj
 0001:000e4fa0       ?OnColCheck@alien_orb@@UAEXXZ 004e56e0 f   Gamelib:AlienOrb.obj
 0001:000e4fa0       ?EndGame@logic_ctf@@UAEXXZ 004e56e0 f   NetworkMgr:logic_CTF.obj
 0001:000e4fa0       ?OnInit@character_alarm_state@@UAEXXZ 004e56e0 f   Gamelib:Character_Alarm_State.obj
 0001:000e4fa0       ?OnRender@cap_point@@UAEXXZ 004e56e0 f   Gamelib:CapPoint.obj
 0001:000e4fa0       ?OnRenderTransparent@turret@@MAEXXZ 004e56e0 f   Gamelib:Turret.obj
 0001:000e4fa0       ?OnThink@character_follow_state@@UAEXXZ 004e56e0 f   Gamelib:Character_Follow_State.obj
 0001:000e4fa0       ?OnRender@path@@MAEXXZ     004e56e0 f   Gamelib:Path.obj
 0001:000e4fa0       ?OnColCheck@particle_emitter@@UAEXXZ 004e56e0 f   Gamelib:ParticleEmiter.obj
 0001:000e4fa0       ?EndAltGrenade@player@@MAEXXZ 004e56e0 f   Gamelib:PlayerState.obj
 0001:000e4fa0       ?OnRender@mutagen_reservoir@@UAEXXZ 004e56e0 f   Gamelib:MutagenReservoir.obj
 0001:000e4fa0       ?UpdateFellFromAltitude@character@@MAEXXZ 004e56e0 f   Gamelib:FriendlyScientist.obj
 0001:000e4fa0       ?OnRenderTransparent@zone_portal@@MAEXXZ 004e56e0 f   Gamelib:Portal.obj
 0001:000e4fb0       ?CreateKey@path@@AAEXHH@Z  004e56f0 f   Gamelib:Path.obj
 0001:000e5360       ?SelectKey@path@@AAEXH@Z   004e5aa0 f   Gamelib:Path.obj
 0001:000e53f0       ?OnLoad@path@@UAEXAAVtext_in@@@Z 004e5b30 f   Gamelib:Path.obj
 0001:000e5440       ?OnMove@path@@UAEXABTvector3@@@Z 004e5b80 f   Gamelib:Path.obj
 0001:000e5540       ?OnTransform@path@@UAEXABTmatrix4@@@Z 004e5c80 f   Gamelib:Path.obj
 0001:000e5c80       ?GetKeyTime@path@@QBEMH@Z  004e63c0 f   Gamelib:Path.obj
 0001:000e5d00       ?GetKeyTangent@path@@QBE?ATvector3@@H@Z 004e6440 f   Gamelib:Path.obj
 0001:000e5e30       ?GetInterpKey@path@@QBEXMMAAUkey@1@@Z 004e6570 f   Gamelib:Path.obj
 0001:000e5fd0       ?GetTotalTime@path@@QBEMH@Z 004e6710 f   Gamelib:Path.obj
 0001:000e6120       ?UpdateBounds@path@@QAEXXZ 004e6860 f   Gamelib:Path.obj
 0001:000e6140       ?AutoGenerateRotation@path@@AAEXXZ 004e6880 f   Gamelib:Path.obj
 0001:000e6240       ?OnActivate@path@@UAEXH@Z  004e6980 f   Gamelib:Path.obj
 0001:000e6260       ?Insert@?$xarray@Ukey@path@@@@QAEAAUkey@path@@H@Z 004e69a0 f i Gamelib:Path.obj
 0001:000e63d0       ?SetCount@?$xarray@Ukey@path@@@@QAEXH@Z 004e6b10 f i Gamelib:Path.obj
 0001:000e63f0       ?SetCapacity@?$xarray@Ukey@path@@@@QAEXH@Z 004e6b30 f i Gamelib:Path.obj
 0001:000e6470       ?GetObjectRTTI@grunt@@UBEABUrtti@@XZ 004e6bb0 f i Gamelib:Grunt.obj
 0001:000e64a0       ?UseSplines@grunt@@UAEHXZ  004e6be0 f i Gamelib:Grunt.obj
 0001:000e64b0       ?AlwaysAllowMoveBackwards@grunt@@UAEHXZ 004e6bf0 f i Gamelib:Grunt.obj
 0001:000e64c0       ?Create@grunt_desc@@UAEPAVobject@@XZ 004e6c00 f i Gamelib:Grunt.obj
 0001:000e64e0       ?QuickResourceName@skin_prop_surface_desc@@UBEPBDXZ 004e6c20 f i Gamelib:SkinPropSurface.obj
 0001:000e64e0       ?QuickResourceName@generic_desc@@UBEPBDXZ 004e6c20 f i Gamelib:GenericNPC.obj
 0001:000e64e0       ?QuickResourceName@hazmat_desc@@UBEPBDXZ 004e6c20 f i Gamelib:Soldier.obj
 0001:000e64e0       ?QuickResourceName@gray_desc@@UBEPBDXZ 004e6c20 f i Gamelib:Gray.obj
 0001:000e64e0       ?QuickResourceName@grunt_desc@@UBEPBDXZ 004e6c20 f i Gamelib:Grunt.obj
 0001:000e64e0       ?QuickResourceName@soldier_desc@@UBEPBDXZ 004e6c20 f i Gamelib:Soldier.obj
 0001:000e64e0       ?QuickResourceName@mutant_tank_desc@@UBEPBDXZ 004e6c20 f i Gamelib:Mutant_Tank.obj
 0001:000e64f0       ?OnEnumProp@grunt_desc@@UAEXAAVprop_enum@@@Z 004e6c30 f i Gamelib:Grunt.obj
 0001:000e6530       ?OnProperty@grunt_desc@@UAEHAAVprop_query@@@Z 004e6c70 f i Gamelib:Grunt.obj
 0001:000e6580       ?GetTypeDesc@grunt@@UBEABVobject_desc@@XZ 004e6cc0 f   Gamelib:Grunt.obj
 0001:000e6590       ??0grunt@@QAE@XZ           004e6cd0 f   Gamelib:Grunt.obj
 0001:000e6730       ??_Egrunt@@UAEPAXI@Z       004e6e70 f i Gamelib:Grunt.obj
 0001:000e6730       ??_Ggrunt@@UAEPAXI@Z       004e6e70 f i Gamelib:Grunt.obj
 0001:000e6760       ??1grunt@@UAE@XZ           004e6ea0 f   Gamelib:Grunt.obj
 0001:000e67e0       ?OnAnimEvent@grunt@@UAEHABUanim_event@@ABTvector3@@@Z 004e6f20 f   Gamelib:Grunt.obj
 0001:000e6800       ?HandleSpecialImpactAnim@grunt@@UAEHW4eHitType@actor@@@Z 004e6f40 f   Gamelib:Grunt.obj
 0001:000e68b0       ?OnProperty@grunt@@UAEHAAVprop_query@@@Z 004e6ff0 f   Gamelib:Grunt.obj
 0001:000e6aa0       ?GetObjectRTTI@mutant_parasite_projectile@@UBEABUrtti@@XZ 004e71e0 f i Gamelib:ProjectileMutantParasite2.obj
 0001:000e6aa0       ?GetRTTI@mutant_parasite_projectile@@SAABUrtti@@XZ 004e71e0 f i Gamelib:WeaponMutation.obj
 0001:000e6ad0       ?Create@mutant_parasite_projectile_desc@@UAEPAVobject@@XZ 004e7210 f i Gamelib:ProjectileMutantParasite2.obj
 0001:000e6af0       ?GetTypeDesc@mutant_parasite_projectile@@UBEABVobject_desc@@XZ 004e7230 f   Gamelib:ProjectileMutantParasite2.obj
 0001:000e6b00       ??0mutant_parasite_projectile@@QAE@XZ 004e7240 f   Gamelib:ProjectileMutantParasite2.obj
 0001:000e6cd0       ??_Emutant_parasite_projectile@@UAEPAXI@Z 004e7410 f i Gamelib:ProjectileMutantParasite2.obj
 0001:000e6cd0       ??_Gmutant_parasite_projectile@@UAEPAXI@Z 004e7410 f i Gamelib:ProjectileMutantParasite2.obj
 0001:000e6d00       ??1mutant_parasite_projectile@@UAE@XZ 004e7440 f   Gamelib:ProjectileMutantParasite2.obj
 0001:000e6db0       ?OnAdvanceLogic@mutant_parasite_projectile@@UAEXM@Z 004e74f0 f   Gamelib:ProjectileMutantParasite2.obj
 0001:000e7210       ?Initialize@mutant_parasite_projectile@@UAEXABTvector3@@ABUradian3@@0MUguid@@Vpain_handle@@HH@Z 004e7950 f   Gamelib:ProjectileMutantParasite2.obj
 0001:000e7640       ?OnRenderTransparent@mutant_parasite_projectile@@UAEXXZ 004e7d80 f   Gamelib:ProjectileMutantParasite2.obj
 0001:000e7680       ?HandleCollision@mutant_parasite_projectile@@IAEHAAUcollision@collision_mgr@@PAVobject@@@Z 004e7dc0 f   Gamelib:ProjectileMutantParasite2.obj
 0001:000e7c00       ?SetTarget@mutant_parasite_projectile@@UAEXUguid@@@Z 004e8340 f   Gamelib:ProjectileMutantParasite2.obj
 0001:000e7c20       ?OnExplode@mutant_parasite_projectile@@UAEXXZ 004e8360 f   Gamelib:ProjectileMutantParasite2.obj
 0001:000e7d90       ?OnImpact@mutant_parasite_projectile@@UAEXAAUcollision@collision_mgr@@PAVobject@@@Z 004e84d0 f   Gamelib:ProjectileMutantParasite2.obj
 0001:000e7e60       ?SetupType@mutant_parasite_projectile@@IAEXXZ 004e85a0 f   Gamelib:ProjectileMutantParasite2.obj
 0001:000e8040       ?UpdateTarget@mutant_parasite_projectile@@IAEXM@Z 004e8780 f   Gamelib:ProjectileMutantParasite2.obj
 0001:000e8120       ?ScorePotentialTarget@mutant_parasite_projectile@@IAEMPAVobject@@@Z 004e8860 f   Gamelib:ProjectileMutantParasite2.obj
 0001:000e83f0       ?GetNewTarget@mutant_parasite_projectile@@IAEXXZ 004e8b30 f   Gamelib:ProjectileMutantParasite2.obj
 0001:000e8990       ?UpdateTargetPoint@mutant_parasite_projectile@@IAEHXZ 004e90d0 f   Gamelib:ProjectileMutantParasite2.obj
 0001:000e8d30       ?UpdateTrajectory@mutant_parasite_projectile@@IAEXM@Z 004e9470 f   Gamelib:ProjectileMutantParasite2.obj
 0001:000e9390       ?GetWanderScale@mutant_parasite_projectile@@IAEMXZ 004e9ad0 f   Gamelib:ProjectileMutantParasite2.obj
 0001:000e9490       ?CheckInternalCollision@mutant_parasite_projectile@@IAEXM@Z 004e9bd0 f   Gamelib:ProjectileMutantParasite2.obj
 0001:000e9a20       ?GetWanderVector@mutant_parasite_projectile@@IAE?ATvector3@@XZ 004ea160 f   Gamelib:ProjectileMutantParasite2.obj
 0001:000e9b20       ?ResyncGhosts@mutant_parasite_projectile@@QAEXXZ 004ea260 f   Gamelib:ProjectileMutantParasite2.obj
 0001:000e9bb0       ?net_AcceptActivate@mutant_parasite_projectile@@UAEXABVbitstream@@@Z 004ea2f0 f   Gamelib:ProjectileMutantParasite2.obj
 0001:000e9cd0       ?net_ProvideActivate@mutant_parasite_projectile@@UAEXAAVbitstream@@@Z 004ea410 f   Gamelib:ProjectileMutantParasite2.obj
 0001:000e9d70       ?net_AcceptStart@mutant_parasite_projectile@@UAEXABVbitstream@@@Z 004ea4b0 f   Gamelib:ProjectileMutantParasite2.obj
 0001:000e9f20       ?net_ProvideStart@mutant_parasite_projectile@@UAEXAAVbitstream@@@Z 004ea660 f   Gamelib:ProjectileMutantParasite2.obj
 0001:000e9fc0       ?SetStart@mutant_parasite_projectile@@UAEXABTvector3@@ABUradian3@@0HHM@Z 004ea700 f   Gamelib:ProjectileMutantParasite2.obj
 0001:000ea000       ?Setup@matrix4@@QAEXABTvector3@@M@Z 004ea740 f i Gamelib:ProjectileHoming.obj
 0001:000ea170       ?GetObjectRTTI@homing_projectile@@UBEABUrtti@@XZ 004ea8b0 f i Gamelib:ProjectileHoming.obj
 0001:000ea1a0       ?SetTarget@homing_projectile@@UAEXUguid@@@Z 004ea8e0 f i Gamelib:ProjectileHoming.obj
 0001:000ea1c0       ?SetTargetPosition@homing_projectile@@UAEXABTvector3@@@Z 004ea900 f i Gamelib:ProjectileHoming.obj
 0001:000ea1f0       ?Create@homing_projectile_desc@@UAEPAVobject@@XZ 004ea930 f i Gamelib:ProjectileHoming.obj
 0001:000ea210       ?GetTypeDesc@homing_projectile@@UBEABVobject_desc@@XZ 004ea950 f   Gamelib:ProjectileHoming.obj
 0001:000ea220       ??0homing_projectile@@QAE@XZ 004ea960 f   Gamelib:ProjectileHoming.obj
 0001:000ea330       ??_Gexplosive_bullet_projectile@@UAEPAXI@Z 004eaa70 f i Gamelib:ProjectileExplosiveBullett.obj
 0001:000ea330       ??_Ebase_projectile@@UAEPAXI@Z 004eaa70 f i Gamelib:BaseProjectile.obj
 0001:000ea330       ??_Ghoming_projectile@@UAEPAXI@Z 004eaa70 f i Gamelib:ProjectileHoming.obj
 0001:000ea330       ??_Gbullet_projectile@@UAEPAXI@Z 004eaa70 f i Gamelib:ProjectileBullett.obj
 0001:000ea330       ??_Ebullet_projectile@@UAEPAXI@Z 004eaa70 f i Gamelib:ProjectileBullett.obj
 0001:000ea330       ??_Gbase_projectile@@UAEPAXI@Z 004eaa70 f i Gamelib:BaseProjectile.obj
 0001:000ea330       ??_Eexplosive_bullet_projectile@@UAEPAXI@Z 004eaa70 f i Gamelib:ProjectileExplosiveBullett.obj
 0001:000ea330       ??_Ehoming_projectile@@UAEPAXI@Z 004eaa70 f i Gamelib:ProjectileHoming.obj
 0001:000ea360       ?Initialize@homing_projectile@@UAEXABTvector3@@ABUradian3@@0MUguid@@Vpain_handle@@H@Z 004eaaa0 f   Gamelib:ProjectileHoming.obj
 0001:000ea3e0       ?GetLocalBBox@homing_projectile@@UBE?AUbbox@@XZ 004eab20 f   Gamelib:ProjectileHoming.obj
 0001:000ea440       ?UpdatePhysics@homing_projectile@@UAEXABM@Z 004eab80 f   Gamelib:ProjectileHoming.obj
 0001:000ea6d0       ?OnAdvanceLogic@homing_projectile@@UAEXM@Z 004eae10 f   Gamelib:ProjectileHoming.obj
 0001:000ea880       ?OnMove@homing_projectile@@UAEXABTvector3@@@Z 004eafc0 f   Gamelib:ProjectileHoming.obj
 0001:000ea8c0       ?GetAimAtPosition@homing_projectile@@MAE?ATvector3@@XZ 004eb000 f   Gamelib:ProjectileHoming.obj
 0001:000ea9d0       ?UpdateVelocity@homing_projectile@@MAEXM@Z 004eb110 f   Gamelib:ProjectileHoming.obj
 0001:000eb040       ?OnEnumProp@homing_projectile@@UAEXAAVprop_enum@@@Z 004eb780 f   Gamelib:ProjectileHoming.obj
 0001:000eb0b0       ?OnProperty@homing_projectile@@UAEHAAVprop_query@@@Z 004eb7f0 f   Gamelib:ProjectileHoming.obj
 0001:000eb1c0       ?GetTargetPoint@homing_projectile@@MAE?ATvector3@@PAVobject@@@Z 004eb900 f   Gamelib:ProjectileHoming.obj
 0001:000eb300       ?GetRTTI@light_obj@@SAABUrtti@@XZ 004eba40 f i Gamelib:LightObject.obj
 0001:000eb360       ?GetObjectRTTI@light_obj@@UBEABUrtti@@XZ 004ebaa0 f i Gamelib:LightObject.obj
 0001:000eb370       ?GetLocalBBox@light_obj@@UBE?AUbbox@@XZ 004ebab0 f i Gamelib:LightObject.obj
 0001:000eb390       ?GetObjectRTTI@character_light_obj@@UBEABUrtti@@XZ 004ebad0 f i Gamelib:LightObject.obj
 0001:000eb3c0       ?GetObjectRTTI@dynamic_light_obj@@UBEABUrtti@@XZ 004ebb00 f i Gamelib:LightObject.obj
 0001:000eb3f0       ?Create@light_obj_desc@@UAEPAVobject@@XZ 004ebb30 f i Gamelib:LightObject.obj
 0001:000eb410       ?GetTypeDesc@light_obj@@UBEABVobject_desc@@XZ 004ebb50 f   Gamelib:LightObject.obj
 0001:000eb420       ??0light_obj@@QAE@XZ       004ebb60 f   Gamelib:LightObject.obj
 0001:000eb4b0       ?OnRender@light_obj@@MAEXXZ 004ebbf0 f   Gamelib:LightObject.obj
 0001:000eb520       ?OnEnumProp@light_obj@@UAEXAAVprop_enum@@@Z 004ebc60 f   Gamelib:LightObject.obj
 0001:000eb590       ?OnProperty@light_obj@@UAEHAAVprop_query@@@Z 004ebcd0 f   Gamelib:LightObject.obj
 0001:000eb690       ?Create@character_light_obj_desc@@UAEPAVobject@@XZ 004ebdd0 f i Gamelib:LightObject.obj
 0001:000eb6c0       ?GetTypeDesc@character_light_obj@@UBEABVobject_desc@@XZ 004ebe00 f   Gamelib:LightObject.obj
 0001:000eb6d0       ?OnEnumProp@character_light_obj@@UAEXAAVprop_enum@@@Z 004ebe10 f   Gamelib:LightObject.obj
 0001:000eb720       ?Create@dynamic_light_obj_desc@@UAEPAVobject@@XZ 004ebe60 f i Gamelib:LightObject.obj
 0001:000eb740       ?GetTypeDesc@dynamic_light_obj@@UBEABVobject_desc@@XZ 004ebe80 f   Gamelib:LightObject.obj
 0001:000eb750       ??0dynamic_light_obj@@QAE@XZ 004ebe90 f   Gamelib:LightObject.obj
 0001:000eb7f0       ?OnEnumProp@dynamic_light_obj@@UAEXAAVprop_enum@@@Z 004ebf30 f   Gamelib:LightObject.obj
 0001:000eb8d0       ?OnProperty@dynamic_light_obj@@UAEHAAVprop_query@@@Z 004ec010 f   Gamelib:LightObject.obj
 0001:000ebc30       ?CalcT@dynamic_light_obj@@IAEMXZ 004ec370 f   Gamelib:LightObject.obj
 0001:000ebcb0       ?StartFadeIn@dynamic_light_obj@@IAEXXZ 004ec3f0 f   Gamelib:LightObject.obj
 0001:000ebd10       ?StartFadeOut@dynamic_light_obj@@IAEXXZ 004ec450 f   Gamelib:LightObject.obj
 0001:000ebd70       ?ActivateConstant@dynamic_light_obj@@IAEXH@Z 004ec4b0 f   Gamelib:LightObject.obj
 0001:000ebd70       ?ActivateOneShotFade@dynamic_light_obj@@IAEXH@Z 004ec4b0 f   Gamelib:LightObject.obj
 0001:000ebdc0       ?OnActivate@dynamic_light_obj@@UAEXH@Z 004ec500 f   Gamelib:LightObject.obj
 0001:000ebe70       ?ConstantLogic@dynamic_light_obj@@IAEXM@Z 004ec5b0 f   Gamelib:LightObject.obj
 0001:000ebf10       ?FlashingLogic@dynamic_light_obj@@IAEXM@Z 004ec650 f   Gamelib:LightObject.obj
 0001:000ebfc0       ?RandomLogic@dynamic_light_obj@@IAEXM@Z 004ec700 f   Gamelib:LightObject.obj
 0001:000ec0d0       ?OneShotFadeLogic@dynamic_light_obj@@IAEXM@Z 004ec810 f   Gamelib:LightObject.obj
 0001:000ec170       ?OnAdvanceLogic@dynamic_light_obj@@UAEXM@Z 004ec8b0 f   Gamelib:LightObject.obj
 0001:000ec1c0       ?OnRender@dynamic_light_obj@@UAEXXZ 004ec900 f   Gamelib:LightObject.obj
 0001:000ec230       ?Setup@light_obj@@UAEXABTvector3@@Uxcolor@@MMH@Z 004ec970 f   Gamelib:LightObject.obj
 0001:000ec2a0       ?WarningBox@MemCardMgr@@AAEXPBG0H@Z 004ec9e0 f   Gamelib:MemCardMgrDialog.obj
 0001:000ec4b0       ?OptionBox@MemCardMgr@@AAEXPBG0000HH@Z 004ecbf0 f   Gamelib:MemCardMgrDialog.obj
 0001:000ec670       ?PopUpBox@MemCardMgr@@AAEXPBG00HHH@Z 004ecdb0 f   Gamelib:MemCardMgrDialog.obj
 0001:000ec750       ?MC_STATE_SAVE_PROFILE@MemCardMgr@@QAEXXZ 004ece90 f   Gamelib:Action_SaveProfile.obj
 0001:000ec890       ?MC_STATE_SAVE_PROFILE_SET_DIR_WAIT@MemCardMgr@@QAEXXZ 004ecfd0 f   Gamelib:Action_SaveProfile.obj
 0001:000ec990       ?MC_STATE_PROFILE_WRITE_WAIT@MemCardMgr@@QAEXXZ 004ed0d0 f   Gamelib:Action_SaveProfile.obj
 0001:000eca60       ?MC_STATE_SAVE_PROFILE_FAILED@MemCardMgr@@QAEXXZ 004ed1a0 f   Gamelib:Action_SaveProfile.obj
 0001:000ecc20       ?MC_STATE_SAVE_PROFILE_FAILED_WAIT@MemCardMgr@@QAEXXZ 004ed360 f   Gamelib:Action_SaveProfile.obj
 0001:000ecc70       ?MC_STATE_SAVE_PROFILE_SUCCESS@MemCardMgr@@QAEXXZ 004ed3b0 f   Gamelib:Action_SaveProfile.obj
 0001:000ecd10       ?MC_STATE_DELETE_PROFILE_SUCCESS_WAIT@MemCardMgr@@QAEXXZ 004ed450 f   Gamelib:Action_DeleteProfile.obj
 0001:000ecd10       ?MC_STATE_OVERWRITE_SUCCESS_WAIT@MemCardMgr@@QAEXXZ 004ed450 f   Gamelib:Action_SaveProfile.obj
 0001:000ecd10       ?MC_STATE_SAVE_PROFILE_SUCCESS_WAIT@MemCardMgr@@QAEXXZ 004ed450 f   Gamelib:Action_SaveProfile.obj
 0001:000ecd70       ?MC_STATE_DONE@MemCardMgr@@QAEXXZ 004ed4b0 f   Gamelib:Action_SaveProfile.obj
 0001:000ecd90       ?MC_STATE_OVERWRITE_CONFIRM@MemCardMgr@@QAEXXZ 004ed4d0 f   Gamelib:Action_SaveProfile.obj
 0001:000ece90       ?MC_STATE_OVERWRITE_CONFIRM_WAIT@MemCardMgr@@QAEXXZ 004ed5d0 f   Gamelib:Action_SaveProfile.obj
 0001:000ecf80       ?MC_STATE_OVERWRITE_RECHECK@MemCardMgr@@QAEXXZ 004ed6c0 f   Gamelib:Action_SaveProfile.obj
 0001:000ecfe0       ?MC_STATE_OVERWRITE_PROFILE@MemCardMgr@@QAEXXZ 004ed720 f   Gamelib:Action_SaveProfile.obj
 0001:000ed190       ?MC_STATE_OVERWRITE_SUCCESS@MemCardMgr@@QAEXXZ 004ed8d0 f   Gamelib:Action_SaveProfile.obj
 0001:000ed230       ?MC_ACTION_SAVE_PROFILE@MemCardMgr@@QAEXXZ 004ed970 f   Gamelib:Action_SaveProfile.obj
 0001:000ed2f0       ?MC_ACTION_OVERWRITE_PROFILE@MemCardMgr@@QAEXXZ 004eda30 f   Gamelib:Action_SaveProfile.obj
 0001:000ed3a0       ?PushState@?$queue_machine@$0EA@@@QAEXP8MemCardMgr@@AEXXZ@Z 004edae0 f i Gamelib:Action_SaveProfile.obj
 0001:000ed410       ?Open@movie_player@@QAEHPBDHH@Z 004edb50 f   Gamelib:MoviePlayer.obj
 0001:000ed480       ?Close@movie_player@@QAEXXZ 004edbc0 f   Gamelib:MoviePlayer.obj
 0001:000ed4b0       ?Kill@movie_player@@QAEXXZ 004edbf0 f   Gamelib:MoviePlayer.obj
 0001:000ed4f0       ?PlaySimpleMovie@@YAHPBD@Z 004edc30 f   Gamelib:MoviePlayer.obj
 0001:000ed8f0       ?MC_STATE_MOUNT@MemCardMgr@@QAEXXZ 004ee030 f   Gamelib:Action_BootCheck.obj
 0001:000ed980       ?MC_STATE_MOUNT_WAIT@MemCardMgr@@QAEXXZ 004ee0c0 f   Gamelib:Action_BootCheck.obj
 0001:000eda00       ?MC_CHECK_CARD_HOLD@MemCardMgr@@QAEXXZ 004ee140 f   Gamelib:Action_BootCheck.obj
 0001:000eda40       ?MC_CHECK_CARD_WAIT@MemCardMgr@@QAEXXZ 004ee180 f   Gamelib:Action_BootCheck.obj
 0001:000eda60       ?MC_CHECK_CARD_HOLD_WAIT@MemCardMgr@@QAEXXZ 004ee1a0 f   Gamelib:Action_BootCheck.obj
 0001:000eda60       ?MC_STATE_SAVE_SETTINGS_SUCCESS_WAIT@MemCardMgr@@QAEXXZ 004ee1a0 f   Gamelib:Action_SaveSettings.obj
 0001:000eda60       ?MC_STATE_LOAD_PROFILE_SUCCESS_WAIT@MemCardMgr@@QAEXXZ 004ee1a0 f   Gamelib:Action_LoadProfile.obj
 0001:000eda60       ?MC_STATE_TRAWL_CHECK_CARD_HOLD@MemCardMgr@@QAEXXZ 004ee1a0 f   Gamelib:Action_PollCards.obj
 0001:000eda80       ?MC_STATE_BOOT_CHECK@MemCardMgr@@QAEXXZ 004ee1c0 f   Gamelib:Action_BootCheck.obj
 0001:000edc50       ?MC_STATE_BOOT_CHECK_WAIT@MemCardMgr@@QAEXXZ 004ee390 f   Gamelib:Action_BootCheck.obj
 0001:000ede70       ?MC_STATE_FIND_PROFILE@MemCardMgr@@QAEXXZ 004ee5b0 f   Gamelib:Action_BootCheck.obj
 0001:000edf00       ?MC_STATE_FIND_PROFILE_WAIT@MemCardMgr@@QAEXXZ 004ee640 f   Gamelib:Action_BootCheck.obj
 0001:000edff0       ?MC_STATE_FIND_PROFILE_CHECK@MemCardMgr@@QAEXXZ 004ee730 f   Gamelib:Action_BootCheck.obj
 0001:000ee0c0       ?MC_STATE_UNMOUNT@MemCardMgr@@QAEXXZ 004ee800 f   Gamelib:Action_BootCheck.obj
 0001:000ee100       ?MC_STATE_UNMOUNT_WAIT@MemCardMgr@@QAEXXZ 004ee840 f   Gamelib:Action_BootCheck.obj
 0001:000ee160       ?MC_STATE_BOOT_ACTION_DONE@MemCardMgr@@QAEXXZ 004ee8a0 f   Gamelib:Action_BootCheck.obj
 0001:000ee250       ?MC_ACTION_BOOT_CHECK@MemCardMgr@@QAEXXZ 004ee990 f   Gamelib:Action_BootCheck.obj
 0001:000ee390       ?Append@?$xarray@Uprofile_info@@@@QAEAAUprofile_info@@XZ 004eead0 f i Gamelib:Action_BootCheck.obj
 0001:000ee4d0       ??4?$xarray@Uprofile_info@@@@QAEABV0@ABV0@@Z 004eec10 f i Gamelib:Action_BootCheck.obj
 0001:000ee5a0       ?MC_STATE_CREATE_SETTINGS@MemCardMgr@@QAEXXZ 004eece0 f   Gamelib:Action_SaveSettings.obj
 0001:000ee690       ?MC_STATE_CREATE_SETTINGS_CREATE_DIR_WAIT@MemCardMgr@@QAEXXZ 004eedd0 f   Gamelib:Action_SaveSettings.obj
 0001:000ee740       ?MC_STATE_SAVE_SETTINGS@MemCardMgr@@QAEXXZ 004eee80 f   Gamelib:Action_SaveSettings.obj
 0001:000ee830       ?MC_STATE_SAVE_SETTINGS_SET_DIR_WAIT@MemCardMgr@@QAEXXZ 004eef70 f   Gamelib:Action_SaveSettings.obj
 0001:000ee920       ?MC_STATE_SAVE_SETTINGS_WRITE_WAIT@MemCardMgr@@QAEXXZ 004ef060 f   Gamelib:Action_SaveSettings.obj
 0001:000ee9e0       ?MC_STATE_SAVE_SETTINGS_FAILED@MemCardMgr@@QAEXXZ 004ef120 f   Gamelib:Action_SaveSettings.obj
 0001:000eece0       ?MC_STATE_SAVE_SETTINGS_FAILED_WAIT@MemCardMgr@@QAEXXZ 004ef420 f   Gamelib:Action_SaveSettings.obj
 0001:000eed80       ?MC_STATE_SAVE_SETTINGS_SUCCESS@MemCardMgr@@QAEXXZ 004ef4c0 f   Gamelib:Action_SaveSettings.obj
 0001:000eee40       ?MC_ACTION_SAVE_SETTINGS@MemCardMgr@@QAEXXZ 004ef580 f   Gamelib:Action_SaveSettings.obj
 0001:000eeef0       ?MC_ACTION_CREATE_SETTINGS@MemCardMgr@@QAEXXZ 004ef630 f   Gamelib:Action_SaveSettings.obj
 0001:000eefa0       ?s_malloc@@YGPAXK@Z        004ef6e0 f   Gamelib:MoviePlayer_Bink.obj
 0001:000eefb0       ?s_free@@YGXPAX@Z          004ef6f0 f   Gamelib:MoviePlayer_Bink.obj
 0001:000eefc0       ?Init@movie_private@@QAEXXZ 004ef700 f   Gamelib:MoviePlayer_Bink.obj
 0001:000ef030       ?Open@movie_private@@QAEHPBDHH@Z 004ef770 f   Gamelib:MoviePlayer_Bink.obj
 0001:000ef110       ?Close@movie_private@@QAEXXZ 004ef850 f   Gamelib:MoviePlayer_Bink.obj
 0001:000ef160       ?Decode@movie_private@@QAEPAVxbitmap@@XZ 004ef8a0 f   Gamelib:MoviePlayer_Bink.obj
 0001:000ef2c0       ?ItemToDisplayName@inventory2@@SAPBGW4inven_item@@@Z 004efa00 f   Gamelib:Inventory2.obj
 0001:000ef300       ?NameToItem@inventory2@@SA?AW4inven_item@@PBD@Z 004efa40 f   Gamelib:Inventory2.obj
 0001:000ef360       ?AmmoToWeapon@inventory2@@SA?AW4inven_item@@W42@@Z 004efaa0 f   Gamelib:Inventory2.obj
 0001:000ef3b0       ?WeaponToAmmo@inventory2@@SA?AW4inven_item@@W42@@Z 004efaf0 f   Gamelib:Inventory2.obj
 0001:000ef410       ?GetEnumString@inventory2@@SA?AVxstring@@XZ 004efb50 f   Gamelib:Inventory2.obj
 0001:000ef510       ?GetEnumStringWeapons@inventory2@@SA?AVxstring@@XZ 004efc50 f   Gamelib:Inventory2.obj
 0001:000ef600       ?GetEnumStringGrenades@inventory2@@SA?AVxstring@@XZ 004efd40 f   Gamelib:Inventory2.obj
 0001:000ef750       ?ItemToBlueprintName@inventory2@@SAPBDW4inven_item@@@Z 004efe90 f   Gamelib:Inventory2.obj
 0001:000ef7e0       ?ItemToPickupGeomName@inventory2@@SAPBDW4inven_item@@M@Z 004eff20 f   Gamelib:Inventory2.obj
 0001:000ef8d0       ?GetMaxAmount@inventory2@@QAEMW4inven_item@@@Z 004f0010 f   Gamelib:Inventory2.obj
 0001:000ef900       ?CanHoldMore@inventory2@@QAEHW4inven_item@@@Z 004f0040 f   Gamelib:Inventory2.obj
 0001:000ef940       ?Init@secret_list@@QAEXXZ  004f0080 f   Gamelib:SecretList.obj
 0001:000ef9d0       ?Append@secret_list@@AAEHABUsecret_entry@@@Z 004f0110 f   Gamelib:SecretList.obj
 0001:000efa40       ?Append@secret_list@@QAEXPBD@Z 004f0180 f   Gamelib:SecretList.obj
 0001:000efb80       ?GetNBones@loco_char_anim_player@@QBEHXZ 004f02c0 f i Gamelib:Actor.obj
 0001:000efbd0       ?GetBone@loco_char_anim_player@@QBEABUanim_bone@@H@Z 004f0310 f i Gamelib:Actor.obj
 0001:000efc30       ?GetBoneL2Ws@loco_char_anim_player@@QAEPBTmatrix4@@XZ 004f0370 f i Gamelib:Actor.obj
 0001:000efc70       ?IsAtDestination@loco@@QAEHXZ 004f03b0 f i Gamelib:Actor.obj
 0001:000efc90       ?ComputeL2W@loco@@QAEPBTmatrix4@@XZ 004f03d0 f i Gamelib:Actor.obj
 0001:000efce0       ?IsAnimLoaded@loco@@QAEHXZ 004f0420 f i Gamelib:Actor.obj
 0001:000efd20       ?GetObjectRTTI@actor@@UBEABUrtti@@XZ 004f0460 f i Gamelib:Actor.obj
 0001:000efd20       ?GetRTTI@actor@@SAABUrtti@@XZ 004f0460 f i Gamelib:SimpleUtils.obj
 0001:000efd50       ?GetLogicalName@actor@@UAEPBDXZ 004f0490 f i Gamelib:Actor.obj
 0001:000efd60       ?GetRTTI@player_loco@@SAABUrtti@@XZ 004f04a0 f i Gamelib:Actor.obj
 0001:000efdc0       ??0actor@@QAE@XZ           004f0500 f   Gamelib:Actor.obj
 0001:000f0390       ??_Gactor@@UAEPAXI@Z       004f0ad0 f i Gamelib:Actor.obj
 0001:000f0390       ??_Eactor@@UAEPAXI@Z       004f0ad0 f i Gamelib:Actor.obj
 0001:000f03c0       ??1actor@@UAE@XZ           004f0b00 f   Gamelib:Actor.obj
 0001:000f0500       ?OnKill@actor@@UAEXXZ      004f0c40 f   Gamelib:Actor.obj
 0001:000f05c0       ??1mp_contagion@actor@@QAE@XZ 004f0d00 f i Gamelib:Actor.obj
 0001:000f0620       ?GetActorCollisionRadius@actor@@UAEMXZ 004f0d60 f   Gamelib:Actor.obj
 0001:000f0630       ?GetFloorIntensity@actor@@QAEMXZ 004f0d70 f   Gamelib:Actor.obj
 0001:000f0690       ?GetSightYaw@actor@@UBEMXZ 004f0dd0 f   Gamelib:Actor.obj
 0001:000f06c0       ?GetPositionWithOffset@actor@@UAE?ATvector3@@W4eOffsetPos@1@@Z 004f0e00 f   Gamelib:Actor.obj
 0001:000f0880       ?GetMovementNoiseLevel@actor@@UAEMXZ 004f0fc0 f   Gamelib:Actor.obj
 0001:000f08e0       ?GetHeadAndRootPosition@actor@@UAEXAATvector3@@0@Z 004f1020 f   Gamelib:Actor.obj
 0001:000f0a20       ?ReloadAllWeapons@actor@@UAEXXZ 004f1160 f   Gamelib:Actor.obj
 0001:000f0af0       ?AddItemToInventory2@actor@@UAEHW4inven_item@@@Z 004f1230 f   Gamelib:Actor.obj
 0001:000f0b80       ?RemoveItemFromInventory2@actor@@UAEHW4inven_item@@H@Z 004f12c0 f   Gamelib:Actor.obj
 0001:000f0bf0       ?AddAmmoToInventory2@actor@@UAEXW4inven_item@@H@Z 004f1330 f   Gamelib:Actor.obj
 0001:000f0c70       ?ClearInventory2@actor@@UAEXXZ 004f13b0 f   Gamelib:Actor.obj
 0001:000f0d30       ?OnEnumProp@actor@@UAEXAAVprop_enum@@@Z 004f1470 f   Gamelib:Actor.obj
 0001:000f0e40       ?OnProperty@actor@@UAEHAAVprop_query@@@Z 004f1580 f   Gamelib:Actor.obj
 0001:000f14c0       ?GetActorEffects@actor@@QAEPAVactor_effects@@H@Z 004f1c00 f   Gamelib:Actor.obj
 0001:000f1510       ?OnAdvanceLogic@actor@@UAEXM@Z 004f1c50 f   Gamelib:Actor.obj
 0001:000f1730       ?OnAdvanceGhostLogic@actor@@QAEXM@Z 004f1e70 f   Gamelib:Actor.obj
 0001:000f1810       ?OnDeathLogic@actor@@UAEXM@Z 004f1f50 f   Gamelib:Actor.obj
 0001:000f1860       ?OnRender@actor@@UAEXXZ    004f1fa0 f   Gamelib:Actor.obj
 0001:000f1c60       ?OnRenderShadowCast@actor@@UAEX_K@Z 004f23a0 f   Gamelib:Actor.obj
 0001:000f1d40       ?OnRenderTransparent@actor@@UAEXXZ 004f2480 f   Gamelib:Actor.obj
 0001:000f1da0       ?OnRenderWeapon@actor@@UAEXXZ 004f24e0 f   Gamelib:Actor.obj
 0001:000f1e30       ?OnColCheck@actor@@UAEXXZ  004f2570 f   Gamelib:Actor.obj
 0001:000f22f0       ?OnMove@actor@@UAEXABTvector3@@@Z 004f2a30 f   Gamelib:Actor.obj
 0001:000f2370       ?OnTransform@actor@@UAEXABTmatrix4@@@Z 004f2ab0 f   Gamelib:Actor.obj
 0001:000f2450       ?GetColBBox@actor@@UAE?AUbbox@@XZ 004f2b90 f   Gamelib:Actor.obj
 0001:000f2570       ?GetLocalBBox@actor@@UBE?AUbbox@@XZ 004f2cb0 f   Gamelib:Actor.obj
 0001:000f26c0       ?AddHealth@actor@@QAEHM@Z  004f2e00 f   Gamelib:Actor.obj
 0001:000f27a0       ?GetFactionForGuid@actor@@QBE?AW4factions@@Uguid@@@Z 004f2ee0 f   Gamelib:Actor.obj
 0001:000f2880       ?OnPlayFullBodyImpactAnim@actor@@UAEHW4anim_type@loco@@MI@Z 004f2fc0 f   Gamelib:Actor.obj
 0001:000f28b0       ?OnDeath@actor@@UAEXXZ     004f2ff0 f   Gamelib:Actor.obj
 0001:000f29f0       ?OnSpawn@actor@@UAEXXZ     004f3130 f   Gamelib:Actor.obj
 0001:000f2cd0       ?CreateCorpseObject@actor@@QAEPAVcorpse@@H@Z 004f3410 f   Gamelib:Actor.obj
 0001:000f2d40       ?CreateCorpse@actor@@QAEXXZ 004f3480 f   Gamelib:Actor.obj
 0001:000f2db0       ?GetHitLocation@actor@@UAE?AW4hit_location@bone@geom@@ABVpain@@@Z 004f34f0 f   Gamelib:Actor.obj
 0001:000f2e00       ?PlayImpactAnim@actor@@UAEXABVpain@@W4eHitType@1@@Z 004f3540 f   Gamelib:Actor.obj
 0001:000f3080       ?InitLoco@actor@@UAEXXZ    004f37c0 f   Gamelib:Actor.obj
 0001:000f3130       ?IsRunning@actor@@UAEHXZ   004f3870 f   Gamelib:Actor.obj
 0001:000f3170       ?IsStaggering@actor@@UAEHXZ 004f38b0 f   Gamelib:Actor.obj
 0001:000f3190       ?GetPitch@actor@@UAEMXZ    004f38d0 f   Gamelib:Actor.obj
 0001:000f31a0       ?GetYaw@actor@@UAEMXZ      004f38e0 f   Gamelib:Actor.obj
 0001:000f31b0       ?SetPitch@actor@@UAEXM@Z   004f38f0 f   Gamelib:Actor.obj
 0001:000f3200       ?SetYaw@actor@@UAEXM@Z     004f3940 f   Gamelib:Actor.obj
 0001:000f3250       ?IsPlayingFullBodyLipSync@actor@@QAEHXZ 004f3990 f   Gamelib:Actor.obj
 0001:000f32a0       ?IsPlayingFullBodyCinema@actor@@QAEHXZ 004f39e0 f   Gamelib:Actor.obj
 0001:000f32f0       ?Teleport@actor@@UAEXABTvector3@@HH@Z 004f3a30 f   Gamelib:Actor.obj
 0001:000f36a0       ?Teleport@actor@@UAEXABTvector3@@MMHH@Z 004f3de0 f   Gamelib:Actor.obj
 0001:000f36e0       ?InitZoneTracking@actor@@UAEXXZ 004f3e20 f   Gamelib:Actor.obj
 0001:000f3740       ?UpdateZoneTrack@actor@@UAEXXZ 004f3e80 f   Gamelib:Actor.obj
 0001:000f3790       ?ContagionLogic@actor@@UAEXM@Z 004f3ed0 f   Gamelib:Actor.obj
 0001:000f3e20       ?InitContagion@actor@@UAEXH@Z 004f4560 f   Gamelib:Actor.obj
 0001:000f4060       ??0mp_contagion@actor@@QAE@XZ 004f47a0 f i Gamelib:Actor.obj
 0001:000f40d0       ?KillMPContagion@actor@@UAEXXZ 004f4810 f   Gamelib:Actor.obj
 0001:000f4160       ?RenderContagion@actor@@QAEXXZ 004f48a0 f   Gamelib:Actor.obj
 0001:000f42a0       ?GetCurrentWeaponPtr@actor@@QAEPAVnew_weapon@@XZ 004f49e0 f   Gamelib:Actor.obj
 0001:000f42d0       ?GetWeaponPtr@actor@@QAEPAVnew_weapon@@W4inven_item@@@Z 004f4a10 f   Gamelib:Actor.obj
 0001:000f42f0       ?MoveWeapon@actor@@UAEXH@Z 004f4a30 f   Gamelib:Actor.obj
 0001:000f43e0       ?UpdateWeapon@actor@@QAEXM@Z 004f4b20 f   Gamelib:Actor.obj
 0001:000f4430       ?EquipWeapon2@actor@@UAEHW4inven_item@@@Z 004f4b70 f   Gamelib:Actor.obj
 0001:000f44c0       ?UnequipCurrentWeapon@actor@@UAEXXZ 004f4c00 f   Gamelib:Actor.obj
 0001:000f4500       ?IsFlashlightOn@actor@@UAEHXZ 004f4c40 f   Gamelib:Actor.obj
 0001:000f4520       ?CreateDamageEffects@actor@@UAEXABVpain@@HH@Z 004f4c60 f   Gamelib:Actor.obj
 0001:000f45b0       ?CreateSplatDecalOnGround@actor@@QAEXXZ 004f4cf0 f   Gamelib:Actor.obj
 0001:000f47a0       ?CreateSplatDecalOnWall@actor@@QAEXABVpain@@@Z 004f4ee0 f   Gamelib:Actor.obj
 0001:000f4990       ?GetDeathAnim@actor@@QAE?AW4anim_type@loco@@ABVpain@@@Z 004f50d0 f   Gamelib:Actor.obj
 0001:000f4c20       ?SendAnimEvents@actor@@UAEXXZ 004f5360 f   Gamelib:Actor.obj
 0001:000f5220       ?DoMultiplayerPainEffects@actor@@UAEXABVpain@@@Z 004f5960 f   Gamelib:Actor.obj
 0001:000f5250       ?PlayFlinch@actor@@UAEXABVpain@@@Z 004f5990 f   Gamelib:Actor.obj
 0001:000f53e0       ?PlayPainSfx@actor@@QAEXXZ 004f5b20 f   Gamelib:Actor.obj
 0001:000f54e0       ?UpdatePainSfx@actor@@QAEXM@Z 004f5c20 f   Gamelib:Actor.obj
 0001:000f5840       ?TakeDamage@actor@@UAEHABVpain@@@Z 004f5f80 f   Gamelib:Actor.obj
 0001:000f5b70       ?GetHitType@actor@@QAE?AW4eHitType@1@ABVpain@@@Z 004f62b0 f   Gamelib:Actor.obj
 0001:000f5c60       ?UpdateCloak@actor@@UAEXM@Z 004f63a0 f   Gamelib:Actor.obj
 0001:000f5d90       ?Cloak@actor@@UAEXXZ       004f64d0 f   Gamelib:Actor.obj
 0001:000f5e70       ?Decloak@actor@@UAEXXZ     004f65b0 f   Gamelib:Actor.obj
 0001:000f5f70       ?WakeUpDoors@actor@@QAEXXZ 004f66b0 f   Gamelib:Actor.obj
 0001:000f68c0       ?Push@actor@@UAEXABTvector3@@@Z 004f7000 f   Gamelib:Actor.obj
 0001:000f6970       ?GetCollisionHeight@actor@@UAEMXZ 004f70b0 f   Gamelib:Actor.obj
 0001:000f6990       ?GetCollisionRadius@actor@@UAEMXZ 004f70d0 f   Gamelib:Actor.obj
 0001:000f69b0       ?SetIsActive@actor@@QAEXH@Z 004f70f0 f   Gamelib:Actor.obj
 0001:000f6a60       ?EnumAttachPoints@actor@@UBEXAAVxstring@@@Z 004f71a0 f   Gamelib:Actor.obj
 0001:000f6bb0       ?GetAttachPointIDByName@actor@@UBEHPBD@Z 004f72f0 f   Gamelib:Actor.obj
 0001:000f6c30       ?GetAttachPointNameByID@actor@@UBE?AVxstring@@H@Z 004f7370 f   Gamelib:Actor.obj
 0001:000f6cb0       ?OnAttachedMove@actor@@UAEXHABTmatrix4@@@Z 004f73f0 f   Gamelib:Actor.obj
 0001:000f6e30       ?GetAttachPointData@actor@@UAEHHAATmatrix4@@I@Z 004f7570 f   Gamelib:Actor.obj
 0001:000f6fa0       ?GetBonesForRender@actor@@QAEPBTmatrix4@@_KAAH@Z 004f76e0 f   Gamelib:Actor.obj
 0001:000f7080       ?SetSkinVMesh@actor@@UAEXH@Z 004f77c0 f   Gamelib:Actor.obj
 0001:000f70c0       ?SetAvatarMutationState@actor@@QAEXW4avatar_mutation_state@1@@Z 004f7800 f   Gamelib:Actor.obj
 0001:000f7250       ?UpdateAvatarMutation@actor@@QAEXM@Z 004f7990 f   Gamelib:Actor.obj
 0001:000f7320       ?PrepPlayerAvatar@actor@@QAEXXZ 004f7a60 f   Gamelib:Actor.obj
 0001:000f7420       ?IsAlly@actor@@QBEHPBV1@@Z 004f7b60 f   Gamelib:Actor.obj
 0001:000f7460       ?ModifyDamageByDifficulty@actor@@UAEMM@Z 004f7ba0 f   Gamelib:Actor.obj
 0001:000f7580       ?ModifyDamageByTurret@actor@@UAEMM@Z 004f7cc0 f   Gamelib:Actor.obj
 0001:000f7600       ?SetMutated@actor@@UAEHH@Z 004f7d40 f   Gamelib:Actor.obj
 0001:000f7630       ?SetupMutationChange@actor@@UAEXH@Z 004f7d70 f   Gamelib:Actor.obj
 0001:000f7740       ?ForceMutationChange@actor@@UAEXH@Z 004f7e80 f   Gamelib:Actor.obj
 0001:000f7780       ?SetCanToggleMutation@actor@@QAEXH@Z 004f7ec0 f   Gamelib:Actor.obj
 0001:000f77b0       ?GetBonePos@actor@@UAE?ATvector3@@H@Z 004f7ef0 f   Gamelib:Actor.obj
 0001:000f77d0       ?UpdateInactive@actor@@QAEXM@Z 004f7f10 f   Gamelib:Actor.obj
 0001:000f7890       ?IsAltFiring@player@@QAEHXZ 004f7fd0 f   Gamelib:PlayerCombat.obj
 0001:000f78d0       ?IsFiring@player@@QAEHXZ   004f8010 f   Gamelib:PlayerCombat.obj
 0001:000f7920       ?GetProjectileHitLocation@player@@UAEXAATvector3@@H@Z 004f8060 f   Gamelib:PlayerCombat.obj
 0001:000f7b60       ?GetProjectileTrajectory@player@@MAE?AUradian3@@XZ 004f82a0 f   Gamelib:PlayerCombat.obj
 0001:000f7cc0       ?ApplyAimDegredation@player@@MAE?AUradian3@@MM@Z 004f8400 f   Gamelib:PlayerCombat.obj
 0001:000f7ee0       ?GetEnemyOnReticle@player@@QAE?AUguid@@XZ 004f8620 f   Gamelib:PlayerCombat.obj
 0001:000f7f10       ?GetFriendlyOnReticle@player@@QAE?AUguid@@XZ 004f8650 f   Gamelib:PlayerCombat.obj
 0001:000f7f40       ?AddAmmo2@player@@UAEHW4inven_item@@H@Z 004f8680 f   Gamelib:PlayerCombat.obj
 0001:000f80a0       ?DegradeAim@player@@UAEXM@Z 004f87e0 f   Gamelib:PlayerCombat.obj
 0001:000f80d0       ?UpdateAimAssistance@player@@IAEXM@Z 004f8810 f   Gamelib:PlayerCombat.obj
 0001:000f8280       ?UpdateCurrentAimTarget@player@@IAEXM@Z 004f89c0 f   Gamelib:PlayerCombat.obj
 0001:000f97b0       ?GetSightYaw@player@@UBEMXZ 004f9ef0 f   Gamelib:PlayerCombat.obj
 0001:000f97c0       ?SetupMutationMeleeWeapon@player@@QAE?AW4animation_state@1@XZ 004f9f00 f   Gamelib:PlayerCombat.obj
 0001:000f9890       ?GetMutationMeleeWeapon@player@@QAEPAVweapon_mutation@@XZ 004f9fd0 f   Gamelib:PlayerCombat.obj
 0001:000f9910       ?GetReticleParams@player@@IAE?AUreticle_radius_parameters@new_weapon@@XZ 004fa050 f   Gamelib:PlayerCombat.obj
 0001:000f99e0       ?UpdateReticleRadius@player@@IAEXM@Z 004fa120 f   Gamelib:PlayerCombat.obj
 0001:000f9c50       ?GetWeaponCollisionOffset@player@@IAE?ATvector3@@Uguid@@ABT2@@Z 004fa390 f   Gamelib:PlayerCombat.obj
 0001:000f9fb0       ?SetMeleeState@player@@UAEXW4animation_state@1@@Z 004fa6f0 f   Gamelib:PlayerCombat.obj
 0001:000fa010       ?AllowedToFire@player@@QAEHXZ 004fa750 f   Gamelib:PlayerCombat.obj
 0001:000fa030       ?OnWeaponSwitch2@player@@QAEXABW4cycle_direction@1@@Z 004fa770 f   Gamelib:PlayerCombat.obj
 0001:000fa120       ?SetNextWeapon2@player@@QAEXW4inven_item@@HH@Z 004fa860 f   Gamelib:PlayerCombat.obj
 0001:000fa1e0       ?GetNextAvailableWeapon2@player@@QAE?AW4inven_item@@ABW4cycle_direction@1@@Z 004fa920 f   Gamelib:PlayerCombat.obj
 0001:000fa2b0       ?RenderPill@@YAXABTvector3@@0MUxcolor@@@Z 004fa9f0 f   Gamelib:PlayerCombat.obj
 0001:000fa760       ?RenderAimAssistDebugInfo@player@@IAEXXZ 004faea0 f   Gamelib:PlayerCombat.obj
 0001:000fad20       ?AttachWeapon@player@@IAEXXZ 004fb460 f   Gamelib:PlayerCombat.obj
 0001:000faea0       ?AddNewWeapon2@player@@UAEXW4inven_item@@@Z 004fb5e0 f   Gamelib:PlayerCombat.obj
 0001:000faf30       ?ShouldSwitchToWeapon2@player@@QAEHW4inven_item@@H@Z 004fb670 f   Gamelib:PlayerCombat.obj
 0001:000fb000       ?OnWeaponAnimInit2@player@@IAEXW4inven_item@@PAVnew_weapon@@@Z 004fb740 f   Gamelib:PlayerCombat.obj
 0001:000fb130       ?GenerateFiringAnimPercentages@player@@IAEXXZ 004fb870 f   Gamelib:PlayerCombat.obj
 0001:000fb240       ?GetNextFiringAnimIndex@player@@IAEHXZ 004fb980 f   Gamelib:PlayerCombat.obj
 0001:000fb2a0       ?EmitMeleePain@player@@QAEXXZ 004fb9e0 f   Gamelib:PlayerCombat.obj
 0001:000fb6c0       ?SwitchWeapon2@player@@MAEXW4inven_item@@@Z 004fbe00 f   Gamelib:PlayerCombat.obj
 0001:000fb740       ?OnMoveWeapon@player@@MAEXXZ 004fbe80 f   Gamelib:PlayerCombat.obj
 0001:000fb7d0       ?OnTransformWeapon@player@@MAEXABTmatrix4@@@Z 004fbf10 f   Gamelib:PlayerCombat.obj
 0001:000fb820       ?HandleBulletFlyby@player@@QAEXAAVbullet_projectile@@@Z 004fbf60 f   Gamelib:PlayerCombat.obj
 0001:000fbe90       ?UpdateBulletSounds@player@@IAEXM@Z 004fc5d0 f   Gamelib:PlayerCombat.obj
 0001:000fbfd0       ?SetupDualWeaponDiscard@player@@IAEHAAW4inven_item@@@Z 004fc710 f   Gamelib:PlayerCombat.obj
 0001:000fc050       ?CreateAllWeaponObjects@player@@QAEXXZ 004fc790 f   Gamelib:PlayerCombat.obj
 0001:000fc260       ?ReloadWeapon@player@@QAEHABW4ammo_priority@new_weapon@@H@Z 004fc9a0 f   Gamelib:PlayerCombat.obj
 0001:000fc310       ?LoadWarnsLowAmmo@player@@QAEHXZ 004fca50 f   Gamelib:PlayerCombat.obj
 0001:000fc390       ?DebugEnableWeapons@player@@QAEXPBD@Z 004fcad0 f   Gamelib:PlayerCombat.obj
 0001:000fc450       ?Init@lore_list@@QAEXXZ    004fcb90 f   Gamelib:LoreList.obj
 0001:000fc500       ?Append@lore_list@@AAEHABUlore_entry@@@Z 004fcc40 f   Gamelib:LoreList.obj
 0001:000fc5a0       ?AddToVault@lore_list@@AAEHABUlore_entry@@@Z 004fcce0 f   Gamelib:LoreList.obj
 0001:000fc620       ?Find@lore_list@@QAEPBUlore_entry@@H@Z 004fcd60 f   Gamelib:LoreList.obj
 0001:000fc650       ?GetLoreName@lore_list@@QAEPBGH@Z 004fcd90 f   Gamelib:LoreList.obj
 0001:000fc710       ?GetVaultByMapID@lore_list@@QAEPAUlore_vault@@HAAH@Z 004fce50 f   Gamelib:LoreList.obj
 0001:000fc830       ?Append@lore_list@@QAEXPBD@Z 004fcf70 f   Gamelib:LoreList.obj
 0001:000fc9e0       ?OnInitialize@ingame_pad@@UAEXXZ 004fd120 f   Gamelib:GamePad.obj
 0001:000fcd90       ?OnUpdate@ingame_pad@@UAEXM@Z 004fd4d0 f   Gamelib:GamePad.obj
 0001:000fcda0       ?GetLogicalIDName@ingame_pad@@SAPBDH@Z 004fd4e0 f   Gamelib:GamePad.obj
 0001:000fcf60       ?GetLogicalIDEnum@ingame_pad@@SAPBDXZ 004fd6a0 f   Gamelib:GamePad.obj
 0001:000fcfb0       ?GetLogicalIDByName@ingame_pad@@SA?AW4logical_id@1@PBD@Z 004fd6f0 f   Gamelib:GamePad.obj
 0001:000fcfe0       ??0player_profile@@QAE@XZ  004fd720 f   Gamelib:PlayerProfile.obj
 0001:000fd010       ?Reset@player_profile@@QAEXXZ 004fd750 f   Gamelib:PlayerProfile.obj
 0001:000fd130       ?SetHash@player_profile@@QAEXXZ 004fd870 f   Gamelib:PlayerProfile.obj
 0001:000fd1c0       ?GetLoreAcquired@player_profile@@QAEHIH@Z 004fd900 f   Gamelib:PlayerProfile.obj
 0001:000fd1f0       ?SetLoreAcquired@player_profile@@QAEXII@Z 004fd930 f   Gamelib:PlayerProfile.obj
 0001:000fd280       ?AcquireSecret@player_profile@@QAEXXZ 004fd9c0 f   Gamelib:PlayerProfile.obj
 0001:000fd2b0       ?Validate@player_profile@@QAEHXZ 004fd9f0 f   Gamelib:PlayerProfile.obj
 0001:000fd2e0       ?HasChanged@player_profile@@QAEHXZ 004fda20 f   Gamelib:PlayerProfile.obj
 0001:000fd310       ?UnlockAll@player_profile@@QAEXXZ 004fda50 f   Gamelib:PlayerProfile.obj
 0001:000fd360       ?SetfRGBA@xcolor@@QAEXMMMM@Z 004fdaa0 f i Gamelib:Property.obj
 0001:000fd460       ??_Eprop_enum_counter@@UAEPAXI@Z 004fdba0 f i Gamelib:Property.obj
 0001:000fd460       ??_Eprop_enum@@UAEPAXI@Z   004fdba0 f i Gamelib:Property.obj
 0001:000fd460       ??_Gprop_enum_counter@@UAEPAXI@Z 004fdba0 f i Gamelib:Property.obj
 0001:000fd460       ??_Gprop_enum@@UAEPAXI@Z   004fdba0 f i Gamelib:Property.obj
 0001:000fd4c0       ??0prop_enum_counter@@QAE@XZ 004fdc00 f i Gamelib:Property.obj
 0001:000fd4f0       ?_PropEnumAngle@prop_enum_counter@@UAEXPBDI@Z 004fdc30 f i Gamelib:Property.obj
 0001:000fd4f0       ?_PropEnumBool@prop_enum_counter@@UAEXPBDI@Z 004fdc30 f i Gamelib:Property.obj
 0001:000fd4f0       ?_PropEnumGuid@prop_enum_counter@@UAEXPBDI@Z 004fdc30 f i Gamelib:Property.obj
 0001:000fd4f0       ?_PropEnumVector3@prop_enum_counter@@UAEXPBDI@Z 004fdc30 f i Gamelib:Property.obj
 0001:000fd4f0       ?_PropEnumString@prop_enum_counter@@UAEXPBDI@Z 004fdc30 f i Gamelib:Property.obj
 0001:000fd4f0       ?_PropEnumColor@prop_enum_counter@@UAEXPBDI@Z 004fdc30 f i Gamelib:Property.obj
 0001:000fd4f0       ?_PropEnumButton@prop_enum_counter@@UAEXPBDI@Z 004fdc30 f i Gamelib:Property.obj
 0001:000fd4f0       ?_PropEnumVector2@prop_enum_counter@@UAEXPBDI@Z 004fdc30 f i Gamelib:Property.obj
 0001:000fd4f0       ?_PropEnumFloat@prop_enum_counter@@UAEXPBDI@Z 004fdc30 f i Gamelib:Property.obj
 0001:000fd4f0       ?_PropEnumInt@prop_enum_counter@@UAEXPBDI@Z 004fdc30 f i Gamelib:Property.obj
 0001:000fd4f0       ?_PropEnumRotation@prop_enum_counter@@UAEXPBDI@Z 004fdc30 f i Gamelib:Property.obj
 0001:000fd4f0       ?_PropEnumBBox@prop_enum_counter@@UAEXPBDI@Z 004fdc30 f i Gamelib:Property.obj
 0001:000fd4f0       ?_PropEnumHeader@prop_enum_counter@@UAEXPBDI@Z 004fdc30 f i Gamelib:Property.obj
 0001:000fd500       ?_PropEnumExternal@prop_enum_counter@@UAEXPBD0I@Z 004fdc40 f i Gamelib:Property.obj
 0001:000fd500       ?_PropEnumFileName@prop_enum_counter@@UAEXPBD0I@Z 004fdc40 f i Gamelib:Property.obj
 0001:000fd500       ?_PropEnumEnum@prop_enum_counter@@UAEXPBD0I@Z 004fdc40 f i Gamelib:Property.obj
 0001:000fd510       ?ParseString@prop_query@@IAEXPBD@Z 004fdc50 f   Gamelib:Property.obj
 0001:000fd590       ?OnLoad@prop_interface@@UAEXAAVtext_in@@@Z 004fdcd0 f   Gamelib:Property.obj
 0001:000fdb40       ?OnLoad@prop_interface@@UAEXPBD@Z 004fe280 f   Gamelib:Property.obj
 0001:000fdc00       ?OnCopy@prop_interface@@UAEXAAV?$xarray@Vprop_container@@@@@Z 004fe340 f   Gamelib:Property.obj
 0001:000fdf80       ?OnPaste@prop_interface@@UAEXABV?$xarray@Vprop_container@@@@@Z 004fe6c0 f   Gamelib:Property.obj
 0001:000fe060       ?RQueryFloat@prop_query@@QAEAAV1@PBDAAM@Z 004fe7a0 f   Gamelib:Property.obj
 0001:000fe0a0       ?RQueryInt@prop_query@@QAEAAV1@PBDAAH@Z 004fe7e0 f   Gamelib:Property.obj
 0001:000fe0e0       ?RQueryBool@prop_query@@QAEAAV1@PBDAAH@Z 004fe820 f   Gamelib:Property.obj
 0001:000fe120       ?RQueryAngle@prop_query@@QAEAAV1@PBDAAM@Z 004fe860 f   Gamelib:Property.obj
 0001:000fe160       ?RQueryEnum@prop_query@@QAEAAV1@PBDPAD@Z 004fe8a0 f   Gamelib:Property.obj
 0001:000fe1a0       ?WQueryFloat@prop_query@@QAEAAV1@PBDABM@Z 004fe8e0 f   Gamelib:Property.obj
 0001:000fe1e0       ?WQueryInt@prop_query@@QAEAAV1@PBDABH@Z 004fe920 f   Gamelib:Property.obj
 0001:000fe220       ?WQueryBool@prop_query@@QAEAAV1@PBDABH@Z 004fe960 f   Gamelib:Property.obj
 0001:000fe260       ?WQueryGUID@prop_query@@QAEAAV1@PBDABUguid@@@Z 004fe9a0 f   Gamelib:Property.obj
 0001:000fe2a0       ?WQueryVector3@prop_query@@QAEAAV1@PBDABTvector3@@@Z 004fe9e0 f   Gamelib:Property.obj
 0001:000fe2e0       ?WQueryBBox@prop_query@@QAEAAV1@PBDABUbbox@@@Z 004fea20 f   Gamelib:Property.obj
 0001:000fe320       ?WQueryAngle@prop_query@@QAEAAV1@PBDABM@Z 004fea60 f   Gamelib:Property.obj
 0001:000fe360       ?WQueryRotation@prop_query@@QAEAAV1@PBDABUradian3@@@Z 004feaa0 f   Gamelib:Property.obj
 0001:000fe3a0       ?WQueryColor@prop_query@@QAEAAV1@PBDABUxcolor@@@Z 004feae0 f   Gamelib:Property.obj
 0001:000fe3e0       ?WQueryString@prop_query@@QAEAAV1@PBD0@Z 004feb20 f   Gamelib:Property.obj
 0001:000fe420       ?WQueryEnum@prop_query@@QAEAAV1@PBD0@Z 004feb60 f   Gamelib:Property.obj
 0001:000fe460       ?WQueryExternal@prop_query@@QAEAAV1@PBD0@Z 004feba0 f   Gamelib:Property.obj
 0001:000fe4a0       ?WQueryFileName@prop_query@@QAEAAV1@PBD0@Z 004febe0 f   Gamelib:Property.obj
 0001:000fe4e0       ?WQueryButton@prop_query@@QAEAAV1@PBD0@Z 004fec20 f   Gamelib:Property.obj
 0001:000fe520       ?VarFloat@prop_query@@QAEHPBDAAMMM@Z 004fec60 f   Gamelib:Property.obj
 0001:000fe520       ?VarAngle@prop_query@@QAEHPBDAAMMM@Z 004fec60 f   Gamelib:Property.obj
 0001:000fe5b0       ?VarInt@prop_query@@QAEHPBDAAHHH@Z 004fecf0 f   Gamelib:Property.obj
 0001:000fe630       ?VarBool@prop_query@@QAEHPBDAAH@Z 004fed70 f   Gamelib:Property.obj
 0001:000fe6b0       ?VarGUID@prop_query@@QAEHPBDAAUguid@@@Z 004fedf0 f   Gamelib:Property.obj
 0001:000fe720       ?VarVector3@prop_query@@QAEHPBDAATvector3@@@Z 004fee60 f   Gamelib:Property.obj
 0001:000fe7b0       ?VarBBox@prop_query@@QAEHPBDAAUbbox@@@Z 004feef0 f   Gamelib:Property.obj
 0001:000fe820       ?VarRotation@prop_query@@QAEHPBDAAUradian3@@@Z 004fef60 f   Gamelib:Property.obj
 0001:000fe8a0       ?VarColor@prop_query@@QAEHPBDAAUxcolor@@@Z 004fefe0 f   Gamelib:Property.obj
 0001:000fe930       ?VarFileName@prop_query@@QAEHPBDPADH@Z 004ff070 f   Gamelib:Property.obj
 0001:000fe930       ?VarString@prop_query@@QAEHPBDPADH@Z 004ff070 f   Gamelib:Property.obj
 0001:000fe9a0       ?VarEnum@prop_query@@QAEHPBDPAD@Z 004ff0e0 f   Gamelib:Property.obj
 0001:000fea30       ?GetVarInt@prop_query@@QAEHHH@Z 004ff170 f   Gamelib:Property.obj
 0001:000fea50       ?GetVarVector3@prop_query@@QAE?ATvector3@@XZ 004ff190 f   Gamelib:Property.obj
 0001:000fea80       ?GetVarColor@prop_query@@QAE?AUxcolor@@XZ 004ff1c0 f   Gamelib:Property.obj
 0001:000feab0       ?SetVarVector3@prop_query@@QAEXABTvector3@@@Z 004ff1f0 f   Gamelib:Property.obj
 0001:000fead0       ?SetVarColor@prop_query@@QAEXUxcolor@@@Z 004ff210 f   Gamelib:Property.obj
 0001:000feaf0       ?SetVarEnum@prop_query@@QAEXPBD@Z 004ff230 f   Gamelib:Property.obj
 0001:000feaf0       ?SetVarButton@prop_query@@QAEXPBD@Z 004ff230 f   Gamelib:Property.obj
 0001:000feb40       ?PushPath@prop_query@@QAEHPBD@Z 004ff280 f   Gamelib:Property.obj
 0001:000feba0       ?IsVar@prop_query@@QAEHPBD@Z 004ff2e0 f   Gamelib:Property.obj
 0001:000febd0       ?IsSimilarPath@prop_query@@QAEHPBD@Z 004ff310 f   Gamelib:Property.obj
 0001:000febf0       ?IsBasePath@prop_query@@QAEHPBD@Z 004ff330 f   Gamelib:Property.obj
 0001:000fec40       ??0prop_container@@QAE@XZ  004ff380 f   Gamelib:Property.obj
 0001:000fec60       ?GetDataSize@prop_container@@QBEHXZ 004ff3a0 f   Gamelib:Property.obj
 0001:000fed40       ?GetGeneric@prop_container@@QBEXPAX@Z 004ff480 f   Gamelib:Property.obj
 0001:000fee70       ??0node@prop_enum@@QAE@XZ  004ff5b0 f   Gamelib:Property.obj
 0001:000feea0       ?PushPath@prop_enum@@QAEHPBD@Z 004ff5e0 f   Gamelib:Property.obj
 0001:000feef0       ?_PropEnumBool@prop_enum@@UAEXPBDI@Z 004ff630 f   Gamelib:Property.obj
 0001:000fef50       ?_PropEnumInt@prop_enum@@UAEXPBDI@Z 004ff690 f   Gamelib:Property.obj
 0001:000fefb0       ?_PropEnumFloat@prop_enum@@UAEXPBDI@Z 004ff6f0 f   Gamelib:Property.obj
 0001:000ff010       ?_PropEnumVector2@prop_enum@@UAEXPBDI@Z 004ff750 f   Gamelib:Property.obj
 0001:000ff070       ?_PropEnumVector3@prop_enum@@UAEXPBDI@Z 004ff7b0 f   Gamelib:Property.obj
 0001:000ff0d0       ?_PropEnumRotation@prop_enum@@UAEXPBDI@Z 004ff810 f   Gamelib:Property.obj
 0001:000ff130       ?_PropEnumAngle@prop_enum@@UAEXPBDI@Z 004ff870 f   Gamelib:Property.obj
 0001:000ff190       ?_PropEnumBBox@prop_enum@@UAEXPBDI@Z 004ff8d0 f   Gamelib:Property.obj
 0001:000ff1f0       ?_PropEnumGuid@prop_enum@@UAEXPBDI@Z 004ff930 f   Gamelib:Property.obj
 0001:000ff250       ?_PropEnumColor@prop_enum@@UAEXPBDI@Z 004ff990 f   Gamelib:Property.obj
 0001:000ff2b0       ?_PropEnumString@prop_enum@@UAEXPBDI@Z 004ff9f0 f   Gamelib:Property.obj
 0001:000ff310       ?_PropEnumButton@prop_enum@@UAEXPBDI@Z 004ffa50 f   Gamelib:Property.obj
 0001:000ff370       ?_PropEnumHeader@prop_enum@@UAEXPBDI@Z 004ffab0 f   Gamelib:Property.obj
 0001:000ff3e0       ?GetEnumType@node@prop_enum@@QBEPBDH@Z 004ffb20 f   Gamelib:Property.obj
 0001:000ff420       ?_PropEnumEnum@prop_enum@@UAEXPBD0I@Z 004ffb60 f   Gamelib:Property.obj
 0001:000ff4c0       ?_PropEnumFileName@prop_enum@@UAEXPBD0I@Z 004ffc00 f   Gamelib:Property.obj
 0001:000ff530       ?_PropEnumExternal@prop_enum@@UAEXPBD0I@Z 004ffc70 f   Gamelib:Property.obj
 0001:000ff5d0       ?Append@?$xarray@Vnode@prop_enum@@@@QAEAAVnode@prop_enum@@XZ 004ffd10 f i Gamelib:Property.obj
 0001:000ff6d0       ?SetCapacity@?$xarray@Vnode@prop_enum@@@@QAEXH@Z 004ffe10 f i Gamelib:Property.obj
 0001:000ff7b0       ?Append@?$xarray@Vprop_container@@@@QAEAAVprop_container@@XZ 004ffef0 f i Gamelib:Property.obj
 0001:000ff850       ?SetCapacity@?$xarray@Vprop_container@@@@QAEXH@Z 004fff90 f i Gamelib:Property.obj
 0001:000ff8d0       ??4node@prop_enum@@QAEAAV01@ABV01@@Z 00500010 f i Gamelib:Property.obj
 0001:000ff960       ?Reset@dictionary@@QAEXXZ  005000a0 f   Gamelib:dictionary.obj
 0001:000ff9b0       ?ResizeHashTable@dictionary@@IAEXH@Z 005000f0 f   Gamelib:dictionary.obj
 0001:000ffa40       ?Find@dictionary@@IBEHPBDAAIAAH@Z 00500180 f   Gamelib:dictionary.obj
 0001:000ffb10       ?Add@dictionary@@QAEHPBD@Z 00500250 f   Gamelib:dictionary.obj
 0001:000ffbf0       ?Load@dictionary@@QAEHPAIH@Z 00500330 f   Gamelib:dictionary.obj
 0001:000ffcc0       ?Append@?$xarray@Udictionary_entry@@@@QAEAAUdictionary_entry@@XZ 00500400 f i Gamelib:dictionary.obj
 0001:000ffcc0       ?Append@?$xarray@Uspecial_render_obj@@@@QAEAAUspecial_render_obj@@XZ 00500400 f i Gamelib:Obj_Mgr.obj
 0001:000ffcc0       ?Append@?$xarray@Vcloth_connection@@@@QAEAAVcloth_connection@@XZ 00500400 f i Gamelib:Cloth.obj
 0001:000ffd30       ??0object@@IAE@XZ          00500470 f   Gamelib:object.obj
 0001:000ffe00       ?UpdateTransform@object@@IAEXXZ 00500540 f i Gamelib:object.obj
 0001:000ffe50       ?OnSpacialUpdate@object@@MAEXXZ 00500590 f i Gamelib:object.obj
 0001:000ffe90       ?OnMoveRel@object@@UAEXABTvector3@@@Z 005005d0 f   Gamelib:object.obj
 0001:000ffef0       ?OnTriggerTransform@object@@UAEXABTmatrix4@@@Z 00500630 f   Gamelib:object.obj
 0001:000fff00       ?OnActivate@tracker@@UAEXH@Z 00500640 f   Gamelib:Tracker.obj
 0001:000fff00       ?OnActivate@object@@UAEXH@Z 00500640 f   Gamelib:object.obj
 0001:000fff20       ?OnLoad@object@@UAEXAAVtext_in@@@Z 00500660 f   Gamelib:object.obj
 0001:000fff60       ?OnPaste@object@@UAEXABV?$xarray@Vprop_container@@@@@Z 005006a0 f   Gamelib:object.obj
 0001:000fffa0       ?OnColCheck@object@@MAEXXZ 005006e0 f   Gamelib:object.obj
 0001:00100050       ?OnEnumProp@object@@UAEXAAVprop_enum@@@Z 00500790 f   Gamelib:object.obj
 0001:00100210       ?HandleAttribute@object@@AAEHAAVprop_query@@PBDI@Z 00500950 f   Gamelib:object.obj
 0001:001002a0       ?OnProperty@object@@UAEHAAVprop_query@@@Z 005009e0 f   Gamelib:object.obj
 0001:00100830       ?GetScreenBBox@object@@UAE?AUbbox@@ABVview@@@Z 00500f70 f   Gamelib:object.obj
 0001:00100cd0       ?EnumAttachPoints@object@@UBEXAAVxstring@@@Z 00501410 f   Gamelib:object.obj
 0001:00100cf0       ?GetAttachPointIDByName@object@@UBEHPBD@Z 00501430 f   Gamelib:object.obj
 0001:00100d10       ?GetAttachPointNameByID@object@@UBE?AVxstring@@H@Z 00501450 f   Gamelib:object.obj
 0001:00100d40       ?OnAttachedMove@object@@UAEXHABTmatrix4@@@Z 00501480 f   Gamelib:object.obj
 0001:00100d60       ?GetAttachPointData@object@@UAEHHAATmatrix4@@I@Z 005014a0 f   Gamelib:object.obj
 0001:00100d90       ?GetGeomPtr@new_weapon@@UAEPAUgeom@@XZ 005014d0 f   Gamelib:NewWeapon.obj
 0001:00100d90       ?GetGeomPtr@object@@UAEPAUgeom@@XZ 005014d0 f   Gamelib:object.obj
 0001:00100db0       ?GetGeomName@object@@UAEPBDXZ 005014f0 f   Gamelib:object.obj
 0001:00100dd0       ?GetAnimGroupPtr@object@@UAEPAVanim_group@@XZ 00501510 f   Gamelib:object.obj
 0001:00100e20       ?GetAnimGroupName@object@@UAEPBDXZ 00501560 f   Gamelib:object.obj
 0001:00100e50       ?SetNewZoneInfo@object@@IAEXG@Z 00501590 f   Gamelib:object.obj
 0001:00100eb0       ?GetLogicalName@object@@UAEPBDXZ 005015f0 f   Gamelib:object.obj
 0001:00100ec0       ??D@YA?AUplane@@ABTmatrix4@@ABU0@@Z 00501600 f i Gamelib:CollisionMgr.obj
 0001:001011e0       ?IsInIgnoreList@collision_mgr@@AAEHUguid@@@Z 00501920 f i Gamelib:CollisionMgr.obj
 0001:00101230       ?CompareCollisions@@YAHPBX0@Z 00501970 f i Gamelib:CollisionMgr.obj
 0001:00101260       ?GetNextClusterFromRayWalk@poly_cache@@QAEPAUcluster@1@XZ 005019a0 f i Gamelib:CollisionMgr.obj
 0001:001012b0       ??0collision_mgr@@QAE@XZ   005019f0 f   Gamelib:CollisionMgr.obj
 0001:00101380       ?InitializeCollisionCheckDefaults@collision_mgr@@QAEXXZ 00501ac0 f   Gamelib:CollisionMgr.obj
 0001:00101400       ?fn_CheckCollisions@collision_mgr@@QAEHW4type@object@@II@Z 00501b40 f   Gamelib:CollisionMgr.obj
 0001:001017a0       ?StartApply@collision_mgr@@QAEXUguid@@ABTmatrix4@@1@Z 00501ee0 f   Gamelib:CollisionMgr.obj
 0001:001020f0       ?CylinderSetup@collision_mgr@@QAEXUguid@@ABTvector3@@1MM@Z 00502830 f   Gamelib:CollisionMgr.obj
 0001:001026e0       ?SphereSetup@collision_mgr@@QAEXUguid@@ABTvector3@@1M@Z 00502e20 f   Gamelib:CollisionMgr.obj
 0001:00102880       ?RaySetup@collision_mgr@@QAEXUguid@@ABTvector3@@1@Z 00502fc0 f   Gamelib:CollisionMgr.obj
 0001:001029e0       ?LineOfSightSetup@collision_mgr@@QAEXUguid@@ABTvector3@@1@Z 00503120 f   Gamelib:CollisionMgr.obj
 0001:00102a20       ?ApplySphere@collision_mgr@@QAEXABTvector3@@MIH@Z 00503160 f   Gamelib:CollisionMgr.obj
 0001:00102b70       ?ApplyTriangle@collision_mgr@@QAEXABTvector3@@00IH@Z 005032b0 f   Gamelib:CollisionMgr.obj
 0001:00102c90       ?ApplyQuad@collision_mgr@@QAEXABTvector3@@000IH@Z 005033d0 f   Gamelib:CollisionMgr.obj
 0001:00102e40       ?ApplyAABBox@collision_mgr@@QAEXABUbbox@@IH@Z 00503580 f   Gamelib:CollisionMgr.obj
 0001:00102ef0       ?ApplyOOBBox@collision_mgr@@QAEXABUbbox@@ABTmatrix4@@IH@Z 00503630 f   Gamelib:CollisionMgr.obj
 0001:00103590       ?ApplySphereToCylinder@collision_mgr@@AAEXABTvector3@@MIH@Z 00503cd0 f   Gamelib:CollisionMgr.obj
 0001:001038e0       ?ApplySphereToSphere@collision_mgr@@AAEXABTvector3@@MIH@Z 00504020 f   Gamelib:CollisionMgr.obj
 0001:00103a50       ?ApplySphereToRay@collision_mgr@@AAEXABTvector3@@MIH@Z 00504190 f   Gamelib:CollisionMgr.obj
 0001:00103c40       ?ApplyTriangleToCylinder@collision_mgr@@AAEXABTvector3@@00IH@Z 00504380 f   Gamelib:CollisionMgr.obj
 0001:001040f0       ?ApplyTriangleToStretchedSphere@collision_mgr@@AAEXABTvector3@@00IH@Z 00504830 f   Gamelib:CollisionMgr.obj
 0001:001045b0       ?ApplyTriangleToSphere@collision_mgr@@AAEXABTvector3@@00IH@Z 00504cf0 f   Gamelib:CollisionMgr.obj
 0001:00104830       ?ApplyTriangleToRay@collision_mgr@@AAEXABTvector3@@00IH@Z 00504f70 f   Gamelib:CollisionMgr.obj
 0001:00104a60       ?ApplyAABBoxToCylinder@collision_mgr@@AAEXABUbbox@@IH@Z 005051a0 f   Gamelib:CollisionMgr.obj
 0001:00104bc0       ?ApplyAABBoxToSphere@collision_mgr@@AAEXABUbbox@@IH@Z 00505300 f   Gamelib:CollisionMgr.obj
 0001:00104cd0       ?ApplyAABBoxToRay@collision_mgr@@AAEXABUbbox@@IH@Z 00505410 f   Gamelib:CollisionMgr.obj
 0001:00104dd0       ?GetCylinderSpherePositions@collision_mgr@@SAHABTvector3@@0MPAT2@H@Z 00505510 f   Gamelib:CollisionMgr.obj
 0001:00105100       ?RecordCollision@collision_mgr@@QAEXABUcollision@1@@Z 00505840 f   Gamelib:CollisionMgr.obj
 0001:001053e0       ?CleanPermeables@collision_mgr@@AAEXXZ 00505b20 f   Gamelib:CollisionMgr.obj
 0001:00105470       ?ApplySphereToPolyCache@collision_mgr@@AAEXXZ 00505bb0 f   Gamelib:CollisionMgr.obj
 0001:001058c0       ?ApplyCylinderToPolyCache@collision_mgr@@AAEXXZ 00506000 f   Gamelib:CollisionMgr.obj
 0001:00105dd0       ?ApplyRayToPolyCache@collision_mgr@@AAEXXZ 00506510 f   Gamelib:CollisionMgr.obj
 0001:00106270       ?AddToIgnoreList@collision_mgr@@QAEXPAUguid@@H@Z 005069b0 f   Gamelib:CollisionMgr.obj
 0001:001062b0       ?PreLoad@anim_loader@@UAEPAXPAI@Z 005069f0 f   Gamelib:AnimGroup.obj
 0001:00106330       ?Unload@anim_loader@@UAEXPAX@Z 00506a70 f   Gamelib:AnimGroup.obj
 0001:00106360       ?Clear@anim_group@@AAEXXZ  00506aa0 f   Gamelib:AnimGroup.obj
 0001:00106480       ?GetBoneIndex@anim_group@@QBEHPBDH@Z 00506bc0 f   Gamelib:AnimGroup.obj
 0001:001065a0       ?GetAnimIndex@anim_group@@QBEHPBD@Z 00506ce0 f   Gamelib:AnimGroup.obj
 0001:00106670       ?GetRandomAnimIndex@anim_group@@QBEHHH@Z 00506db0 f   Gamelib:AnimGroup.obj
 0001:00106700       ?ComputeBonesL2W@anim_group@@QBEXABTmatrix4@@PAUanim_key@@HPAT2@H@Z 00506e40 f   Gamelib:AnimGroup.obj
 0001:00106920       ?Load@anim_group@@QAEHPAIPBD@Z 00507060 f   Gamelib:AnimGroup.obj
 0001:00106db0       ?SetupOffsetsAndPtrs@anim_group@@QAEXH@Z 005074f0 f   Gamelib:AnimGroup.obj
 0001:00106e70       ?ReleaseCompDataPool@anim_group@@QAEXXZ 005075b0 f   Gamelib:AnimGroup.obj
 0001:00106f00       ?MoveCompDataIntoPool@anim_group@@QAEPAEPAEH@Z 00507640 f   Gamelib:AnimGroup.obj
 0001:00106f90       ?RefactorAnimKeyBlocks@anim_group@@QAEXXZ 005076d0 f   Gamelib:AnimGroup.obj
 0001:00107170       ?ResizeAnimKeyBlockHashTable@anim_group@@QAEXH@Z 005078b0 f   Gamelib:AnimGroup.obj
 0001:00107220       ?RemoveAnimKeyBlocksFromHashTable@anim_group@@QAEXXZ 00507960 f   Gamelib:AnimGroup.obj
 0001:00107290       ?MC_ACTION_POLL_CONTENT@MemCardMgr@@QAEXXZ 005079d0 f   Gamelib:Action_PollContent.obj
 0001:00107330       ?MC_STATE_LOAD_MANIFEST@MemCardMgr@@QAEXXZ 00507a70 f   Gamelib:Action_PollContent.obj
 0001:00107420       ?MC_STATE_LOAD_MANIFEST_SET_DIR_WAIT@MemCardMgr@@QAEXXZ 00507b60 f   Gamelib:Action_PollContent.obj
 0001:00107490       ?MC_STATE_LOAD_MANIFEST_READ_WAIT@MemCardMgr@@QAEXXZ 00507bd0 f   Gamelib:Action_PollContent.obj
 0001:00107520       ?GetSqrtDistToLineSeg@vector3@@QBEMABT1@0@Z 00507c60 f i Gamelib:nav_map.obj
 0001:00107630       ??0overlap_data@nav_map@@QAE@XZ 00507d70 f i Gamelib:nav_map.obj
 0001:00107660       ??0overlap_vert@nav_map@@QAE@XZ 00507da0 f i Gamelib:nav_map.obj
 0001:00107680       ??0connection2_connectivity_data@nav_map@@QAE@XZ 00507dc0 f i Gamelib:nav_map.obj
 0001:00107690       ??0connection2_data@nav_map@@QAE@XZ 00507dd0 f i Gamelib:nav_map.obj
 0001:001076f0       ??0path_find_struct@@QAE@XZ 00507e30 f   Gamelib:nav_map.obj
 0001:00107780       ?Clear@path_find_struct@@QAEXXZ 00507ec0 f   Gamelib:nav_map.obj
 0001:00107820       ??_Enav_map@@UAEPAXI@Z     00507f60 f i Gamelib:nav_map.obj
 0001:00107820       ??_Gnav_map@@UAEPAXI@Z     00507f60 f i Gamelib:nav_map.obj
 0001:00107870       ?Reset@nav_map@@UAEXXZ     00507fb0 f   Gamelib:nav_map.obj
 0001:001079c0       ?Init@nav_map@@UAEXHHHH@Z  00508100 f   Gamelib:nav_map.obj
 0001:00107b70       ??_Eng_connection2@@UAEPAXI@Z 005082b0 f i Gamelib:nav_map.obj
 0001:00107bd0       ??_Eng_node2@@UAEPAXI@Z    00508310 f i Gamelib:nav_map.obj
 0001:00107c30       ?GetConnectionData@nav_map@@UAEAAUconnection2_data@1@H@Z 00508370 f   Gamelib:nav_map.obj
 0001:00107c50       ?GetOverlapData@nav_map@@UAEAAUoverlap_data@1@H@Z 00508390 f   Gamelib:nav_map.obj
 0001:00107c60       ?GetConnectivityData@nav_map@@UAEAAUconnection2_connectivity_data@1@H@Z 005083a0 f   Gamelib:nav_map.obj
 0001:00107c70       ?GetNearestNode@nav_map@@UAEGABTvector3@@@Z 005083b0 f   Gamelib:nav_map.obj
 0001:00107e40       ?GetNearestWithIgnore@nav_map@@UAEGABTvector3@@PAGH@Z 00508580 f   Gamelib:nav_map.obj
 0001:00107ef0       ?GetNearestConnection@nav_map@@UAEGABTvector3@@@Z 00508630 f   Gamelib:nav_map.obj
 0001:00107f10       ?GetNearestConnectionInGrid@nav_map@@QAEGABTvector3@@E@Z 00508650 f   Gamelib:nav_map.obj
 0001:00108460       ?GetConnectionContainingPoint@nav_map@@QAEHAAGABTvector3@@@Z 00508ba0 f   Gamelib:nav_map.obj
 0001:00108730       ?Load@nav_map@@UAEXPAI@Z   00508e70 f   Gamelib:nav_map.obj
 0001:00108960       ?Load@nav_map@@UAEXPBD@Z   005090a0 f   Gamelib:nav_map.obj
 0001:001089b0       ?SetData@nav_map@@UAEXXZ   005090f0 f   Gamelib:nav_map.obj
 0001:00108a80       ?GetNearestPointInNavMap@nav_map@@QAE?ATvector3@@ABT2@@Z 005091c0 f   Gamelib:nav_map.obj
 0001:00108ac0       ?GetNearestPointOnConnection@nav_map@@QAE?ATvector3@@GABT2@@Z 00509200 f   Gamelib:nav_map.obj
 0001:00108d00       ?DoOverlap@nav_map@@QAEHGGPAG@Z 00509440 f   Gamelib:nav_map.obj
 0001:00108d80       ?GetClosestPointInOverlap@nav_map@@QAEHGGABTvector3@@0MAAT2@@Z 005094c0 f   Gamelib:nav_map.obj
 0001:00109060       ?GetClosestPointToLine@nav_map@@QAE?ATvector3@@PAUoverlap_vert@1@HABT2@1@Z 005097a0 f   Gamelib:nav_map.obj
 0001:001094e0       ??0ng_connection2@@QAE@ABV0@@Z 00509c20 f i Gamelib:nav_map.obj
 0001:00109510       ?ClipLine@nav_map@@QAEXAAVng_connection2@@AATvector3@@1@Z 00509c50 f   Gamelib:nav_map.obj
 0001:001095d0       ?DoesStraightPathExist@nav_map@@QAEHAAUpath_find_struct@@@Z 00509d10 f   Gamelib:nav_map.obj
 0001:001097a0       ?GetConnectionByID@nav_map@@UAEAAVng_connection2@@G@Z 00509ee0 f   Gamelib:nav_map.obj
 0001:001097e0       ?GetNodeByID@nav_map@@UAEAAVng_node2@@G@Z 00509f20 f   Gamelib:nav_map.obj
 0001:00109820       ?GetConnectionGridID@nav_map@@QAEEG@Z 00509f60 f   Gamelib:nav_map.obj
 0001:00109870       ?GetNearestConnectionInGrid@nav_map@@QAEGGABTvector3@@@Z 00509fb0 f   Gamelib:nav_map.obj
 0001:00109b50       ?GetOverlapVert@nav_map@@UBEABUoverlap_vert@1@H@Z 0050a290 f   Gamelib:nav_map.obj
 0001:00109b60       ?SetConnectionStatus@nav_map@@QAEXUguid@@H@Z 0050a2a0 f   Gamelib:nav_map.obj
 0001:00109c10       ?AddToConnectionCache@nav_map@@IAEXG@Z 0050a350 f   Gamelib:nav_map.obj
 0001:00109cc0       ?Clear@data_vault@@AAEXXZ  0050a400 f   Gamelib:DataVault.obj
 0001:00109d10       ?GetData@data_vault@@QAEPBUdata_block@@ABVdata_handle@@@Z 0050a450 f   Gamelib:DataVault.obj
 0001:00109d80       ?BuildHashTable@data_vault@@AAEXXZ 0050a4c0 f   Gamelib:DataVault.obj
 0001:00109f20       ?AddDataBlocks@data_vault@@QAEXPBDPBUdata_block@@HH@Z 0050a660 f   Gamelib:DataVault.obj
 0001:00109fc0       ?DelDataBlocks@data_vault@@QAEPAUdata_block@@PBD@Z 0050a700 f   Gamelib:DataVault.obj
 0001:0010a020       ?GatherOccluders@occluder_mgr@@QAEXXZ 0050a760 f   Gamelib:OccluderMgr.obj
 0001:0010a0c0       ?AddOccluder@occluder_mgr@@AAEXPBTvector3@@H@Z 0050a800 f   Gamelib:OccluderMgr.obj
 0001:0010a470       ?SetView@occluder_mgr@@QAEXABVview@@@Z 0050abb0 f   Gamelib:OccluderMgr.obj
 0001:0010abc0       ?IsBBoxCompletelyInsidePlanes@occluder_mgr@@AAEHABUoccluder@1@ABUbbox@@@Z 0050b300 f   Gamelib:OccluderMgr.obj
 0001:0010ad80       ?IsBBoxOccluded@occluder_mgr@@QAEHABUbbox@@@Z 0050b4c0 f   Gamelib:OccluderMgr.obj
 0001:0010ae00       ??0template_mgr@@QAE@XZ    0050b540 f   Gamelib:TemplateMgr.obj
 0001:0010ae70       ?ClearData@template_mgr@@QAEXXZ 0050b5b0 f   Gamelib:TemplateMgr.obj
 0001:0010af00       ?LoadData@template_mgr@@QAEHPBD0@Z 0050b640 f   Gamelib:TemplateMgr.obj
 0001:0010b120       ?CreateTemplate@template_mgr@@QAEHPBDABTvector3@@ABUradian3@@GGUguid@@@Z 0050b860 f   Gamelib:TemplateMgr.obj
 0001:0010bb60       ?IsSingleTemplate@template_mgr@@QAEHPBD@Z 0050c2a0 f   Gamelib:TemplateMgr.obj
 0001:0010bbc0       ?CreateSingleTemplate@template_mgr@@QAE?AUguid@@PBDABTvector3@@ABUradian3@@GG@Z 0050c300 f   Gamelib:TemplateMgr.obj
 0001:0010c0b0       ?ApplyTemplateToObject@template_mgr@@QAEXPBDUguid@@@Z 0050c7f0 f   Gamelib:TemplateMgr.obj
 0001:0010c260       ?SetCapacity@?$xarray@Uguid@@@@QAEXH@Z 0050c9a0 f i Gamelib:TemplateMgr.obj
 0001:0010c2d0       ?GetPainHandleForGenericPain@@YA?AVpain_handle@@W4generic_pain_type@@@Z 0050ca10 f   Gamelib:PainMgr.obj
 0001:0010c320       ??0pain_handle@@QAE@PBD@Z  0050ca60 f   Gamelib:PainMgr.obj
 0001:0010c340       ?BuildPainHealthProfileHandle@pain_handle@@QBE?AVpain_health_handle@@ABVhealth_handle@@@Z 0050ca80 f   Gamelib:PainMgr.obj
 0001:0010c3b0       ??0health_handle@@QAE@XZ   0050caf0 f   Gamelib:PainMgr.obj
 0001:0010c3b0       ??0health_profile@@QAE@XZ  0050caf0 f   Gamelib:PainMgr.obj
 0001:0010c3c0       ??0health_handle@@QAE@PBD@Z 0050cb00 f   Gamelib:PainMgr.obj
 0001:0010c3e0       ??0pain_profile@@QAE@XZ    0050cb20 f   Gamelib:PainMgr.obj
 0001:0010c3f0       ??1health_profile@@QAE@XZ  0050cb30 f   Gamelib:PainMgr.obj
 0001:0010c3f0       ??1pain_health_profile@@QAE@XZ 0050cb30 f   Gamelib:PainMgr.obj
 0001:0010c3f0       ??1pain_profile@@QAE@XZ    0050cb30 f   Gamelib:PainMgr.obj
 0001:0010c3f0       ??1health_handle@@QAE@XZ   0050cb30 f   Gamelib:PainMgr.obj
 0001:0010c400       ??0pain_health_profile@@QAE@XZ 0050cb40 f   Gamelib:PainMgr.obj
 0001:0010c410       ?LoadPainProfiles@@YAHPBD@Z 0050cb50 f   Gamelib:PainMgr.obj
 0001:0010ca30       ?LoadHealthProfiles@@YAHPBD@Z 0050d170 f   Gamelib:PainMgr.obj
 0001:0010ccc0       ?BuildPainHealthProfiles@@YAHPBD@Z 0050d400 f   Gamelib:PainMgr.obj
 0001:0010d170       ?FillPainHealthProfileData@@YAHPBDHH@Z 0050d8b0 f   Gamelib:PainMgr.obj
 0001:0010d4a0       ?LoadPainHealthProfiles@@YAHPBD@Z 0050dbe0 f   Gamelib:PainMgr.obj
 0001:0010d610       ?LoadPain@@YAHPBD@Z        0050dd50 f   Gamelib:PainMgr.obj
 0001:0010d6d0       ?UnloadPain@@YAXXZ         0050de10 f   Gamelib:PainMgr.obj
 0001:0010d780       ?Append@?$xarray@Upain_profile@@@@QAEXABUpain_profile@@@Z 0050dec0 f i Gamelib:PainMgr.obj
 0001:0010d920       ?Append@?$xarray@Uhealth_profile@@@@QAEXABUhealth_profile@@@Z 0050e060 f i Gamelib:PainMgr.obj
 0001:0010d9f0       ?Append@?$xarray@Vhealth_handle@@@@QAEAAVhealth_handle@@XZ 0050e130 f i Gamelib:PainMgr.obj
 0001:0010da90       ?SetCapacity@?$xarray@Vhealth_handle@@@@QAEXH@Z 0050e1d0 f i Gamelib:PainMgr.obj
 0001:0010db20       ?Append@?$xarray@Upain_health_profile@@@@QAEXABUpain_health_profile@@@Z 0050e260 f i Gamelib:PainMgr.obj
 0001:0010dc10       ?SetCapacity@?$xarray@Upain_health_profile@@@@QAEXH@Z 0050e350 f i Gamelib:PainMgr.obj
 0001:0010dcd0       ??0tweak_handle@@QAE@PBD@Z 0050e410 f   Gamelib:TweakMgr.obj
 0001:0010dcf0       ?Exists@tweak_handle@@QBEHXZ 0050e430 f   Gamelib:TweakMgr.obj
 0001:0010dd10       ?GetF32@tweak_handle@@QBEMXZ 0050e450 f   Gamelib:TweakMgr.obj
 0001:0010dd30       ?GetRadian@tweak_handle@@QBEMXZ 0050e470 f   Gamelib:TweakMgr.obj
 0001:0010dd60       ??0tweak_data_block@@QAE@XZ 0050e4a0 f   Gamelib:TweakMgr.obj
 0001:0010dd70       ?LoadTweaks@@YAHPBD@Z      0050e4b0 f   Gamelib:TweakMgr.obj
 0001:0010e130       ?GetTweakF32@@YAMPBD@Z     0050e870 f   Gamelib:TweakMgr.obj
 0001:0010e170       ?GetTweakF32@@YAMPBDM@Z    0050e8b0 f   Gamelib:TweakMgr.obj
 0001:0010e1c0       ?GetTweakS32@@YAHPBDH@Z    0050e900 f   Gamelib:TweakMgr.obj
 0001:0010e210       ?GetTweakRadian@@YAMPBDM@Z 0050e950 f   Gamelib:TweakMgr.obj
 0001:0010e270       ?Append@?$xarray@Utweak_data_block@@@@QAEXABUtweak_data_block@@@Z 0050e9b0 f i Gamelib:TweakMgr.obj
 0001:0010e330       ?SetCapacity@?$xarray@Utweak_data_block@@@@QAEXH@Z 0050ea70 f i Gamelib:TweakMgr.obj
 0001:0010e3d0       ?LookupCell@poly_cache@@AAEPAUcell@1@HHH@Z 0050eb10 f i Gamelib:PolyCache.obj
 0001:0010e420       ??0poly_cache@@QAE@XZ      0050eb60 f   Gamelib:PolyCache.obj
 0001:0010e4c0       ?Clear@poly_cache@@AAEXXZ  0050ec00 f   Gamelib:PolyCache.obj
 0001:0010e5b0       ?DisplayStats@poly_cache@@QAEXXZ 0050ecf0 f   Gamelib:PolyCache.obj
 0001:0010eb20       ?Init@poly_cache@@QAEXHHH@Z 0050f260 f   Gamelib:PolyCache.obj
 0001:0010ec90       ?AcquireCell@poly_cache@@QAEPAUcell@1@HHH@Z 0050f3d0 f   Gamelib:PolyCache.obj
 0001:0010ed70       ?InvalidateCells@poly_cache@@QAEXABUbbox@@ABUguid@@@Z 0050f4b0 f   Gamelib:PolyCache.obj
 0001:0010ef80       ?DestroyCell@poly_cache@@AAEXPAUcell@1@@Z 0050f6c0 f   Gamelib:PolyCache.obj
 0001:0010f080       ?GetCellRegion@poly_cache@@QAEXABUbbox@@AAH11111@Z 0050f7c0 f   Gamelib:PolyCache.obj
 0001:0010f1c0       ?BuildNewCell@poly_cache@@AAEPAUcell@1@HHH@Z 0050f900 f   Gamelib:PolyCache.obj
 0001:0010f370       ?InitClusters@poly_cache@@AAEXXZ 0050fab0 f   Gamelib:PolyCache.obj
 0001:0010fae0       ?FindCluster@poly_cache@@AAEPAUcluster@1@Uguid@@H@Z 00510220 f   Gamelib:PolyCache.obj
 0001:0010fb40       ?AllocCluster@poly_cache@@AAEPAUcluster@1@HHHUguid@@H@Z 00510280 f   Gamelib:PolyCache.obj
 0001:0010fd20       ?FreeCluster@poly_cache@@AAEXPAUcluster@1@@Z 00510460 f   Gamelib:PolyCache.obj
 0001:0010fdb0       ?GatherClustersIntoCell@poly_cache@@AAEXAAUcell@1@ABUbbox@@@Z 005104f0 f   Gamelib:PolyCache.obj
 0001:0010ffc0       ?GatherCluster@poly_cache@@QAEXABUcollision_data@@PBTmatrix4@@_KUguid@@@Z 00510700 f   Gamelib:PolyCache.obj
 0001:00110920       ?BuildClusterList@poly_cache@@QAEXABUbbox@@W4type@object@@IIPBUguid@@H@Z 00511060 f   Gamelib:PolyCache.obj
 0001:00110ba0       ?BeginRayClusterWalk@poly_cache@@QAEXABTvector3@@0W4type@object@@IIPBUguid@@H@Z 005112e0 f   Gamelib:PolyCache.obj
 0001:00110c80       ?StepRayClusterWalker@poly_cache@@AAEHXZ 005113c0 f   Gamelib:PolyCache.obj
 0001:00110da0       ?ClearSequence@poly_cache@@AAEXXZ 005114e0 f   Gamelib:PolyCache.obj
 0001:00110de0       ?PreLoad@fileio@@QAEPAUresolve@1@PAI@Z 00511520 f i Gamelib:DecalMgr_StaticDecals.obj
 0001:00110e80       ?LoadStaticDecals@decal_mgr@@QAEXPBD@Z 005115c0 f   Gamelib:DecalMgr_StaticDecals.obj
 0001:00111010       ?UnloadStaticDecals@decal_mgr@@QAEXXZ 00511750 f   Gamelib:DecalMgr_StaticDecals.obj
 0001:00111060       ?RenderStaticDecals@decal_mgr@@IAEXAAUregistration_info@1@@Z 005117a0 f   Gamelib:DecalMgr_StaticDecals.obj
 0001:00111150       ??$Resolved@Ustatic_data@decal_mgr@@@fileio@@QAEXPAUresolve@0@AAPAUstatic_data@decal_mgr@@@Z 00511890 f i Gamelib:DecalMgr_StaticDecals.obj
 0001:001111f0       ??_Edebris_mgr@@UAEPAXI@Z  00511930 f i Gamelib:debris_mgr.obj
 0001:001111f0       ??_Gdebris_mgr@@UAEPAXI@Z  00511930 f i Gamelib:debris_mgr.obj
 0001:00111210       ?CreateDebrisFromObject@debris_mgr@@UAEXUguid@@HM@Z 00511950 f   Gamelib:debris_mgr.obj
 0001:00111500       ?CreateDebrisFromObject@debris_mgr@@UAEXAAVrigid_inst@@Uguid@@HM@Z 00511c40 f   Gamelib:debris_mgr.obj
 0001:00111810       ?CreateGlassFromRigidGeom@debris_mgr@@UAEXPAVplay_surface@@PBVpain@@@Z 00511f50 f   Gamelib:debris_mgr.obj
 0001:00111a70       ?CreateDebris@debris_mgr@@UAEXABTvector3@@I0PBDMHIH@Z 005121b0 f   Gamelib:debris_mgr.obj
 0001:00111c60       ?CreateDebris@debris_mgr@@UAEXABTvector3@@I0AAVrigid_inst@@MHI@Z 005123a0 f   Gamelib:debris_mgr.obj
 0001:00111df0       ?CreateDebris@debris_mgr@@UAEXABTvector3@@I0ABUradian3@@AAVrigid_inst@@MHI@Z 00512530 f   Gamelib:debris_mgr.obj
 0001:00111f90       ?CreateShell@debris_mgr@@UAEXABTvector3@@IABUradian3@@PBDMI@Z 005126d0 f   Gamelib:debris_mgr.obj
 0001:001123d0       ?CapVelocity@debris_mgr@@IAEXAATvector3@@@Z 00512b10 f   Gamelib:debris_mgr.obj
 0001:00112470       ?CreateSpecializedDebris@debris_mgr@@QAEXABTvector3@@0W4type@object@@IUguid@@@Z 00512bb0 f   Gamelib:debris_mgr.obj
 0001:001125e0       ?PreLoad@rigid_color@@UAEPAXPAI@Z 00512d20 f i Gamelib:RigidInst.obj
 0001:001125e0       ?PreLoad@skin_loader@@UAEPAXPAI@Z 00512d20 f i Gamelib:SkinInst.obj
 0001:001125e0       ?PreLoad@rigid_loader@@UAEPAXPAI@Z 00512d20 f i Gamelib:RigidInst.obj
 0001:001125e0       ?PreLoad@decal_loader@@UAEPAXPAI@Z 00512d20 f i Gamelib:DecalLoader.obj
 0001:001125f0       ?Resolve@decal_loader@@UAEPAXPAX@Z 00512d30 f i Gamelib:DecalLoader.obj
 0001:00112650       ?Unload@decal_loader@@UAEXPAX@Z 00512d90 f i Gamelib:DecalLoader.obj
 0001:00112750       ??$Resolved@Vdecal_package@@@fileio@@QAEXPAUresolve@0@AAPAVdecal_package@@@Z 00512e90 f i Gamelib:DecalLoader.obj
 0001:001127f0       ??0hud_sniper@@QAE@XZ      00512f30 f i Gamelib:hud_Player.obj
 0001:00112870       ??0player_hud@@QAE@XZ      00512fb0 f   Gamelib:hud_Player.obj
 0001:00112be0       ?OnRender@player_hud@@QAEXXZ 00513320 f   Gamelib:hud_Player.obj
 0001:001132c0       ?UpdateMPIcons@player_hud@@QAEXMPAVplayer@@@Z 00513a00 f   Gamelib:hud_Player.obj
 0001:001138d0       ?OnAdvanceLogic@player_hud@@QAEXM@Z 00514010 f   Gamelib:hud_Player.obj
 0001:00113b50       ??0hud_health@@QAE@XZ      00514290 f   Gamelib:hud_Health.obj
 0001:00113df0       ??_Ghud_health@@UAEPAXI@Z  00514530 f i Gamelib:hud_Health.obj
 0001:00113df0       ??_Ehud_health@@UAEPAXI@Z  00514530 f i Gamelib:hud_Health.obj
 0001:00113e30       ?Init@hud_health@@QAEXXZ   00514570 f   Gamelib:hud_Health.obj
 0001:00113ec0       ?OnRender@hud_health@@UAEXPAVplayer@@@Z 00514600 f   Gamelib:hud_Health.obj
 0001:00113f20       ?OnAdvanceLogic@hud_health@@UAEXPAVplayer@@M@Z 00514660 f   Gamelib:hud_Health.obj
 0001:00113fc0       ?RenderEKG@hud_health@@QAEXXZ 00514700 f   Gamelib:hud_Health.obj
 0001:00114920       ?AdvanceEKG@hud_health@@QAEXPAVplayer@@M@Z 00515060 f   Gamelib:hud_Health.obj
 0001:00114b00       ?Draw_ShiftCube@@YAXMMMMMUxcolor@@0@Z 00515240 f   Gamelib:hud_Health.obj
 0001:00114c30       ?RenderBar@hud_health@@QAEXW4bar_type@@@Z 00515370 f   Gamelib:hud_Health.obj
 0001:00115460       ?AdvanceBar@hud_health@@QAEXPAVplayer@@MW4bar_type@@@Z 00515ba0 f   Gamelib:hud_Health.obj
 0001:00115c30       ?UpdateEQBar@hud_health@@QAEXPAVplayer@@M@Z 00516370 f   Gamelib:hud_Health.obj
 0001:00115e60       ?RenderMutationTakeOver@hud_health@@QAEXXZ 005165a0 f   Gamelib:hud_Health.obj
 0001:001160a0       ?UpdateMutationTakeOver@hud_health@@QAEXPAVplayer@@M@Z 005167e0 f   Gamelib:hud_Health.obj
 0001:00116360       ?OnProperty@hud_health@@UAEHAAVprop_query@@@Z 00516aa0 f   Gamelib:hud_Health.obj
 0001:00116380       ?OnEnumProp@hud_health@@UAEXAAVprop_enum@@@Z 00516ac0 f   Gamelib:hud_Health.obj
 0001:001163b0       ??0hud_contagious_vision@@QAE@XZ 00516af0 f   Gamelib:hud_ContagiousVision.obj
 0001:00116520       ??_Ghud_contagious_vision@@UAEPAXI@Z 00516c60 f i Gamelib:hud_ContagiousVision.obj
 0001:00116520       ??_Ehud_contagious_vision@@UAEPAXI@Z 00516c60 f i Gamelib:hud_ContagiousVision.obj
 0001:00116550       ??1hud_contagious_vision@@UAE@XZ 00516c90 f   Gamelib:hud_ContagiousVision.obj
 0001:001165b0       ?OnRender@hud_contagious_vision@@UAEXPAVplayer@@@Z 00516cf0 f   Gamelib:hud_ContagiousVision.obj
 0001:001167b0       ??0hud_scanner@@QAE@XZ     00516ef0 f   Gamelib:hud_Scanner.obj
 0001:001168e0       ?OnRender@hud_scanner@@UAEXPAVplayer@@@Z 00517020 f   Gamelib:hud_Scanner.obj
 0001:00116910       ?NotifyScanComplete@hud_scanner@@QAEXPAVplayer@@Uguid@@@Z 00517050 f   Gamelib:hud_Scanner.obj
 0001:00116960       ?BuildAirSample@hud_scanner@@IAEXPAVplayer@@@Z 005170a0 f   Gamelib:hud_Scanner.obj
 0001:00116f60       ?BuildDataLines@hud_scanner@@IAEXPAVplayer@@Uguid@@@Z 005176a0 f   Gamelib:hud_Scanner.obj
 0001:001176a0       ?IsGenericCharacter@hud_scanner@@IAEHPAVobject@@@Z 00517de0 f   Gamelib:hud_Scanner.obj
 0001:001176f0       ?PrependHeartbeat@hud_scanner@@IAEXPAVplayer@@H@Z 00517e30 f   Gamelib:hud_Scanner.obj
 0001:001177f0       ?BuildScanIdentifier@hud_scanner@@IAEHPADPAVplayer@@W4eScanSectionID@@@Z 00517f30 f   Gamelib:hud_Scanner.obj
 0001:00117c00       ?RenderGeiger@hud_scanner@@QAEXPAVplayer@@@Z 00518340 f   Gamelib:hud_Scanner.obj
 0001:00117e00       ?RenderLoreBar@hud_scanner@@QAEXH@Z 00518540 f   Gamelib:hud_Scanner.obj
 0001:00117fa0       ?OnAdvanceLogic@hud_scanner@@UAEXPAVplayer@@M@Z 005186e0 f   Gamelib:hud_Scanner.obj
 0001:00118000       ??0hud_info_box@@QAE@XZ    00518740 f   Gamelib:hud_InfoBox.obj
 0001:001180c0       ?OnRender@hud_info_box@@UAEXPAVplayer@@@Z 00518800 f   Gamelib:hud_InfoBox.obj
 0001:00118ad0       ?OnAdvanceLogic@hud_info_box@@UAEXPAVplayer@@M@Z 00519210 f   Gamelib:hud_InfoBox.obj
 0001:00118ae0       ?SetScoreInfo@hud_info_box@@QAEXPBG00H@Z 00519220 f   Gamelib:hud_InfoBox.obj
 0001:00118bd0       ?UpdateCFT_Flag@hud_info_box@@QAEXMPAVplayer@@@Z 00519310 f   Gamelib:hud_InfoBox.obj
 0001:00118cc0       ?OnRenderCTF_Flag@hud_info_box@@QAEXAATvector3@@@Z 00519400 f   Gamelib:hud_InfoBox.obj
 0001:00118f80       ?AddIcon@hud_icon@@QAEXW4icon_type@@ABTvector3@@1HHW4gutter_type@@Uxcolor@@PBGHHMMM@Z 005196c0 f   Gamelib:hud_Icon.obj
 0001:00119090       ??4icon_inf@@QAEAAU0@ABU0@@Z 005197d0 f i Gamelib:hud_Icon.obj
 0001:00119160       ?RenderIcon@hud_icon@@QAEXPAVplayer@@AAUicon_inf@@@Z 005198a0 f   Gamelib:hud_Icon.obj
 0001:00119e20       ?OnRender@hud_icon@@UAEXPAVplayer@@@Z 0051a560 f   Gamelib:hud_Icon.obj
 0001:0011a100       ?OnProperty@hud_icon@@UAEHAAVprop_query@@@Z 0051a840 f   Gamelib:hud_Icon.obj
 0001:0011a2c0       ?OnEnumProp@hud_icon@@UAEXAAVprop_enum@@@Z 0051aa00 f   Gamelib:hud_Icon.obj
 0001:0011a330       ?OnRender@hud_reticle@@UAEXPAVplayer@@@Z 0051aa70 f   Gamelib:hud_Reticle.obj
 0001:0011b040       ?OnRender@hud_vote@@UAEXPAVplayer@@@Z 0051b780 f   Gamelib:hud_Vote.obj
 0001:0011bb70       ?OnAdvanceLogic@hud_vote@@UAEXPAVplayer@@M@Z 0051c2b0 f   Gamelib:hud_Vote.obj
 0001:0011bf90       ??0pain@@QAE@XZ            0051c6d0 f   Gamelib:Pain.obj
 0001:0011c070       ??1pain@@QAE@XZ            0051c7b0 f   Gamelib:Pain.obj
 0001:0011c090       ?SetupDefaults@pain@@AAEXXZ 0051c7d0 f   Gamelib:Pain.obj
 0001:0011c150       ?Setup@pain@@QAEXPBDUguid@@ABTvector3@@@Z 0051c890 f   Gamelib:Pain.obj
 0001:0011c180       ?Setup@pain@@QAEXVpain_handle@@Uguid@@ABTvector3@@@Z 0051c8c0 f   Gamelib:Pain.obj
 0001:0011c300       ?SetDirection@pain@@QAEXABTvector3@@@Z 0051ca40 f   Gamelib:Pain.obj
 0001:0011c3e0       ?SetDirectHitGuid@pain@@QAEXUguid@@@Z 0051cb20 f   Gamelib:Pain.obj
 0001:0011c420       ?SetCollisionInfo@pain@@QAEXABUcollision@collision_mgr@@@Z 0051cb60 f   Gamelib:Pain.obj
 0001:0011c480       ?ComputeDamageAndForce@pain@@QBEHVhealth_handle@@Uguid@@ABTvector3@@@Z 0051cbc0 f   Gamelib:Pain.obj
 0001:0011c830       ?ComputeLOSCoverage@pain@@ABEXXZ 0051cf70 f   Gamelib:Pain.obj
 0001:0011ca00       ?HandleFriendlyFire@pain@@ABEHPAVobject@@0AAM1@Z 0051d140 f   Gamelib:Pain.obj
 0001:0011cac0       ?ApplyToWorld@pain@@QAEHH@Z 0051d200 f   Gamelib:Pain.obj
 0001:0011cc00       ?ApplyToObject@pain@@QAEHUguid@@@Z 0051d340 f   Gamelib:Pain.obj
 0001:0011cc30       ?ApplyToObject@pain@@QAEHPAVobject@@@Z 0051d370 f   Gamelib:Pain.obj
 0001:0011cca0       ??0hud_damage@@QAE@XZ      0051d3e0 f   Gamelib:hud_Damage.obj
 0001:0011cd70       ?OnRender@hud_damage@@UAEXPAVplayer@@@Z 0051d4b0 f   Gamelib:hud_Damage.obj
 0001:0011cfc0       ?OnAdvanceLogic@hud_damage@@UAEXPAVplayer@@M@Z 0051d700 f   Gamelib:hud_Damage.obj
 0001:0011d410       ?OnProperty@hud_damage@@UAEHAAVprop_query@@@Z 0051db50 f   Gamelib:hud_Damage.obj
 0001:0011d570       ?OnEnumProp@hud_damage@@UAEXAAVprop_enum@@@Z 0051dcb0 f   Gamelib:hud_Damage.obj
 0001:0011d5e0       ??0hud_text@@QAE@XZ        0051dd20 f   Gamelib:hud_Text.obj
 0001:0011d7f0       ?GetIthGoal@hud_text@@QAEHH@Z 0051df30 f   Gamelib:hud_Text.obj
 0001:0011d960       ?OnRender@hud_text@@UAEXPAVplayer@@@Z 0051e0a0 f   Gamelib:hud_Text.obj
 0001:0011e330       ?AddLinesAndChars@hud_text@@AAEXAAH0PAG@Z 0051ea70 f i Gamelib:hud_Text.obj
 0001:0011e370       ?ClearAllBelow@hud_text@@AAEXH@Z 0051eab0 f i Gamelib:hud_Text.obj
 0001:0011e5a0       ?OnAdvanceLogic@hud_text@@UAEXPAVplayer@@M@Z 0051ece0 f   Gamelib:hud_Text.obj
 0001:0011ea50       ?AddLine@hud_text@@QAEXPBG@Z 0051f190 f   Gamelib:hud_Text.obj
 0001:0011eb90       ?AddGoal@hud_text@@AAEXHPBGM@Z 0051f2d0 f   Gamelib:hud_Text.obj
 0001:0011ecc0       ?UpdateGoal@hud_text@@QAEXHHPBGM@Z 0051f400 f   Gamelib:hud_Text.obj
 0001:0011ed60       ?SetBonus@hud_text@@QAEXPBGM@Z 0051f4a0 f   Gamelib:hud_Text.obj
 0001:0011eda0       ?SetWeaponInfo@hud_text@@QAEXPBGM@Z 0051f4e0 f   Gamelib:hud_Text.obj
 0001:0011ede0       ?OnRender@hud_sniper@@UAEXPAVplayer@@@Z 0051f520 f   Gamelib:hud_Sniper.obj
 0001:00120270       ?OnProperty@hud_sniper@@UAEHAAVprop_query@@@Z 005209b0 f   Gamelib:hud_Sniper.obj
 0001:00120620       ?OnEnumProp@hud_sniper@@UAEXAAVprop_enum@@@Z 00520d60 f   Gamelib:hud_Sniper.obj
 0001:001206f0       ??_Ehud_mutant_vision@@UAEPAXI@Z 00520e30 f i Gamelib:hud_MutantVision.obj
 0001:001206f0       ??_Ghud_mutant_vision@@UAEPAXI@Z 00520e30 f i Gamelib:hud_MutantVision.obj
